
Out.elf:     file format elf32-littlearm


Disassembly of section .text:

87800000 <_start>:
87800000:	e59ff138 	ldr	pc, [pc, #312]	; 87800140 <FIQ_Handler+0x8>
87800004:	e59ff138 	ldr	pc, [pc, #312]	; 87800144 <FIQ_Handler+0xc>
87800008:	e59ff138 	ldr	pc, [pc, #312]	; 87800148 <FIQ_Handler+0x10>
8780000c:	e59ff138 	ldr	pc, [pc, #312]	; 8780014c <FIQ_Handler+0x14>
87800010:	e59ff138 	ldr	pc, [pc, #312]	; 87800150 <FIQ_Handler+0x18>
87800014:	e59ff138 	ldr	pc, [pc, #312]	; 87800154 <FIQ_Handler+0x1c>
87800018:	e59ff138 	ldr	pc, [pc, #312]	; 87800158 <FIQ_Handler+0x20>
8780001c:	e59ff138 	ldr	pc, [pc, #312]	; 8780015c <FIQ_Handler+0x24>

87800020 <Reset_Handler>:
87800020:	f10c0080 	cpsid	i
87800024:	ee110f10 	mrc	15, 0, r0, cr1, cr0, {0}
87800028:	e3c00a01 	bic	r0, r0, #4096	; 0x1000
8780002c:	e3c00b02 	bic	r0, r0, #2048	; 0x800
87800030:	e3c00004 	bic	r0, r0, #4
87800034:	e3c00002 	bic	r0, r0, #2
87800038:	e3c00001 	bic	r0, r0, #1
8780003c:	ee010f10 	mcr	15, 0, r0, cr1, cr0, {0}
87800040:	e59f0118 	ldr	r0, [pc, #280]	; 87800160 <FIQ_Handler+0x28>
87800044:	f57ff04f 	dsb	sy
87800048:	f57ff06f 	isb	sy
8780004c:	ee0c0f10 	mcr	15, 0, r0, cr12, cr0, {0}
87800050:	f57ff04f 	dsb	sy
87800054:	f57ff06f 	isb	sy

87800058 <_bss_start>:
87800058:	87801084 	strhi	r1, [r0, r4, lsl #1]

8780005c <_bss_end>:
8780005c:	8780158c 	strhi	r1, [r0, ip, lsl #11]
87800060:	e51f0010 	ldr	r0, [pc, #-16]	; 87800058 <_bss_start>
87800064:	e51f1010 	ldr	r1, [pc, #-16]	; 8780005c <_bss_end>
87800068:	e3a02000 	mov	r2, #0

8780006c <bss_loop>:
8780006c:	e8a00004 	stmia	r0!, {r2}
87800070:	e1500001 	cmp	r0, r1
87800074:	dafffffc 	ble	8780006c <bss_loop>
87800078:	e10f0000 	mrs	r0, CPSR
8780007c:	e3c0001f 	bic	r0, r0, #31
87800080:	e3800012 	orr	r0, r0, #18
87800084:	e129f000 	msr	CPSR_fc, r0
87800088:	e59fd0d4 	ldr	sp, [pc, #212]	; 87800164 <FIQ_Handler+0x2c>
8780008c:	e10f0000 	mrs	r0, CPSR
87800090:	e3c0001f 	bic	r0, r0, #31
87800094:	e380001f 	orr	r0, r0, #31
87800098:	e129f000 	msr	CPSR_fc, r0
8780009c:	e59fd0c4 	ldr	sp, [pc, #196]	; 87800168 <FIQ_Handler+0x30>
878000a0:	e10f0000 	mrs	r0, CPSR
878000a4:	e3c0001f 	bic	r0, r0, #31
878000a8:	e3800013 	orr	r0, r0, #19
878000ac:	e129f000 	msr	CPSR_fc, r0
878000b0:	e59fd0b4 	ldr	sp, [pc, #180]	; 8780016c <FIQ_Handler+0x34>
878000b4:	f1080080 	cpsie	i
878000b8:	ea0003ee 	b	87801078 <__main_from_arm>

878000bc <Undfine_Handler>:
878000bc:	e59f0080 	ldr	r0, [pc, #128]	; 87800144 <FIQ_Handler+0xc>
878000c0:	e12fff10 	bx	r0

878000c4 <SVC_Handler>:
878000c4:	e59f007c 	ldr	r0, [pc, #124]	; 87800148 <FIQ_Handler+0x10>
878000c8:	e12fff10 	bx	r0

878000cc <PreAbort_Handler>:
878000cc:	e59f0078 	ldr	r0, [pc, #120]	; 8780014c <FIQ_Handler+0x14>
878000d0:	e12fff10 	bx	r0

878000d4 <DataAbort_Handler>:
878000d4:	e59f0074 	ldr	r0, [pc, #116]	; 87800150 <FIQ_Handler+0x18>
878000d8:	e12fff10 	bx	r0

878000dc <NotUsed_Handler>:
878000dc:	e51f0008 	ldr	r0, [pc, #-8]	; 878000dc <NotUsed_Handler>
878000e0:	e12fff10 	bx	r0

878000e4 <IRQ_Handler>:
878000e4:	e52de004 	push	{lr}		; (str lr, [sp, #-4]!)
878000e8:	e92d100f 	push	{r0, r1, r2, r3, ip}
878000ec:	e14f0000 	mrs	r0, SPSR
878000f0:	e52d0004 	push	{r0}		; (str r0, [sp, #-4]!)
878000f4:	ee9f1f10 	mrc	15, 4, r1, cr15, cr0, {0}
878000f8:	e2811a02 	add	r1, r1, #8192	; 0x2000
878000fc:	e591000c 	ldr	r0, [r1, #12]
87800100:	e92d0003 	push	{r0, r1}
87800104:	f1020013 	cps	#19
87800108:	e52de004 	push	{lr}		; (str lr, [sp, #-4]!)
8780010c:	e59f205c 	ldr	r2, [pc, #92]	; 87800170 <FIQ_Handler+0x38>
87800110:	e12fff32 	blx	r2
87800114:	e49de004 	pop	{lr}		; (ldr lr, [sp], #4)
87800118:	f1020012 	cps	#18
8780011c:	e8bd0003 	pop	{r0, r1}
87800120:	e5810010 	str	r0, [r1, #16]
87800124:	e49d0004 	pop	{r0}		; (ldr r0, [sp], #4)
87800128:	e16ff000 	msr	SPSR_fsxc, r0
8780012c:	e8bd100f 	pop	{r0, r1, r2, r3, ip}
87800130:	e49de004 	pop	{lr}		; (ldr lr, [sp], #4)
87800134:	e25ef004 	subs	pc, lr, #4

87800138 <FIQ_Handler>:
87800138:	e59f001c 	ldr	r0, [pc, #28]	; 8780015c <FIQ_Handler+0x24>
8780013c:	e12fff10 	bx	r0
87800140:	87800020 	strhi	r0, [r0, r0, lsr #32]
87800144:	878000bc 			; <UNDEFINED> instruction: 0x878000bc
87800148:	878000c4 	strhi	r0, [r0, r4, asr #1]
8780014c:	878000cc 	strhi	r0, [r0, ip, asr #1]
87800150:	878000d4 			; <UNDEFINED> instruction: 0x878000d4
87800154:	878000dc 			; <UNDEFINED> instruction: 0x878000dc
87800158:	878000e4 	strhi	r0, [r0, r4, ror #1]
8780015c:	87800138 			; <UNDEFINED> instruction: 0x87800138
87800160:	87800000 	strhi	r0, [r0, r0]
87800164:	80600000 	rsbhi	r0, r0, r0
87800168:	80400000 	subhi	r0, r0, r0
8780016c:	80200000 	eorhi	r0, r0, r0
87800170:	87801009 	strhi	r1, [r0, r9]
87800174:	00001e41 	andeq	r1, r0, r1, asr #28
87800178:	61656100 	cmnvs	r5, r0, lsl #2
8780017c:	01006962 	tsteq	r0, r2, ror #18
87800180:	00000014 	andeq	r0, r0, r4, lsl r0
87800184:	412d3705 	teqmi	sp, r5, lsl #14
87800188:	070a0600 	streq	r0, [sl, -r0, lsl #12]
8780018c:	09010841 	stmdbeq	r1, {r0, r6, fp}
87800190:	9e040a02 	vmlals.f32	s0, s8, s4
87800194:	02000000 	andeq	r0, r0, #0
87800198:	00002600 	andeq	r2, r0, r0, lsl #12
8780019c:	fb010200 	blx	878409a6 <__bss_end+0x3f41a>
878001a0:	01000d0e 	tsteq	r0, lr, lsl #26
878001a4:	00010101 	andeq	r0, r1, r1, lsl #2
878001a8:	00010000 	andeq	r0, r1, r0
878001ac:	72700100 	rsbsvc	r0, r0, #0, 2
878001b0:	63656a6f 	cmnvs	r5, #454656	; 0x6f000
878001b4:	73000074 	movwvc	r0, #116	; 0x74
878001b8:	74726174 	ldrbtvc	r6, [r2], #-372	; 0x174
878001bc:	0100732e 	tsteq	r0, lr, lsr #6
878001c0:	00000000 	andeq	r0, r0, r0
878001c4:	00000205 	andeq	r0, r0, r5, lsl #4
878001c8:	2f178780 	svccs	0x00178780
878001cc:	2f2f2f2f 	svccs	0x002f2f2f
878001d0:	30332f2f 	eorscc	r2, r3, pc, lsr #30
878001d4:	2f2f2f30 	svccs	0x002f2f30
878001d8:	2f31302f 	svccs	0x0031302f
878001dc:	2f2f302f 	svccs	0x002f302f
878001e0:	2f660b03 	svccs	0x00660b03
878001e4:	2f2f302f 	svccs	0x002f302f
878001e8:	2f2f2f31 	svccs	0x002f2f31
878001ec:	2f2f312f 	svccs	0x002f312f
878001f0:	2f312f2f 	svccs	0x00312f2f
878001f4:	302f2f2f 	eorcc	r2, pc, pc, lsr #30
878001f8:	322f3230 	eorcc	r3, pc, #48, 4
878001fc:	322f322f 	eorcc	r3, pc, #-268435454	; 0xf0000002
87800200:	322f322f 	eorcc	r3, pc, #-268435454	; 0xf0000002
87800204:	302f302f 	eorcc	r3, pc, pc, lsr #32
87800208:	30322f32 	eorscc	r2, r2, r2, lsr pc
8780020c:	302f2f30 	eorcc	r2, pc, r0, lsr pc	; <UNPREDICTABLE>
87800210:	302f2f2f 	eorcc	r2, pc, pc, lsr #30
87800214:	2f2f302f 	svccs	0x002f302f
87800218:	f3032f33 	vmaxnm.f32	d2, d3, d19
8780021c:	2f2f2e7e 	svccs	0x002f2e7e
87800220:	2f2f2f2f 	svccs	0x002f2f2f
87800224:	2e12032f 	cdpcs	3, 1, cr0, cr2, cr15, {1}
87800228:	352e1e03 	strcc	r1, [lr, #-3587]!	; 0xe03
8780022c:	2e350335 	mrccs	3, 1, r0, cr5, cr5, {1}
87800230:	01000202 	tsteq	r0, r2, lsl #4
87800234:	00005d01 	andeq	r5, r0, r1, lsl #26
87800238:	96000200 	strls	r0, [r0], -r0, lsl #4
8780023c:	04878002 	streq	r8, [r7], #2
87800240:	80019301 	andhi	r9, r1, r1, lsl #6
87800244:	80000087 	andhi	r0, r0, r7, lsl #1
87800248:	80017487 	andhi	r7, r1, r7, lsl #9
8780024c:	6f727087 	svcvs	0x00727087
87800250:	7463656a 	strbtvc	r6, [r3], #-1386	; 0x56a
87800254:	6174732f 	cmnvs	r4, pc, lsr #6
87800258:	732e7472 	teqvc	lr, #1912602624	; 0x72000000
8780025c:	6f682f00 	svcvs	0x00682f00
87800260:	672f656d 	strvs	r6, [pc, -sp, ror #10]!
87800264:	672f786c 	strvs	r7, [pc, -ip, ror #16]!
87800268:	4e2f786c 	cdpmi	8, 2, cr7, cr15, cr12, {3}
8780026c:	692d5058 	pushvs	{r3, r4, r6, ip, lr}
87800270:	7536786d 	ldrvc	r7, [r6, #-2157]!	; 0x86d
87800274:	452f6c6c 	strmi	r6, [pc, #-3180]!	; 877ff610 <_start-0x9f0>
87800278:	74746970 	ldrbtvc	r6, [r4], #-2416	; 0x970
8780027c:	72656d69 	rsbvc	r6, r5, #6720	; 0x1a40
87800280:	6d65445f 	cfstrdvs	mvd4, [r5, #-380]!	; 0xfffffe84
87800284:	4e47006f 	cdpmi	0, 4, cr0, cr7, cr15, {3}
87800288:	53412055 	movtpl	r2, #4181	; 0x1055
8780028c:	322e3220 	eorcc	r3, lr, #32, 4
87800290:	00302e34 	eorseq	r2, r0, r4, lsr lr
87800294:	11018001 	tstne	r1, r1
87800298:	11061000 	mrsne	r1, (UNDEF: 6)
8780029c:	03011201 	movweq	r1, #4609	; 0x1201
878002a0:	25081b08 	strcs	r1, [r8, #-2824]	; 0xb08
878002a4:	00051308 	andeq	r1, r5, r8, lsl #6
	...
878002b0:	0000001c 	andeq	r0, r0, ip, lsl r0
878002b4:	02350002 	eorseq	r0, r5, #2
878002b8:	00048780 	andeq	r8, r4, r0, lsl #15
878002bc:	00000000 	andeq	r0, r0, r0
878002c0:	87800000 	strhi	r0, [r0, r0]
878002c4:	00000174 	andeq	r0, r0, r4, ror r1
	...

878002d0 <main>:
878002d0:	b580      	push	{r7, lr}
878002d2:	af00      	add	r7, sp, #0
878002d4:	f000 fe00 	bl	87800ed8 <int_init>
878002d8:	f000 f99c 	bl	87800614 <Imx6u_clkinit>
878002dc:	f000 f962 	bl	878005a4 <clk_enable>
878002e0:	f000 fb94 	bl	87800a0c <led_init>
878002e4:	f000 fc5c 	bl	87800ba0 <Beep_Init>
878002e8:	f000 fcb8 	bl	87800c5c <exti_init>
878002ec:	f000 fac4 	bl	87800878 <delay_init>
878002f0:	2001      	movs	r0, #1
878002f2:	f000 fb73 	bl	878009dc <delay_s>
878002f6:	f000 fbc1 	bl	87800a7c <led_turn>
878002fa:	e7f9      	b.n	878002f0 <main+0x20>

878002fc <gpio_init>:
878002fc:	b580      	push	{r7, lr}
878002fe:	b084      	sub	sp, #16
87800300:	af00      	add	r7, sp, #0
87800302:	60f8      	str	r0, [r7, #12]
87800304:	60b9      	str	r1, [r7, #8]
87800306:	607a      	str	r2, [r7, #4]
87800308:	68fb      	ldr	r3, [r7, #12]
8780030a:	695a      	ldr	r2, [r3, #20]
8780030c:	2101      	movs	r1, #1
8780030e:	68bb      	ldr	r3, [r7, #8]
87800310:	fa01 f303 	lsl.w	r3, r1, r3
87800314:	43db      	mvns	r3, r3
87800316:	401a      	ands	r2, r3
87800318:	68fb      	ldr	r3, [r7, #12]
8780031a:	615a      	str	r2, [r3, #20]
8780031c:	687b      	ldr	r3, [r7, #4]
8780031e:	685b      	ldr	r3, [r3, #4]
87800320:	2b00      	cmp	r3, #0
87800322:	d109      	bne.n	87800338 <gpio_init+0x3c>
87800324:	68fb      	ldr	r3, [r7, #12]
87800326:	685b      	ldr	r3, [r3, #4]
87800328:	2101      	movs	r1, #1
8780032a:	68ba      	ldr	r2, [r7, #8]
8780032c:	fa01 f202 	lsl.w	r2, r1, r2
87800330:	43d2      	mvns	r2, r2
87800332:	401a      	ands	r2, r3
87800334:	68fb      	ldr	r3, [r7, #12]
87800336:	605a      	str	r2, [r3, #4]
87800338:	687b      	ldr	r3, [r7, #4]
8780033a:	685b      	ldr	r3, [r3, #4]
8780033c:	2b01      	cmp	r3, #1
8780033e:	d124      	bne.n	8780038a <gpio_init+0x8e>
87800340:	68fb      	ldr	r3, [r7, #12]
87800342:	685b      	ldr	r3, [r3, #4]
87800344:	2101      	movs	r1, #1
87800346:	68ba      	ldr	r2, [r7, #8]
87800348:	fa01 f202 	lsl.w	r2, r1, r2
8780034c:	431a      	orrs	r2, r3
8780034e:	68fb      	ldr	r3, [r7, #12]
87800350:	605a      	str	r2, [r3, #4]
87800352:	687b      	ldr	r3, [r7, #4]
87800354:	781b      	ldrb	r3, [r3, #0]
87800356:	2b00      	cmp	r3, #0
87800358:	d10a      	bne.n	87800370 <gpio_init+0x74>
8780035a:	68fb      	ldr	r3, [r7, #12]
8780035c:	681b      	ldr	r3, [r3, #0]
8780035e:	2101      	movs	r1, #1
87800360:	68ba      	ldr	r2, [r7, #8]
87800362:	fa01 f202 	lsl.w	r2, r1, r2
87800366:	43d2      	mvns	r2, r2
87800368:	401a      	ands	r2, r3
8780036a:	68fb      	ldr	r3, [r7, #12]
8780036c:	601a      	str	r2, [r3, #0]
8780036e:	e00c      	b.n	8780038a <gpio_init+0x8e>
87800370:	687b      	ldr	r3, [r7, #4]
87800372:	781b      	ldrb	r3, [r3, #0]
87800374:	2b01      	cmp	r3, #1
87800376:	d108      	bne.n	8780038a <gpio_init+0x8e>
87800378:	68fb      	ldr	r3, [r7, #12]
8780037a:	681b      	ldr	r3, [r3, #0]
8780037c:	2101      	movs	r1, #1
8780037e:	68ba      	ldr	r2, [r7, #8]
87800380:	fa01 f202 	lsl.w	r2, r1, r2
87800384:	431a      	orrs	r2, r3
87800386:	68fb      	ldr	r3, [r7, #12]
87800388:	601a      	str	r2, [r3, #0]
8780038a:	687b      	ldr	r3, [r7, #4]
8780038c:	689b      	ldr	r3, [r3, #8]
8780038e:	461a      	mov	r2, r3
87800390:	68b9      	ldr	r1, [r7, #8]
87800392:	68f8      	ldr	r0, [r7, #12]
87800394:	f000 f878 	bl	87800488 <gpio_interruptinit>
87800398:	3710      	adds	r7, #16
8780039a:	46bd      	mov	sp, r7
8780039c:	bd80      	pop	{r7, pc}
8780039e:	bf00      	nop

878003a0 <gpio_pinwrite>:
878003a0:	b480      	push	{r7}
878003a2:	b085      	sub	sp, #20
878003a4:	af00      	add	r7, sp, #0
878003a6:	60f8      	str	r0, [r7, #12]
878003a8:	60b9      	str	r1, [r7, #8]
878003aa:	607a      	str	r2, [r7, #4]
878003ac:	687b      	ldr	r3, [r7, #4]
878003ae:	2b01      	cmp	r3, #1
878003b0:	d109      	bne.n	878003c6 <gpio_pinwrite+0x26>
878003b2:	68fb      	ldr	r3, [r7, #12]
878003b4:	681b      	ldr	r3, [r3, #0]
878003b6:	2101      	movs	r1, #1
878003b8:	68ba      	ldr	r2, [r7, #8]
878003ba:	fa01 f202 	lsl.w	r2, r1, r2
878003be:	431a      	orrs	r2, r3
878003c0:	68fb      	ldr	r3, [r7, #12]
878003c2:	601a      	str	r2, [r3, #0]
878003c4:	e00c      	b.n	878003e0 <gpio_pinwrite+0x40>
878003c6:	687b      	ldr	r3, [r7, #4]
878003c8:	2b00      	cmp	r3, #0
878003ca:	d109      	bne.n	878003e0 <gpio_pinwrite+0x40>
878003cc:	68fb      	ldr	r3, [r7, #12]
878003ce:	681b      	ldr	r3, [r3, #0]
878003d0:	2101      	movs	r1, #1
878003d2:	68ba      	ldr	r2, [r7, #8]
878003d4:	fa01 f202 	lsl.w	r2, r1, r2
878003d8:	43d2      	mvns	r2, r2
878003da:	401a      	ands	r2, r3
878003dc:	68fb      	ldr	r3, [r7, #12]
878003de:	601a      	str	r2, [r3, #0]
878003e0:	3714      	adds	r7, #20
878003e2:	46bd      	mov	sp, r7
878003e4:	f85d 7b04 	ldr.w	r7, [sp], #4
878003e8:	4770      	bx	lr
878003ea:	bf00      	nop

878003ec <gpio_pinread>:
878003ec:	b480      	push	{r7}
878003ee:	b083      	sub	sp, #12
878003f0:	af00      	add	r7, sp, #0
878003f2:	6078      	str	r0, [r7, #4]
878003f4:	6039      	str	r1, [r7, #0]
878003f6:	687b      	ldr	r3, [r7, #4]
878003f8:	681a      	ldr	r2, [r3, #0]
878003fa:	683b      	ldr	r3, [r7, #0]
878003fc:	fa22 f303 	lsr.w	r3, r2, r3
87800400:	f003 0301 	and.w	r3, r3, #1
87800404:	4618      	mov	r0, r3
87800406:	370c      	adds	r7, #12
87800408:	46bd      	mov	sp, r7
8780040a:	f85d 7b04 	ldr.w	r7, [sp], #4
8780040e:	4770      	bx	lr

87800410 <gpio_ableInterrupt>:
87800410:	b480      	push	{r7}
87800412:	b083      	sub	sp, #12
87800414:	af00      	add	r7, sp, #0
87800416:	6078      	str	r0, [r7, #4]
87800418:	6039      	str	r1, [r7, #0]
8780041a:	687b      	ldr	r3, [r7, #4]
8780041c:	695b      	ldr	r3, [r3, #20]
8780041e:	2101      	movs	r1, #1
87800420:	683a      	ldr	r2, [r7, #0]
87800422:	fa01 f202 	lsl.w	r2, r1, r2
87800426:	431a      	orrs	r2, r3
87800428:	687b      	ldr	r3, [r7, #4]
8780042a:	615a      	str	r2, [r3, #20]
8780042c:	370c      	adds	r7, #12
8780042e:	46bd      	mov	sp, r7
87800430:	f85d 7b04 	ldr.w	r7, [sp], #4
87800434:	4770      	bx	lr
87800436:	bf00      	nop

87800438 <gpio_disableInterrupt>:
87800438:	b480      	push	{r7}
8780043a:	b083      	sub	sp, #12
8780043c:	af00      	add	r7, sp, #0
8780043e:	6078      	str	r0, [r7, #4]
87800440:	6039      	str	r1, [r7, #0]
87800442:	687b      	ldr	r3, [r7, #4]
87800444:	695b      	ldr	r3, [r3, #20]
87800446:	2101      	movs	r1, #1
87800448:	683a      	ldr	r2, [r7, #0]
8780044a:	fa01 f202 	lsl.w	r2, r1, r2
8780044e:	43d2      	mvns	r2, r2
87800450:	401a      	ands	r2, r3
87800452:	687b      	ldr	r3, [r7, #4]
87800454:	615a      	str	r2, [r3, #20]
87800456:	370c      	adds	r7, #12
87800458:	46bd      	mov	sp, r7
8780045a:	f85d 7b04 	ldr.w	r7, [sp], #4
8780045e:	4770      	bx	lr

87800460 <gpio_clearintflags>:
87800460:	b480      	push	{r7}
87800462:	b083      	sub	sp, #12
87800464:	af00      	add	r7, sp, #0
87800466:	6078      	str	r0, [r7, #4]
87800468:	6039      	str	r1, [r7, #0]
8780046a:	687b      	ldr	r3, [r7, #4]
8780046c:	699b      	ldr	r3, [r3, #24]
8780046e:	2101      	movs	r1, #1
87800470:	683a      	ldr	r2, [r7, #0]
87800472:	fa01 f202 	lsl.w	r2, r1, r2
87800476:	431a      	orrs	r2, r3
87800478:	687b      	ldr	r3, [r7, #4]
8780047a:	619a      	str	r2, [r3, #24]
8780047c:	370c      	adds	r7, #12
8780047e:	46bd      	mov	sp, r7
87800480:	f85d 7b04 	ldr.w	r7, [sp], #4
87800484:	4770      	bx	lr
87800486:	bf00      	nop

87800488 <gpio_interruptinit>:
87800488:	b480      	push	{r7}
8780048a:	b087      	sub	sp, #28
8780048c:	af00      	add	r7, sp, #0
8780048e:	60f8      	str	r0, [r7, #12]
87800490:	60b9      	str	r1, [r7, #8]
87800492:	607a      	str	r2, [r7, #4]
87800494:	68bb      	ldr	r3, [r7, #8]
87800496:	613b      	str	r3, [r7, #16]
87800498:	68fb      	ldr	r3, [r7, #12]
8780049a:	69da      	ldr	r2, [r3, #28]
8780049c:	2101      	movs	r1, #1
8780049e:	68bb      	ldr	r3, [r7, #8]
878004a0:	fa01 f303 	lsl.w	r3, r1, r3
878004a4:	43db      	mvns	r3, r3
878004a6:	401a      	ands	r2, r3
878004a8:	68fb      	ldr	r3, [r7, #12]
878004aa:	61da      	str	r2, [r3, #28]
878004ac:	68bb      	ldr	r3, [r7, #8]
878004ae:	2b0f      	cmp	r3, #15
878004b0:	dc03      	bgt.n	878004ba <gpio_interruptinit+0x32>
878004b2:	68fb      	ldr	r3, [r7, #12]
878004b4:	330c      	adds	r3, #12
878004b6:	617b      	str	r3, [r7, #20]
878004b8:	e005      	b.n	878004c6 <gpio_interruptinit+0x3e>
878004ba:	68fb      	ldr	r3, [r7, #12]
878004bc:	3310      	adds	r3, #16
878004be:	617b      	str	r3, [r7, #20]
878004c0:	693b      	ldr	r3, [r7, #16]
878004c2:	3b10      	subs	r3, #16
878004c4:	613b      	str	r3, [r7, #16]
878004c6:	687b      	ldr	r3, [r7, #4]
878004c8:	3b01      	subs	r3, #1
878004ca:	2b04      	cmp	r3, #4
878004cc:	d864      	bhi.n	87800598 <gpio_interruptinit+0x110>
878004ce:	a201      	add	r2, pc, #4	; (adr r2, 878004d4 <gpio_interruptinit+0x4c>)
878004d0:	f852 f023 	ldr.w	pc, [r2, r3, lsl #2]
878004d4:	878004e9 	strhi	r0, [r0, r9, ror #9]
878004d8:	87800501 	strhi	r0, [r0, r1, lsl #10]
878004dc:	8780052d 	strhi	r0, [r0, sp, lsr #10]
878004e0:	87800559 			; <UNDEFINED> instruction: 0x87800559
878004e4:	87800585 	strhi	r0, [r0, r5, lsl #11]
878004e8:	697b      	ldr	r3, [r7, #20]
878004ea:	681b      	ldr	r3, [r3, #0]
878004ec:	693a      	ldr	r2, [r7, #16]
878004ee:	0052      	lsls	r2, r2, #1
878004f0:	4611      	mov	r1, r2
878004f2:	2203      	movs	r2, #3
878004f4:	408a      	lsls	r2, r1
878004f6:	43d2      	mvns	r2, r2
878004f8:	401a      	ands	r2, r3
878004fa:	697b      	ldr	r3, [r7, #20]
878004fc:	601a      	str	r2, [r3, #0]
878004fe:	e04c      	b.n	8780059a <gpio_interruptinit+0x112>
87800500:	697b      	ldr	r3, [r7, #20]
87800502:	681b      	ldr	r3, [r3, #0]
87800504:	693a      	ldr	r2, [r7, #16]
87800506:	0052      	lsls	r2, r2, #1
87800508:	4611      	mov	r1, r2
8780050a:	2203      	movs	r2, #3
8780050c:	408a      	lsls	r2, r1
8780050e:	43d2      	mvns	r2, r2
87800510:	401a      	ands	r2, r3
87800512:	697b      	ldr	r3, [r7, #20]
87800514:	601a      	str	r2, [r3, #0]
87800516:	697b      	ldr	r3, [r7, #20]
87800518:	681b      	ldr	r3, [r3, #0]
8780051a:	693a      	ldr	r2, [r7, #16]
8780051c:	0052      	lsls	r2, r2, #1
8780051e:	4611      	mov	r1, r2
87800520:	2201      	movs	r2, #1
87800522:	408a      	lsls	r2, r1
87800524:	431a      	orrs	r2, r3
87800526:	697b      	ldr	r3, [r7, #20]
87800528:	601a      	str	r2, [r3, #0]
8780052a:	e036      	b.n	8780059a <gpio_interruptinit+0x112>
8780052c:	697b      	ldr	r3, [r7, #20]
8780052e:	681b      	ldr	r3, [r3, #0]
87800530:	693a      	ldr	r2, [r7, #16]
87800532:	0052      	lsls	r2, r2, #1
87800534:	4611      	mov	r1, r2
87800536:	2203      	movs	r2, #3
87800538:	408a      	lsls	r2, r1
8780053a:	43d2      	mvns	r2, r2
8780053c:	401a      	ands	r2, r3
8780053e:	697b      	ldr	r3, [r7, #20]
87800540:	601a      	str	r2, [r3, #0]
87800542:	697b      	ldr	r3, [r7, #20]
87800544:	681b      	ldr	r3, [r3, #0]
87800546:	693a      	ldr	r2, [r7, #16]
87800548:	0052      	lsls	r2, r2, #1
8780054a:	4611      	mov	r1, r2
8780054c:	2202      	movs	r2, #2
8780054e:	408a      	lsls	r2, r1
87800550:	431a      	orrs	r2, r3
87800552:	697b      	ldr	r3, [r7, #20]
87800554:	601a      	str	r2, [r3, #0]
87800556:	e020      	b.n	8780059a <gpio_interruptinit+0x112>
87800558:	697b      	ldr	r3, [r7, #20]
8780055a:	681b      	ldr	r3, [r3, #0]
8780055c:	693a      	ldr	r2, [r7, #16]
8780055e:	0052      	lsls	r2, r2, #1
87800560:	4611      	mov	r1, r2
87800562:	2203      	movs	r2, #3
87800564:	408a      	lsls	r2, r1
87800566:	43d2      	mvns	r2, r2
87800568:	401a      	ands	r2, r3
8780056a:	697b      	ldr	r3, [r7, #20]
8780056c:	601a      	str	r2, [r3, #0]
8780056e:	697b      	ldr	r3, [r7, #20]
87800570:	681b      	ldr	r3, [r3, #0]
87800572:	693a      	ldr	r2, [r7, #16]
87800574:	0052      	lsls	r2, r2, #1
87800576:	4611      	mov	r1, r2
87800578:	2203      	movs	r2, #3
8780057a:	408a      	lsls	r2, r1
8780057c:	431a      	orrs	r2, r3
8780057e:	697b      	ldr	r3, [r7, #20]
87800580:	601a      	str	r2, [r3, #0]
87800582:	e00a      	b.n	8780059a <gpio_interruptinit+0x112>
87800584:	68fb      	ldr	r3, [r7, #12]
87800586:	69db      	ldr	r3, [r3, #28]
87800588:	2101      	movs	r1, #1
8780058a:	68ba      	ldr	r2, [r7, #8]
8780058c:	fa01 f202 	lsl.w	r2, r1, r2
87800590:	431a      	orrs	r2, r3
87800592:	68fb      	ldr	r3, [r7, #12]
87800594:	61da      	str	r2, [r3, #28]
87800596:	e000      	b.n	8780059a <gpio_interruptinit+0x112>
87800598:	bf00      	nop
8780059a:	371c      	adds	r7, #28
8780059c:	46bd      	mov	sp, r7
8780059e:	f85d 7b04 	ldr.w	r7, [sp], #4
878005a2:	4770      	bx	lr

878005a4 <clk_enable>:
878005a4:	b480      	push	{r7}
878005a6:	af00      	add	r7, sp, #0
878005a8:	f44f 4380 	mov.w	r3, #16384	; 0x4000
878005ac:	f2c0 230c 	movt	r3, #524	; 0x20c
878005b0:	f04f 32ff 	mov.w	r2, #4294967295	; 0xffffffff
878005b4:	669a      	str	r2, [r3, #104]	; 0x68
878005b6:	f44f 4380 	mov.w	r3, #16384	; 0x4000
878005ba:	f2c0 230c 	movt	r3, #524	; 0x20c
878005be:	f04f 32ff 	mov.w	r2, #4294967295	; 0xffffffff
878005c2:	66da      	str	r2, [r3, #108]	; 0x6c
878005c4:	f44f 4380 	mov.w	r3, #16384	; 0x4000
878005c8:	f2c0 230c 	movt	r3, #524	; 0x20c
878005cc:	f04f 32ff 	mov.w	r2, #4294967295	; 0xffffffff
878005d0:	671a      	str	r2, [r3, #112]	; 0x70
878005d2:	f44f 4380 	mov.w	r3, #16384	; 0x4000
878005d6:	f2c0 230c 	movt	r3, #524	; 0x20c
878005da:	f04f 32ff 	mov.w	r2, #4294967295	; 0xffffffff
878005de:	675a      	str	r2, [r3, #116]	; 0x74
878005e0:	f44f 4380 	mov.w	r3, #16384	; 0x4000
878005e4:	f2c0 230c 	movt	r3, #524	; 0x20c
878005e8:	f04f 32ff 	mov.w	r2, #4294967295	; 0xffffffff
878005ec:	679a      	str	r2, [r3, #120]	; 0x78
878005ee:	f44f 4380 	mov.w	r3, #16384	; 0x4000
878005f2:	f2c0 230c 	movt	r3, #524	; 0x20c
878005f6:	f04f 32ff 	mov.w	r2, #4294967295	; 0xffffffff
878005fa:	67da      	str	r2, [r3, #124]	; 0x7c
878005fc:	f44f 4380 	mov.w	r3, #16384	; 0x4000
87800600:	f2c0 230c 	movt	r3, #524	; 0x20c
87800604:	f04f 32ff 	mov.w	r2, #4294967295	; 0xffffffff
87800608:	f8c3 2080 	str.w	r2, [r3, #128]	; 0x80
8780060c:	46bd      	mov	sp, r7
8780060e:	f85d 7b04 	ldr.w	r7, [sp], #4
87800612:	4770      	bx	lr

87800614 <Imx6u_clkinit>:
87800614:	b580      	push	{r7, lr}
87800616:	af00      	add	r7, sp, #0
87800618:	f44f 4380 	mov.w	r3, #16384	; 0x4000
8780061c:	f2c0 230c 	movt	r3, #524	; 0x20c
87800620:	68db      	ldr	r3, [r3, #12]
87800622:	089b      	lsrs	r3, r3, #2
87800624:	f003 0301 	and.w	r3, r3, #1
87800628:	2b00      	cmp	r3, #0
8780062a:	d117      	bne.n	8780065c <Imx6u_clkinit+0x48>
8780062c:	f44f 4380 	mov.w	r3, #16384	; 0x4000
87800630:	f2c0 230c 	movt	r3, #524	; 0x20c
87800634:	f44f 4280 	mov.w	r2, #16384	; 0x4000
87800638:	f2c0 220c 	movt	r2, #524	; 0x20c
8780063c:	68d2      	ldr	r2, [r2, #12]
8780063e:	f422 7280 	bic.w	r2, r2, #256	; 0x100
87800642:	60da      	str	r2, [r3, #12]
87800644:	f44f 4380 	mov.w	r3, #16384	; 0x4000
87800648:	f2c0 230c 	movt	r3, #524	; 0x20c
8780064c:	f44f 4280 	mov.w	r2, #16384	; 0x4000
87800650:	f2c0 220c 	movt	r2, #524	; 0x20c
87800654:	68d2      	ldr	r2, [r2, #12]
87800656:	f042 0204 	orr.w	r2, r2, #4
8780065a:	60da      	str	r2, [r3, #12]
8780065c:	f44f 4300 	mov.w	r3, #32768	; 0x8000
87800660:	f2c0 230c 	movt	r3, #524	; 0x20c
87800664:	f242 023a 	movw	r2, #8250	; 0x203a
87800668:	601a      	str	r2, [r3, #0]
8780066a:	f44f 4380 	mov.w	r3, #16384	; 0x4000
8780066e:	f2c0 230c 	movt	r3, #524	; 0x20c
87800672:	2200      	movs	r2, #0
87800674:	611a      	str	r2, [r3, #16]
87800676:	f44f 4380 	mov.w	r3, #16384	; 0x4000
8780067a:	f2c0 230c 	movt	r3, #524	; 0x20c
8780067e:	f44f 4280 	mov.w	r2, #16384	; 0x4000
87800682:	f2c0 220c 	movt	r2, #524	; 0x20c
87800686:	68d2      	ldr	r2, [r2, #12]
87800688:	f022 0204 	bic.w	r2, r2, #4
8780068c:	60da      	str	r2, [r3, #12]
8780068e:	f000 f809 	bl	878006a4 <Set_pll2_pfd>
87800692:	f000 f833 	bl	878006fc <Set_pll3_pfd>
87800696:	f000 f85d 	bl	87800754 <AHB_CLK_ROOT_Init>
8780069a:	f000 f88f 	bl	878007bc <IPG_CLK_ROOT_Init>
8780069e:	f000 f8ab 	bl	878007f8 <PERCLK_CLK_ROOT_Init>
878006a2:	bd80      	pop	{r7, pc}

878006a4 <Set_pll2_pfd>:
878006a4:	b480      	push	{r7}
878006a6:	b083      	sub	sp, #12
878006a8:	af00      	add	r7, sp, #0
878006aa:	2300      	movs	r3, #0
878006ac:	607b      	str	r3, [r7, #4]
878006ae:	f44f 4300 	mov.w	r3, #32768	; 0x8000
878006b2:	f2c0 230c 	movt	r3, #524	; 0x20c
878006b6:	f8d3 3100 	ldr.w	r3, [r3, #256]	; 0x100
878006ba:	607b      	str	r3, [r7, #4]
878006bc:	687b      	ldr	r3, [r7, #4]
878006be:	f003 33c0 	and.w	r3, r3, #3233857728	; 0xc0c0c0c0
878006c2:	607b      	str	r3, [r7, #4]
878006c4:	687b      	ldr	r3, [r7, #4]
878006c6:	f043 5300 	orr.w	r3, r3, #536870912	; 0x20000000
878006ca:	607b      	str	r3, [r7, #4]
878006cc:	687b      	ldr	r3, [r7, #4]
878006ce:	f443 13c0 	orr.w	r3, r3, #1572864	; 0x180000
878006d2:	607b      	str	r3, [r7, #4]
878006d4:	687b      	ldr	r3, [r7, #4]
878006d6:	f443 5380 	orr.w	r3, r3, #4096	; 0x1000
878006da:	607b      	str	r3, [r7, #4]
878006dc:	687b      	ldr	r3, [r7, #4]
878006de:	f043 031b 	orr.w	r3, r3, #27
878006e2:	607b      	str	r3, [r7, #4]
878006e4:	f44f 4300 	mov.w	r3, #32768	; 0x8000
878006e8:	f2c0 230c 	movt	r3, #524	; 0x20c
878006ec:	687a      	ldr	r2, [r7, #4]
878006ee:	f8c3 2100 	str.w	r2, [r3, #256]	; 0x100
878006f2:	370c      	adds	r7, #12
878006f4:	46bd      	mov	sp, r7
878006f6:	f85d 7b04 	ldr.w	r7, [sp], #4
878006fa:	4770      	bx	lr

878006fc <Set_pll3_pfd>:
878006fc:	b480      	push	{r7}
878006fe:	b083      	sub	sp, #12
87800700:	af00      	add	r7, sp, #0
87800702:	2300      	movs	r3, #0
87800704:	607b      	str	r3, [r7, #4]
87800706:	f44f 4300 	mov.w	r3, #32768	; 0x8000
8780070a:	f2c0 230c 	movt	r3, #524	; 0x20c
8780070e:	f8d3 30f0 	ldr.w	r3, [r3, #240]	; 0xf0
87800712:	607b      	str	r3, [r7, #4]
87800714:	687b      	ldr	r3, [r7, #4]
87800716:	f003 33c0 	and.w	r3, r3, #3233857728	; 0xc0c0c0c0
8780071a:	607b      	str	r3, [r7, #4]
8780071c:	687b      	ldr	r3, [r7, #4]
8780071e:	f043 5398 	orr.w	r3, r3, #318767104	; 0x13000000
87800722:	607b      	str	r3, [r7, #4]
87800724:	687b      	ldr	r3, [r7, #4]
87800726:	f443 1388 	orr.w	r3, r3, #1114112	; 0x110000
8780072a:	607b      	str	r3, [r7, #4]
8780072c:	687b      	ldr	r3, [r7, #4]
8780072e:	f443 5380 	orr.w	r3, r3, #4096	; 0x1000
87800732:	607b      	str	r3, [r7, #4]
87800734:	687b      	ldr	r3, [r7, #4]
87800736:	f043 030c 	orr.w	r3, r3, #12
8780073a:	607b      	str	r3, [r7, #4]
8780073c:	f44f 4300 	mov.w	r3, #32768	; 0x8000
87800740:	f2c0 230c 	movt	r3, #524	; 0x20c
87800744:	687a      	ldr	r2, [r7, #4]
87800746:	f8c3 20f0 	str.w	r2, [r3, #240]	; 0xf0
8780074a:	370c      	adds	r7, #12
8780074c:	46bd      	mov	sp, r7
8780074e:	f85d 7b04 	ldr.w	r7, [sp], #4
87800752:	4770      	bx	lr

87800754 <AHB_CLK_ROOT_Init>:
87800754:	b480      	push	{r7}
87800756:	af00      	add	r7, sp, #0
87800758:	f44f 4380 	mov.w	r3, #16384	; 0x4000
8780075c:	f2c0 230c 	movt	r3, #524	; 0x20c
87800760:	f44f 4280 	mov.w	r2, #16384	; 0x4000
87800764:	f2c0 220c 	movt	r2, #524	; 0x20c
87800768:	6992      	ldr	r2, [r2, #24]
8780076a:	f422 2240 	bic.w	r2, r2, #786432	; 0xc0000
8780076e:	619a      	str	r2, [r3, #24]
87800770:	f44f 4380 	mov.w	r3, #16384	; 0x4000
87800774:	f2c0 230c 	movt	r3, #524	; 0x20c
87800778:	f44f 4280 	mov.w	r2, #16384	; 0x4000
8780077c:	f2c0 220c 	movt	r2, #524	; 0x20c
87800780:	6992      	ldr	r2, [r2, #24]
87800782:	f442 2280 	orr.w	r2, r2, #262144	; 0x40000
87800786:	619a      	str	r2, [r3, #24]
87800788:	f44f 4380 	mov.w	r3, #16384	; 0x4000
8780078c:	f2c0 230c 	movt	r3, #524	; 0x20c
87800790:	f44f 4280 	mov.w	r2, #16384	; 0x4000
87800794:	f2c0 220c 	movt	r2, #524	; 0x20c
87800798:	6952      	ldr	r2, [r2, #20]
8780079a:	f022 7200 	bic.w	r2, r2, #33554432	; 0x2000000
8780079e:	615a      	str	r2, [r3, #20]
878007a0:	bf00      	nop
878007a2:	f44f 4380 	mov.w	r3, #16384	; 0x4000
878007a6:	f2c0 230c 	movt	r3, #524	; 0x20c
878007aa:	6c9b      	ldr	r3, [r3, #72]	; 0x48
878007ac:	f003 0320 	and.w	r3, r3, #32
878007b0:	2b00      	cmp	r3, #0
878007b2:	d1f6      	bne.n	878007a2 <AHB_CLK_ROOT_Init+0x4e>
878007b4:	46bd      	mov	sp, r7
878007b6:	f85d 7b04 	ldr.w	r7, [sp], #4
878007ba:	4770      	bx	lr

878007bc <IPG_CLK_ROOT_Init>:
878007bc:	b480      	push	{r7}
878007be:	af00      	add	r7, sp, #0
878007c0:	f44f 4380 	mov.w	r3, #16384	; 0x4000
878007c4:	f2c0 230c 	movt	r3, #524	; 0x20c
878007c8:	f44f 4280 	mov.w	r2, #16384	; 0x4000
878007cc:	f2c0 220c 	movt	r2, #524	; 0x20c
878007d0:	6952      	ldr	r2, [r2, #20]
878007d2:	f422 7240 	bic.w	r2, r2, #768	; 0x300
878007d6:	615a      	str	r2, [r3, #20]
878007d8:	f44f 4380 	mov.w	r3, #16384	; 0x4000
878007dc:	f2c0 230c 	movt	r3, #524	; 0x20c
878007e0:	f44f 4280 	mov.w	r2, #16384	; 0x4000
878007e4:	f2c0 220c 	movt	r2, #524	; 0x20c
878007e8:	6952      	ldr	r2, [r2, #20]
878007ea:	f442 7280 	orr.w	r2, r2, #256	; 0x100
878007ee:	615a      	str	r2, [r3, #20]
878007f0:	46bd      	mov	sp, r7
878007f2:	f85d 7b04 	ldr.w	r7, [sp], #4
878007f6:	4770      	bx	lr

878007f8 <PERCLK_CLK_ROOT_Init>:
878007f8:	b480      	push	{r7}
878007fa:	af00      	add	r7, sp, #0
878007fc:	f44f 4380 	mov.w	r3, #16384	; 0x4000
87800800:	f2c0 230c 	movt	r3, #524	; 0x20c
87800804:	f44f 4280 	mov.w	r2, #16384	; 0x4000
87800808:	f2c0 220c 	movt	r2, #524	; 0x20c
8780080c:	69d2      	ldr	r2, [r2, #28]
8780080e:	f022 0240 	bic.w	r2, r2, #64	; 0x40
87800812:	61da      	str	r2, [r3, #28]
87800814:	f44f 4380 	mov.w	r3, #16384	; 0x4000
87800818:	f2c0 230c 	movt	r3, #524	; 0x20c
8780081c:	f44f 4280 	mov.w	r2, #16384	; 0x4000
87800820:	f2c0 220c 	movt	r2, #524	; 0x20c
87800824:	69d2      	ldr	r2, [r2, #28]
87800826:	f022 023f 	bic.w	r2, r2, #63	; 0x3f
8780082a:	61da      	str	r2, [r3, #28]
8780082c:	46bd      	mov	sp, r7
8780082e:	f85d 7b04 	ldr.w	r7, [sp], #4
87800832:	4770      	bx	lr

87800834 <delay_short>:
87800834:	b480      	push	{r7}
87800836:	b083      	sub	sp, #12
87800838:	af00      	add	r7, sp, #0
8780083a:	6078      	str	r0, [r7, #4]
8780083c:	bf00      	nop
8780083e:	687b      	ldr	r3, [r7, #4]
87800840:	1e5a      	subs	r2, r3, #1
87800842:	607a      	str	r2, [r7, #4]
87800844:	2b00      	cmp	r3, #0
87800846:	d1fa      	bne.n	8780083e <delay_short+0xa>
87800848:	370c      	adds	r7, #12
8780084a:	46bd      	mov	sp, r7
8780084c:	f85d 7b04 	ldr.w	r7, [sp], #4
87800850:	4770      	bx	lr
87800852:	bf00      	nop

87800854 <delay>:
87800854:	b580      	push	{r7, lr}
87800856:	b082      	sub	sp, #8
87800858:	af00      	add	r7, sp, #0
8780085a:	6078      	str	r0, [r7, #4]
8780085c:	e003      	b.n	87800866 <delay+0x12>
8780085e:	f240 70ff 	movw	r0, #2047	; 0x7ff
87800862:	f7ff ffe7 	bl	87800834 <delay_short>
87800866:	687b      	ldr	r3, [r7, #4]
87800868:	1e5a      	subs	r2, r3, #1
8780086a:	607a      	str	r2, [r7, #4]
8780086c:	2b00      	cmp	r3, #0
8780086e:	d1f6      	bne.n	8780085e <delay+0xa>
87800870:	3708      	adds	r7, #8
87800872:	46bd      	mov	sp, r7
87800874:	bd80      	pop	{r7, pc}
87800876:	bf00      	nop

87800878 <delay_init>:
87800878:	b480      	push	{r7}
8780087a:	af00      	add	r7, sp, #0
8780087c:	f44f 4300 	mov.w	r3, #32768	; 0x8000
87800880:	f2c0 2309 	movt	r3, #521	; 0x209
87800884:	2200      	movs	r2, #0
87800886:	601a      	str	r2, [r3, #0]
87800888:	f44f 4300 	mov.w	r3, #32768	; 0x8000
8780088c:	f2c0 2309 	movt	r3, #521	; 0x209
87800890:	f44f 4200 	mov.w	r2, #32768	; 0x8000
87800894:	601a      	str	r2, [r3, #0]
87800896:	bf00      	nop
87800898:	f44f 4300 	mov.w	r3, #32768	; 0x8000
8780089c:	f2c0 2309 	movt	r3, #521	; 0x209
878008a0:	681b      	ldr	r3, [r3, #0]
878008a2:	0bdb      	lsrs	r3, r3, #15
878008a4:	f003 0301 	and.w	r3, r3, #1
878008a8:	2b00      	cmp	r3, #0
878008aa:	d1f5      	bne.n	87800898 <delay_init+0x20>
878008ac:	f44f 4300 	mov.w	r3, #32768	; 0x8000
878008b0:	f2c0 2309 	movt	r3, #521	; 0x209
878008b4:	f44f 4200 	mov.w	r2, #32768	; 0x8000
878008b8:	f2c0 2209 	movt	r2, #521	; 0x209
878008bc:	6812      	ldr	r2, [r2, #0]
878008be:	f042 0202 	orr.w	r2, r2, #2
878008c2:	601a      	str	r2, [r3, #0]
878008c4:	f44f 4300 	mov.w	r3, #32768	; 0x8000
878008c8:	f2c0 2309 	movt	r3, #521	; 0x209
878008cc:	f44f 4200 	mov.w	r2, #32768	; 0x8000
878008d0:	f2c0 2209 	movt	r2, #521	; 0x209
878008d4:	6812      	ldr	r2, [r2, #0]
878008d6:	f042 0240 	orr.w	r2, r2, #64	; 0x40
878008da:	601a      	str	r2, [r3, #0]
878008dc:	f44f 4300 	mov.w	r3, #32768	; 0x8000
878008e0:	f2c0 2309 	movt	r3, #521	; 0x209
878008e4:	f44f 4200 	mov.w	r2, #32768	; 0x8000
878008e8:	f2c0 2209 	movt	r2, #521	; 0x209
878008ec:	6812      	ldr	r2, [r2, #0]
878008ee:	601a      	str	r2, [r3, #0]
878008f0:	f44f 4300 	mov.w	r3, #32768	; 0x8000
878008f4:	f2c0 2309 	movt	r3, #521	; 0x209
878008f8:	2241      	movs	r2, #65	; 0x41
878008fa:	605a      	str	r2, [r3, #4]
878008fc:	f44f 4300 	mov.w	r3, #32768	; 0x8000
87800900:	f2c0 2309 	movt	r3, #521	; 0x209
87800904:	2200      	movs	r2, #0
87800906:	611a      	str	r2, [r3, #16]
87800908:	f44f 4300 	mov.w	r3, #32768	; 0x8000
8780090c:	f2c0 2309 	movt	r3, #521	; 0x209
87800910:	691b      	ldr	r3, [r3, #16]
87800912:	f44f 4300 	mov.w	r3, #32768	; 0x8000
87800916:	f2c0 2309 	movt	r3, #521	; 0x209
8780091a:	f04f 32ff 	mov.w	r2, #4294967295	; 0xffffffff
8780091e:	611a      	str	r2, [r3, #16]
87800920:	f44f 4300 	mov.w	r3, #32768	; 0x8000
87800924:	f2c0 2309 	movt	r3, #521	; 0x209
87800928:	f44f 4200 	mov.w	r2, #32768	; 0x8000
8780092c:	f2c0 2209 	movt	r2, #521	; 0x209
87800930:	6812      	ldr	r2, [r2, #0]
87800932:	f042 0201 	orr.w	r2, r2, #1
87800936:	601a      	str	r2, [r3, #0]
87800938:	46bd      	mov	sp, r7
8780093a:	f85d 7b04 	ldr.w	r7, [sp], #4
8780093e:	4770      	bx	lr

87800940 <delay_us>:
87800940:	b480      	push	{r7}
87800942:	b087      	sub	sp, #28
87800944:	af00      	add	r7, sp, #0
87800946:	6078      	str	r0, [r7, #4]
87800948:	2300      	movs	r3, #0
8780094a:	613b      	str	r3, [r7, #16]
8780094c:	f44f 4300 	mov.w	r3, #32768	; 0x8000
87800950:	f2c0 2309 	movt	r3, #521	; 0x209
87800954:	6a5b      	ldr	r3, [r3, #36]	; 0x24
87800956:	617b      	str	r3, [r7, #20]
87800958:	f44f 4300 	mov.w	r3, #32768	; 0x8000
8780095c:	f2c0 2309 	movt	r3, #521	; 0x209
87800960:	6a5b      	ldr	r3, [r3, #36]	; 0x24
87800962:	60fb      	str	r3, [r7, #12]
87800964:	68fa      	ldr	r2, [r7, #12]
87800966:	697b      	ldr	r3, [r7, #20]
87800968:	429a      	cmp	r2, r3
8780096a:	d018      	beq.n	8780099e <delay_us+0x5e>
8780096c:	68fa      	ldr	r2, [r7, #12]
8780096e:	697b      	ldr	r3, [r7, #20]
87800970:	429a      	cmp	r2, r3
87800972:	d906      	bls.n	87800982 <delay_us+0x42>
87800974:	68fa      	ldr	r2, [r7, #12]
87800976:	697b      	ldr	r3, [r7, #20]
87800978:	1ad3      	subs	r3, r2, r3
8780097a:	693a      	ldr	r2, [r7, #16]
8780097c:	4413      	add	r3, r2
8780097e:	613b      	str	r3, [r7, #16]
87800980:	e006      	b.n	87800990 <delay_us+0x50>
87800982:	68fa      	ldr	r2, [r7, #12]
87800984:	697b      	ldr	r3, [r7, #20]
87800986:	1ad2      	subs	r2, r2, r3
87800988:	693b      	ldr	r3, [r7, #16]
8780098a:	4413      	add	r3, r2
8780098c:	3b01      	subs	r3, #1
8780098e:	613b      	str	r3, [r7, #16]
87800990:	68fb      	ldr	r3, [r7, #12]
87800992:	617b      	str	r3, [r7, #20]
87800994:	693a      	ldr	r2, [r7, #16]
87800996:	687b      	ldr	r3, [r7, #4]
87800998:	429a      	cmp	r2, r3
8780099a:	d300      	bcc.n	8780099e <delay_us+0x5e>
8780099c:	e000      	b.n	878009a0 <delay_us+0x60>
8780099e:	e7db      	b.n	87800958 <delay_us+0x18>
878009a0:	371c      	adds	r7, #28
878009a2:	46bd      	mov	sp, r7
878009a4:	f85d 7b04 	ldr.w	r7, [sp], #4
878009a8:	4770      	bx	lr
878009aa:	bf00      	nop

878009ac <delay_ms>:
878009ac:	b580      	push	{r7, lr}
878009ae:	b084      	sub	sp, #16
878009b0:	af00      	add	r7, sp, #0
878009b2:	6078      	str	r0, [r7, #4]
878009b4:	2300      	movs	r3, #0
878009b6:	60fb      	str	r3, [r7, #12]
878009b8:	2300      	movs	r3, #0
878009ba:	60fb      	str	r3, [r7, #12]
878009bc:	e006      	b.n	878009cc <delay_ms+0x20>
878009be:	f44f 707a 	mov.w	r0, #1000	; 0x3e8
878009c2:	f7ff ffbd 	bl	87800940 <delay_us>
878009c6:	68fb      	ldr	r3, [r7, #12]
878009c8:	3301      	adds	r3, #1
878009ca:	60fb      	str	r3, [r7, #12]
878009cc:	68fa      	ldr	r2, [r7, #12]
878009ce:	687b      	ldr	r3, [r7, #4]
878009d0:	429a      	cmp	r2, r3
878009d2:	d3f4      	bcc.n	878009be <delay_ms+0x12>
878009d4:	3710      	adds	r7, #16
878009d6:	46bd      	mov	sp, r7
878009d8:	bd80      	pop	{r7, pc}
878009da:	bf00      	nop

878009dc <delay_s>:
878009dc:	b580      	push	{r7, lr}
878009de:	b084      	sub	sp, #16
878009e0:	af00      	add	r7, sp, #0
878009e2:	6078      	str	r0, [r7, #4]
878009e4:	2300      	movs	r3, #0
878009e6:	60fb      	str	r3, [r7, #12]
878009e8:	2300      	movs	r3, #0
878009ea:	60fb      	str	r3, [r7, #12]
878009ec:	e006      	b.n	878009fc <delay_s+0x20>
878009ee:	f44f 707a 	mov.w	r0, #1000	; 0x3e8
878009f2:	f7ff ffdb 	bl	878009ac <delay_ms>
878009f6:	68fb      	ldr	r3, [r7, #12]
878009f8:	3301      	adds	r3, #1
878009fa:	60fb      	str	r3, [r7, #12]
878009fc:	68fa      	ldr	r2, [r7, #12]
878009fe:	687b      	ldr	r3, [r7, #4]
87800a00:	429a      	cmp	r2, r3
87800a02:	d3f4      	bcc.n	878009ee <delay_s+0x12>
87800a04:	3710      	adds	r7, #16
87800a06:	46bd      	mov	sp, r7
87800a08:	bd80      	pop	{r7, pc}
87800a0a:	bf00      	nop

87800a0c <led_init>:
87800a0c:	b580      	push	{r7, lr}
87800a0e:	b084      	sub	sp, #16
87800a10:	af00      	add	r7, sp, #0
87800a12:	2344      	movs	r3, #68	; 0x44
87800a14:	f2c0 230e 	movt	r3, #526	; 0x20e
87800a18:	2205      	movs	r2, #5
87800a1a:	625a      	str	r2, [r3, #36]	; 0x24
87800a1c:	f44f 7301 	mov.w	r3, #516	; 0x204
87800a20:	f2c0 230e 	movt	r3, #526	; 0x20e
87800a24:	f241 02b0 	movw	r2, #4272	; 0x10b0
87800a28:	f8c3 20f0 	str.w	r2, [r3, #240]	; 0xf0
87800a2c:	2301      	movs	r3, #1
87800a2e:	60bb      	str	r3, [r7, #8]
87800a30:	2300      	movs	r3, #0
87800a32:	713b      	strb	r3, [r7, #4]
87800a34:	1d3b      	adds	r3, r7, #4
87800a36:	461a      	mov	r2, r3
87800a38:	2103      	movs	r1, #3
87800a3a:	f44f 4040 	mov.w	r0, #49152	; 0xc000
87800a3e:	f2c0 2009 	movt	r0, #521	; 0x209
87800a42:	f7ff fc5b 	bl	878002fc <gpio_init>
87800a46:	3710      	adds	r7, #16
87800a48:	46bd      	mov	sp, r7
87800a4a:	bd80      	pop	{r7, pc}

87800a4c <led_on>:
87800a4c:	b580      	push	{r7, lr}
87800a4e:	af00      	add	r7, sp, #0
87800a50:	2200      	movs	r2, #0
87800a52:	2103      	movs	r1, #3
87800a54:	f44f 4040 	mov.w	r0, #49152	; 0xc000
87800a58:	f2c0 2009 	movt	r0, #521	; 0x209
87800a5c:	f7ff fca0 	bl	878003a0 <gpio_pinwrite>
87800a60:	bd80      	pop	{r7, pc}
87800a62:	bf00      	nop

87800a64 <led_off>:
87800a64:	b580      	push	{r7, lr}
87800a66:	af00      	add	r7, sp, #0
87800a68:	2201      	movs	r2, #1
87800a6a:	2103      	movs	r1, #3
87800a6c:	f44f 4040 	mov.w	r0, #49152	; 0xc000
87800a70:	f2c0 2009 	movt	r0, #521	; 0x209
87800a74:	f7ff fc94 	bl	878003a0 <gpio_pinwrite>
87800a78:	bd80      	pop	{r7, pc}
87800a7a:	bf00      	nop

87800a7c <led_turn>:
87800a7c:	b580      	push	{r7, lr}
87800a7e:	b082      	sub	sp, #8
87800a80:	af00      	add	r7, sp, #0
87800a82:	2300      	movs	r3, #0
87800a84:	607b      	str	r3, [r7, #4]
87800a86:	f44f 4340 	mov.w	r3, #49152	; 0xc000
87800a8a:	f2c0 2309 	movt	r3, #521	; 0x209
87800a8e:	681b      	ldr	r3, [r3, #0]
87800a90:	08db      	lsrs	r3, r3, #3
87800a92:	f003 0301 	and.w	r3, r3, #1
87800a96:	607b      	str	r3, [r7, #4]
87800a98:	687b      	ldr	r3, [r7, #4]
87800a9a:	2b00      	cmp	r3, #0
87800a9c:	d102      	bne.n	87800aa4 <led_turn+0x28>
87800a9e:	f7ff ffe1 	bl	87800a64 <led_off>
87800aa2:	e004      	b.n	87800aae <led_turn+0x32>
87800aa4:	687b      	ldr	r3, [r7, #4]
87800aa6:	2b01      	cmp	r3, #1
87800aa8:	d101      	bne.n	87800aae <led_turn+0x32>
87800aaa:	f7ff ffcf 	bl	87800a4c <led_on>
87800aae:	3708      	adds	r7, #8
87800ab0:	46bd      	mov	sp, r7
87800ab2:	bd80      	pop	{r7, pc}

87800ab4 <led_Trun_status>:
87800ab4:	b580      	push	{r7, lr}
87800ab6:	b082      	sub	sp, #8
87800ab8:	af00      	add	r7, sp, #0
87800aba:	4603      	mov	r3, r0
87800abc:	71fb      	strb	r3, [r7, #7]
87800abe:	79fb      	ldrb	r3, [r7, #7]
87800ac0:	2b00      	cmp	r3, #0
87800ac2:	d002      	beq.n	87800aca <led_Trun_status+0x16>
87800ac4:	f7ff ffc2 	bl	87800a4c <led_on>
87800ac8:	e001      	b.n	87800ace <led_Trun_status+0x1a>
87800aca:	f7ff ffcb 	bl	87800a64 <led_off>
87800ace:	3708      	adds	r7, #8
87800ad0:	46bd      	mov	sp, r7
87800ad2:	bd80      	pop	{r7, pc}

87800ad4 <Key_Init>:
87800ad4:	b580      	push	{r7, lr}
87800ad6:	b084      	sub	sp, #16
87800ad8:	af00      	add	r7, sp, #0
87800ada:	f24e 0308 	movw	r3, #57352	; 0xe008
87800ade:	f2c0 0320 	movt	r3, #32
87800ae2:	2205      	movs	r2, #5
87800ae4:	601a      	str	r2, [r3, #0]
87800ae6:	f44f 7346 	mov.w	r3, #792	; 0x318
87800aea:	f2c0 230e 	movt	r3, #526	; 0x20e
87800aee:	f24f 0280 	movw	r2, #61568	; 0xf080
87800af2:	601a      	str	r2, [r3, #0]
87800af4:	2300      	movs	r3, #0
87800af6:	60bb      	str	r3, [r7, #8]
87800af8:	1d3b      	adds	r3, r7, #4
87800afa:	461a      	mov	r2, r3
87800afc:	2112      	movs	r1, #18
87800afe:	f44f 4040 	mov.w	r0, #49152	; 0xc000
87800b02:	f2c0 2009 	movt	r0, #521	; 0x209
87800b06:	f7ff fbf9 	bl	878002fc <gpio_init>
87800b0a:	3710      	adds	r7, #16
87800b0c:	46bd      	mov	sp, r7
87800b0e:	bd80      	pop	{r7, pc}

87800b10 <read_key>:
87800b10:	b580      	push	{r7, lr}
87800b12:	b082      	sub	sp, #8
87800b14:	af00      	add	r7, sp, #0
87800b16:	2300      	movs	r3, #0
87800b18:	607b      	str	r3, [r7, #4]
87800b1a:	2112      	movs	r1, #18
87800b1c:	f44f 4040 	mov.w	r0, #49152	; 0xc000
87800b20:	f2c0 2009 	movt	r0, #521	; 0x209
87800b24:	f7ff fc62 	bl	878003ec <gpio_pinread>
87800b28:	6078      	str	r0, [r7, #4]
87800b2a:	687b      	ldr	r3, [r7, #4]
87800b2c:	4618      	mov	r0, r3
87800b2e:	3708      	adds	r7, #8
87800b30:	46bd      	mov	sp, r7
87800b32:	bd80      	pop	{r7, pc}

87800b34 <key_getvalue>:
87800b34:	b580      	push	{r7, lr}
87800b36:	b082      	sub	sp, #8
87800b38:	af00      	add	r7, sp, #0
87800b3a:	2300      	movs	r3, #0
87800b3c:	607b      	str	r3, [r7, #4]
87800b3e:	f241 0380 	movw	r3, #4224	; 0x1080
87800b42:	f2c8 7380 	movt	r3, #34688	; 0x8780
87800b46:	781b      	ldrb	r3, [r3, #0]
87800b48:	2b01      	cmp	r3, #1
87800b4a:	d116      	bne.n	87800b7a <key_getvalue+0x46>
87800b4c:	f7ff ffe0 	bl	87800b10 <read_key>
87800b50:	4603      	mov	r3, r0
87800b52:	2b00      	cmp	r3, #0
87800b54:	d111      	bne.n	87800b7a <key_getvalue+0x46>
87800b56:	f241 0380 	movw	r3, #4224	; 0x1080
87800b5a:	f2c8 7380 	movt	r3, #34688	; 0x8780
87800b5e:	2200      	movs	r2, #0
87800b60:	701a      	strb	r2, [r3, #0]
87800b62:	200a      	movs	r0, #10
87800b64:	f7ff fe76 	bl	87800854 <delay>
87800b68:	f7ff ffd2 	bl	87800b10 <read_key>
87800b6c:	4603      	mov	r3, r0
87800b6e:	2b00      	cmp	r3, #0
87800b70:	d102      	bne.n	87800b78 <key_getvalue+0x44>
87800b72:	2301      	movs	r3, #1
87800b74:	607b      	str	r3, [r7, #4]
87800b76:	e00d      	b.n	87800b94 <key_getvalue+0x60>
87800b78:	e00c      	b.n	87800b94 <key_getvalue+0x60>
87800b7a:	f7ff ffc9 	bl	87800b10 <read_key>
87800b7e:	4603      	mov	r3, r0
87800b80:	2b01      	cmp	r3, #1
87800b82:	d107      	bne.n	87800b94 <key_getvalue+0x60>
87800b84:	f241 0380 	movw	r3, #4224	; 0x1080
87800b88:	f2c8 7380 	movt	r3, #34688	; 0x8780
87800b8c:	2201      	movs	r2, #1
87800b8e:	701a      	strb	r2, [r3, #0]
87800b90:	2300      	movs	r3, #0
87800b92:	607b      	str	r3, [r7, #4]
87800b94:	687b      	ldr	r3, [r7, #4]
87800b96:	4618      	mov	r0, r3
87800b98:	3708      	adds	r7, #8
87800b9a:	46bd      	mov	sp, r7
87800b9c:	bd80      	pop	{r7, pc}
87800b9e:	bf00      	nop

87800ba0 <Beep_Init>:
87800ba0:	b480      	push	{r7}
87800ba2:	af00      	add	r7, sp, #0
87800ba4:	230c      	movs	r3, #12
87800ba6:	f2c0 2329 	movt	r3, #553	; 0x229
87800baa:	2205      	movs	r2, #5
87800bac:	601a      	str	r2, [r3, #0]
87800bae:	2350      	movs	r3, #80	; 0x50
87800bb0:	f2c0 2329 	movt	r3, #553	; 0x229
87800bb4:	f241 02b0 	movw	r2, #4272	; 0x10b0
87800bb8:	601a      	str	r2, [r3, #0]
87800bba:	f44f 4340 	mov.w	r3, #49152	; 0xc000
87800bbe:	f2c0 230a 	movt	r3, #522	; 0x20a
87800bc2:	f44f 4240 	mov.w	r2, #49152	; 0xc000
87800bc6:	f2c0 220a 	movt	r2, #522	; 0x20a
87800bca:	6852      	ldr	r2, [r2, #4]
87800bcc:	f042 0202 	orr.w	r2, r2, #2
87800bd0:	605a      	str	r2, [r3, #4]
87800bd2:	f44f 4340 	mov.w	r3, #49152	; 0xc000
87800bd6:	f2c0 230a 	movt	r3, #522	; 0x20a
87800bda:	f44f 4240 	mov.w	r2, #49152	; 0xc000
87800bde:	f2c0 220a 	movt	r2, #522	; 0x20a
87800be2:	6812      	ldr	r2, [r2, #0]
87800be4:	f042 0202 	orr.w	r2, r2, #2
87800be8:	601a      	str	r2, [r3, #0]
87800bea:	46bd      	mov	sp, r7
87800bec:	f85d 7b04 	ldr.w	r7, [sp], #4
87800bf0:	4770      	bx	lr
87800bf2:	bf00      	nop

87800bf4 <Beep_On>:
87800bf4:	b480      	push	{r7}
87800bf6:	af00      	add	r7, sp, #0
87800bf8:	f44f 4340 	mov.w	r3, #49152	; 0xc000
87800bfc:	f2c0 230a 	movt	r3, #522	; 0x20a
87800c00:	f44f 4240 	mov.w	r2, #49152	; 0xc000
87800c04:	f2c0 220a 	movt	r2, #522	; 0x20a
87800c08:	6812      	ldr	r2, [r2, #0]
87800c0a:	f022 0202 	bic.w	r2, r2, #2
87800c0e:	601a      	str	r2, [r3, #0]
87800c10:	46bd      	mov	sp, r7
87800c12:	f85d 7b04 	ldr.w	r7, [sp], #4
87800c16:	4770      	bx	lr

87800c18 <Beep_Off>:
87800c18:	b480      	push	{r7}
87800c1a:	af00      	add	r7, sp, #0
87800c1c:	f44f 4340 	mov.w	r3, #49152	; 0xc000
87800c20:	f2c0 230a 	movt	r3, #522	; 0x20a
87800c24:	f44f 4240 	mov.w	r2, #49152	; 0xc000
87800c28:	f2c0 220a 	movt	r2, #522	; 0x20a
87800c2c:	6812      	ldr	r2, [r2, #0]
87800c2e:	f042 0202 	orr.w	r2, r2, #2
87800c32:	601a      	str	r2, [r3, #0]
87800c34:	46bd      	mov	sp, r7
87800c36:	f85d 7b04 	ldr.w	r7, [sp], #4
87800c3a:	4770      	bx	lr

87800c3c <Beep_Trun>:
87800c3c:	b580      	push	{r7, lr}
87800c3e:	b082      	sub	sp, #8
87800c40:	af00      	add	r7, sp, #0
87800c42:	6078      	str	r0, [r7, #4]
87800c44:	687b      	ldr	r3, [r7, #4]
87800c46:	2b00      	cmp	r3, #0
87800c48:	d002      	beq.n	87800c50 <Beep_Trun+0x14>
87800c4a:	f7ff ffd3 	bl	87800bf4 <Beep_On>
87800c4e:	e001      	b.n	87800c54 <Beep_Trun+0x18>
87800c50:	f7ff ffe2 	bl	87800c18 <Beep_Off>
87800c54:	3708      	adds	r7, #8
87800c56:	46bd      	mov	sp, r7
87800c58:	bd80      	pop	{r7, pc}
87800c5a:	bf00      	nop

87800c5c <exti_init>:
87800c5c:	b580      	push	{r7, lr}
87800c5e:	b086      	sub	sp, #24
87800c60:	af00      	add	r7, sp, #0
87800c62:	f24e 0308 	movw	r3, #57352	; 0xe008
87800c66:	f2c0 0320 	movt	r3, #32
87800c6a:	2205      	movs	r2, #5
87800c6c:	601a      	str	r2, [r3, #0]
87800c6e:	f44f 7346 	mov.w	r3, #792	; 0x318
87800c72:	f2c0 230e 	movt	r3, #526	; 0x20e
87800c76:	f24f 0280 	movw	r2, #61568	; 0xf080
87800c7a:	601a      	str	r2, [r3, #0]
87800c7c:	2300      	movs	r3, #0
87800c7e:	607b      	str	r3, [r7, #4]
87800c80:	2304      	movs	r3, #4
87800c82:	60bb      	str	r3, [r7, #8]
87800c84:	2301      	movs	r3, #1
87800c86:	703b      	strb	r3, [r7, #0]
87800c88:	463b      	mov	r3, r7
87800c8a:	461a      	mov	r2, r3
87800c8c:	2112      	movs	r1, #18
87800c8e:	f44f 4040 	mov.w	r0, #49152	; 0xc000
87800c92:	f2c0 2009 	movt	r0, #521	; 0x209
87800c96:	f7ff fb31 	bl	878002fc <gpio_init>
87800c9a:	2363      	movs	r3, #99	; 0x63
87800c9c:	617b      	str	r3, [r7, #20]
87800c9e:	ee9f 3f10 	mrc	15, 4, r3, cr15, cr0, {0}
87800ca2:	613b      	str	r3, [r7, #16]
87800ca4:	693b      	ldr	r3, [r7, #16]
87800ca6:	0c1b      	lsrs	r3, r3, #16
87800ca8:	041b      	lsls	r3, r3, #16
87800caa:	60fb      	str	r3, [r7, #12]
87800cac:	697b      	ldr	r3, [r7, #20]
87800cae:	095a      	lsrs	r2, r3, #5
87800cb0:	697b      	ldr	r3, [r7, #20]
87800cb2:	f003 031f 	and.w	r3, r3, #31
87800cb6:	2101      	movs	r1, #1
87800cb8:	4099      	lsls	r1, r3
87800cba:	68fb      	ldr	r3, [r7, #12]
87800cbc:	f502 6288 	add.w	r2, r2, #1088	; 0x440
87800cc0:	f843 1022 	str.w	r1, [r3, r2, lsl #2]
87800cc4:	2200      	movs	r2, #0
87800cc6:	f640 5109 	movw	r1, #3337	; 0xd09
87800cca:	f2c8 7180 	movt	r1, #34688	; 0x8780
87800cce:	2063      	movs	r0, #99	; 0x63
87800cd0:	f000 f978 	bl	87800fc4 <system_register_irq_handler_t>
87800cd4:	2112      	movs	r1, #18
87800cd6:	f44f 4040 	mov.w	r0, #49152	; 0xc000
87800cda:	f2c0 2009 	movt	r0, #521	; 0x209
87800cde:	f7ff fb97 	bl	87800410 <gpio_ableInterrupt>
87800ce2:	f242 7010 	movw	r0, #10000	; 0x2710
87800ce6:	f000 f803 	bl	87800cf0 <filtertimer_init>
87800cea:	3718      	adds	r7, #24
87800cec:	46bd      	mov	sp, r7
87800cee:	bd80      	pop	{r7, pc}

87800cf0 <filtertimer_init>:
87800cf0:	b580      	push	{r7, lr}
87800cf2:	b082      	sub	sp, #8
87800cf4:	af00      	add	r7, sp, #0
87800cf6:	6078      	str	r0, [r7, #4]
87800cf8:	6879      	ldr	r1, [r7, #4]
87800cfa:	2041      	movs	r0, #65	; 0x41
87800cfc:	f000 f818 	bl	87800d30 <epit_init>
87800d00:	3708      	adds	r7, #8
87800d02:	46bd      	mov	sp, r7
87800d04:	bd80      	pop	{r7, pc}
87800d06:	bf00      	nop

87800d08 <gpio1_io18_irqhandle>:
87800d08:	b580      	push	{r7, lr}
87800d0a:	b082      	sub	sp, #8
87800d0c:	af00      	add	r7, sp, #0
87800d0e:	6078      	str	r0, [r7, #4]
87800d10:	6039      	str	r1, [r7, #0]
87800d12:	f242 7010 	movw	r0, #10000	; 0x2710
87800d16:	f000 f8c7 	bl	87800ea8 <restart_epit1>
87800d1a:	2112      	movs	r1, #18
87800d1c:	f44f 4040 	mov.w	r0, #49152	; 0xc000
87800d20:	f2c0 2009 	movt	r0, #521	; 0x209
87800d24:	f7ff fb9c 	bl	87800460 <gpio_clearintflags>
87800d28:	3708      	adds	r7, #8
87800d2a:	46bd      	mov	sp, r7
87800d2c:	bd80      	pop	{r7, pc}
87800d2e:	bf00      	nop

87800d30 <epit_init>:
87800d30:	b580      	push	{r7, lr}
87800d32:	b086      	sub	sp, #24
87800d34:	af00      	add	r7, sp, #0
87800d36:	6078      	str	r0, [r7, #4]
87800d38:	6039      	str	r1, [r7, #0]
87800d3a:	687b      	ldr	r3, [r7, #4]
87800d3c:	f5b3 5f80 	cmp.w	r3, #4096	; 0x1000
87800d40:	d302      	bcc.n	87800d48 <epit_init+0x18>
87800d42:	f640 73ff 	movw	r3, #4095	; 0xfff
87800d46:	607b      	str	r3, [r7, #4]
87800d48:	2300      	movs	r3, #0
87800d4a:	f2c0 230d 	movt	r3, #525	; 0x20d
87800d4e:	2200      	movs	r2, #0
87800d50:	601a      	str	r2, [r3, #0]
87800d52:	2300      	movs	r3, #0
87800d54:	f2c0 230d 	movt	r3, #525	; 0x20d
87800d58:	2200      	movs	r2, #0
87800d5a:	f2c0 220d 	movt	r2, #525	; 0x20d
87800d5e:	6812      	ldr	r2, [r2, #0]
87800d60:	f042 0202 	orr.w	r2, r2, #2
87800d64:	601a      	str	r2, [r3, #0]
87800d66:	2300      	movs	r3, #0
87800d68:	f2c0 230d 	movt	r3, #525	; 0x20d
87800d6c:	2200      	movs	r2, #0
87800d6e:	f2c0 220d 	movt	r2, #525	; 0x20d
87800d72:	6812      	ldr	r2, [r2, #0]
87800d74:	f042 0204 	orr.w	r2, r2, #4
87800d78:	601a      	str	r2, [r3, #0]
87800d7a:	2300      	movs	r3, #0
87800d7c:	f2c0 230d 	movt	r3, #525	; 0x20d
87800d80:	2200      	movs	r2, #0
87800d82:	f2c0 220d 	movt	r2, #525	; 0x20d
87800d86:	6812      	ldr	r2, [r2, #0]
87800d88:	f042 0208 	orr.w	r2, r2, #8
87800d8c:	601a      	str	r2, [r3, #0]
87800d8e:	2300      	movs	r3, #0
87800d90:	f2c0 230d 	movt	r3, #525	; 0x20d
87800d94:	2200      	movs	r2, #0
87800d96:	f2c0 220d 	movt	r2, #525	; 0x20d
87800d9a:	6811      	ldr	r1, [r2, #0]
87800d9c:	687a      	ldr	r2, [r7, #4]
87800d9e:	0112      	lsls	r2, r2, #4
87800da0:	430a      	orrs	r2, r1
87800da2:	601a      	str	r2, [r3, #0]
87800da4:	2300      	movs	r3, #0
87800da6:	f2c0 230d 	movt	r3, #525	; 0x20d
87800daa:	2200      	movs	r2, #0
87800dac:	f2c0 220d 	movt	r2, #525	; 0x20d
87800db0:	6812      	ldr	r2, [r2, #0]
87800db2:	f042 7280 	orr.w	r2, r2, #16777216	; 0x1000000
87800db6:	601a      	str	r2, [r3, #0]
87800db8:	2300      	movs	r3, #0
87800dba:	f2c0 230d 	movt	r3, #525	; 0x20d
87800dbe:	683a      	ldr	r2, [r7, #0]
87800dc0:	609a      	str	r2, [r3, #8]
87800dc2:	2300      	movs	r3, #0
87800dc4:	f2c0 230d 	movt	r3, #525	; 0x20d
87800dc8:	2200      	movs	r2, #0
87800dca:	60da      	str	r2, [r3, #12]
87800dcc:	2358      	movs	r3, #88	; 0x58
87800dce:	617b      	str	r3, [r7, #20]
87800dd0:	ee9f 3f10 	mrc	15, 4, r3, cr15, cr0, {0}
87800dd4:	613b      	str	r3, [r7, #16]
87800dd6:	693b      	ldr	r3, [r7, #16]
87800dd8:	0c1b      	lsrs	r3, r3, #16
87800dda:	041b      	lsls	r3, r3, #16
87800ddc:	60fb      	str	r3, [r7, #12]
87800dde:	697b      	ldr	r3, [r7, #20]
87800de0:	095a      	lsrs	r2, r3, #5
87800de2:	697b      	ldr	r3, [r7, #20]
87800de4:	f003 031f 	and.w	r3, r3, #31
87800de8:	2101      	movs	r1, #1
87800dea:	4099      	lsls	r1, r3
87800dec:	68fb      	ldr	r3, [r7, #12]
87800dee:	f502 6288 	add.w	r2, r2, #1088	; 0x440
87800df2:	f843 1022 	str.w	r1, [r3, r2, lsl #2]
87800df6:	2200      	movs	r2, #0
87800df8:	f640 610d 	movw	r1, #3597	; 0xe0d
87800dfc:	f2c8 7180 	movt	r1, #34688	; 0x8780
87800e00:	2058      	movs	r0, #88	; 0x58
87800e02:	f000 f8df 	bl	87800fc4 <system_register_irq_handler_t>
87800e06:	3718      	adds	r7, #24
87800e08:	46bd      	mov	sp, r7
87800e0a:	bd80      	pop	{r7, pc}

87800e0c <epit1_irqhandle>:
87800e0c:	b580      	push	{r7, lr}
87800e0e:	b082      	sub	sp, #8
87800e10:	af00      	add	r7, sp, #0
87800e12:	6078      	str	r0, [r7, #4]
87800e14:	6039      	str	r1, [r7, #0]
87800e16:	2300      	movs	r3, #0
87800e18:	f2c0 230d 	movt	r3, #525	; 0x20d
87800e1c:	685b      	ldr	r3, [r3, #4]
87800e1e:	f003 0301 	and.w	r3, r3, #1
87800e22:	2b00      	cmp	r3, #0
87800e24:	d023      	beq.n	87800e6e <epit1_irqhandle+0x62>
87800e26:	f000 f82f 	bl	87800e88 <disable_epit1>
87800e2a:	2112      	movs	r1, #18
87800e2c:	f44f 4040 	mov.w	r0, #49152	; 0xc000
87800e30:	f2c0 2009 	movt	r0, #521	; 0x209
87800e34:	f7ff fada 	bl	878003ec <gpio_pinread>
87800e38:	4603      	mov	r3, r0
87800e3a:	2b00      	cmp	r3, #0
87800e3c:	d117      	bne.n	87800e6e <epit1_irqhandle+0x62>
87800e3e:	f241 0384 	movw	r3, #4228	; 0x1084
87800e42:	f2c8 7380 	movt	r3, #34688	; 0x8780
87800e46:	781b      	ldrb	r3, [r3, #0]
87800e48:	2b00      	cmp	r3, #0
87800e4a:	bf0c      	ite	eq
87800e4c:	2301      	moveq	r3, #1
87800e4e:	2300      	movne	r3, #0
87800e50:	b2db      	uxtb	r3, r3
87800e52:	461a      	mov	r2, r3
87800e54:	f241 0384 	movw	r3, #4228	; 0x1084
87800e58:	f2c8 7380 	movt	r3, #34688	; 0x8780
87800e5c:	701a      	strb	r2, [r3, #0]
87800e5e:	f241 0384 	movw	r3, #4228	; 0x1084
87800e62:	f2c8 7380 	movt	r3, #34688	; 0x8780
87800e66:	781b      	ldrb	r3, [r3, #0]
87800e68:	4618      	mov	r0, r3
87800e6a:	f7ff fe23 	bl	87800ab4 <led_Trun_status>
87800e6e:	2300      	movs	r3, #0
87800e70:	f2c0 230d 	movt	r3, #525	; 0x20d
87800e74:	2200      	movs	r2, #0
87800e76:	f2c0 220d 	movt	r2, #525	; 0x20d
87800e7a:	6852      	ldr	r2, [r2, #4]
87800e7c:	f042 0201 	orr.w	r2, r2, #1
87800e80:	605a      	str	r2, [r3, #4]
87800e82:	3708      	adds	r7, #8
87800e84:	46bd      	mov	sp, r7
87800e86:	bd80      	pop	{r7, pc}

87800e88 <disable_epit1>:
87800e88:	b480      	push	{r7}
87800e8a:	af00      	add	r7, sp, #0
87800e8c:	2300      	movs	r3, #0
87800e8e:	f2c0 230d 	movt	r3, #525	; 0x20d
87800e92:	2200      	movs	r2, #0
87800e94:	f2c0 220d 	movt	r2, #525	; 0x20d
87800e98:	6812      	ldr	r2, [r2, #0]
87800e9a:	f022 0201 	bic.w	r2, r2, #1
87800e9e:	601a      	str	r2, [r3, #0]
87800ea0:	46bd      	mov	sp, r7
87800ea2:	f85d 7b04 	ldr.w	r7, [sp], #4
87800ea6:	4770      	bx	lr

87800ea8 <restart_epit1>:
87800ea8:	b580      	push	{r7, lr}
87800eaa:	b082      	sub	sp, #8
87800eac:	af00      	add	r7, sp, #0
87800eae:	6078      	str	r0, [r7, #4]
87800eb0:	f7ff ffea 	bl	87800e88 <disable_epit1>
87800eb4:	2300      	movs	r3, #0
87800eb6:	f2c0 230d 	movt	r3, #525	; 0x20d
87800eba:	687a      	ldr	r2, [r7, #4]
87800ebc:	609a      	str	r2, [r3, #8]
87800ebe:	2300      	movs	r3, #0
87800ec0:	f2c0 230d 	movt	r3, #525	; 0x20d
87800ec4:	2200      	movs	r2, #0
87800ec6:	f2c0 220d 	movt	r2, #525	; 0x20d
87800eca:	6812      	ldr	r2, [r2, #0]
87800ecc:	f042 0201 	orr.w	r2, r2, #1
87800ed0:	601a      	str	r2, [r3, #0]
87800ed2:	3708      	adds	r7, #8
87800ed4:	46bd      	mov	sp, r7
87800ed6:	bd80      	pop	{r7, pc}

87800ed8 <int_init>:
87800ed8:	b580      	push	{r7, lr}
87800eda:	b086      	sub	sp, #24
87800edc:	af00      	add	r7, sp, #0
87800ede:	ee9f 3f10 	mrc	15, 4, r3, cr15, cr0, {0}
87800ee2:	617b      	str	r3, [r7, #20]
87800ee4:	697b      	ldr	r3, [r7, #20]
87800ee6:	0c1b      	lsrs	r3, r3, #16
87800ee8:	041b      	lsls	r3, r3, #16
87800eea:	613b      	str	r3, [r7, #16]
87800eec:	693b      	ldr	r3, [r7, #16]
87800eee:	f503 5380 	add.w	r3, r3, #4096	; 0x1000
87800ef2:	3304      	adds	r3, #4
87800ef4:	681b      	ldr	r3, [r3, #0]
87800ef6:	f003 031f 	and.w	r3, r3, #31
87800efa:	3301      	adds	r3, #1
87800efc:	60fb      	str	r3, [r7, #12]
87800efe:	2300      	movs	r3, #0
87800f00:	60bb      	str	r3, [r7, #8]
87800f02:	e00a      	b.n	87800f1a <int_init+0x42>
87800f04:	693b      	ldr	r3, [r7, #16]
87800f06:	68ba      	ldr	r2, [r7, #8]
87800f08:	f502 628c 	add.w	r2, r2, #1120	; 0x460
87800f0c:	f04f 31ff 	mov.w	r1, #4294967295	; 0xffffffff
87800f10:	f843 1022 	str.w	r1, [r3, r2, lsl #2]
87800f14:	68bb      	ldr	r3, [r7, #8]
87800f16:	3301      	adds	r3, #1
87800f18:	60bb      	str	r3, [r7, #8]
87800f1a:	68fa      	ldr	r2, [r7, #12]
87800f1c:	68bb      	ldr	r3, [r7, #8]
87800f1e:	429a      	cmp	r2, r3
87800f20:	d8f0      	bhi.n	87800f04 <int_init+0x2c>
87800f22:	693b      	ldr	r3, [r7, #16]
87800f24:	f503 5300 	add.w	r3, r3, #8192	; 0x2000
87800f28:	3304      	adds	r3, #4
87800f2a:	22f8      	movs	r2, #248	; 0xf8
87800f2c:	601a      	str	r2, [r3, #0]
87800f2e:	693b      	ldr	r3, [r7, #16]
87800f30:	f503 5300 	add.w	r3, r3, #8192	; 0x2000
87800f34:	3308      	adds	r3, #8
87800f36:	2202      	movs	r2, #2
87800f38:	601a      	str	r2, [r3, #0]
87800f3a:	693b      	ldr	r3, [r7, #16]
87800f3c:	f503 5380 	add.w	r3, r3, #4096	; 0x1000
87800f40:	2201      	movs	r2, #1
87800f42:	601a      	str	r2, [r3, #0]
87800f44:	693b      	ldr	r3, [r7, #16]
87800f46:	f503 5300 	add.w	r3, r3, #8192	; 0x2000
87800f4a:	2201      	movs	r2, #1
87800f4c:	601a      	str	r2, [r3, #0]
87800f4e:	f000 f80b 	bl	87800f68 <system_irq_init>
87800f52:	2300      	movs	r3, #0
87800f54:	f2c8 7380 	movt	r3, #34688	; 0x8780
87800f58:	607b      	str	r3, [r7, #4]
87800f5a:	687b      	ldr	r3, [r7, #4]
87800f5c:	ee0c 3f10 	mcr	15, 0, r3, cr12, cr0, {0}
87800f60:	3718      	adds	r7, #24
87800f62:	46bd      	mov	sp, r7
87800f64:	bd80      	pop	{r7, pc}
87800f66:	bf00      	nop

87800f68 <system_irq_init>:
87800f68:	b480      	push	{r7}
87800f6a:	b083      	sub	sp, #12
87800f6c:	af00      	add	r7, sp, #0
87800f6e:	2300      	movs	r3, #0
87800f70:	607b      	str	r3, [r7, #4]
87800f72:	f241 0388 	movw	r3, #4232	; 0x1088
87800f76:	f2c8 7380 	movt	r3, #34688	; 0x8780
87800f7a:	2200      	movs	r2, #0
87800f7c:	601a      	str	r2, [r3, #0]
87800f7e:	2300      	movs	r3, #0
87800f80:	607b      	str	r3, [r7, #4]
87800f82:	e016      	b.n	87800fb2 <system_irq_init+0x4a>
87800f84:	f241 038c 	movw	r3, #4236	; 0x108c
87800f88:	f2c8 7380 	movt	r3, #34688	; 0x8780
87800f8c:	6879      	ldr	r1, [r7, #4]
87800f8e:	f640 72fd 	movw	r2, #4093	; 0xffd
87800f92:	f2c8 7280 	movt	r2, #34688	; 0x8780
87800f96:	f843 2031 	str.w	r2, [r3, r1, lsl #3]
87800f9a:	f241 028c 	movw	r2, #4236	; 0x108c
87800f9e:	f2c8 7280 	movt	r2, #34688	; 0x8780
87800fa2:	687b      	ldr	r3, [r7, #4]
87800fa4:	00db      	lsls	r3, r3, #3
87800fa6:	4413      	add	r3, r2
87800fa8:	2200      	movs	r2, #0
87800faa:	605a      	str	r2, [r3, #4]
87800fac:	687b      	ldr	r3, [r7, #4]
87800fae:	3301      	adds	r3, #1
87800fb0:	607b      	str	r3, [r7, #4]
87800fb2:	687b      	ldr	r3, [r7, #4]
87800fb4:	2b9f      	cmp	r3, #159	; 0x9f
87800fb6:	d9e5      	bls.n	87800f84 <system_irq_init+0x1c>
87800fb8:	370c      	adds	r7, #12
87800fba:	46bd      	mov	sp, r7
87800fbc:	f85d 7b04 	ldr.w	r7, [sp], #4
87800fc0:	4770      	bx	lr
87800fc2:	bf00      	nop

87800fc4 <system_register_irq_handler_t>:
87800fc4:	b480      	push	{r7}
87800fc6:	b085      	sub	sp, #20
87800fc8:	af00      	add	r7, sp, #0
87800fca:	60f8      	str	r0, [r7, #12]
87800fcc:	60b9      	str	r1, [r7, #8]
87800fce:	607a      	str	r2, [r7, #4]
87800fd0:	f241 038c 	movw	r3, #4236	; 0x108c
87800fd4:	f2c8 7380 	movt	r3, #34688	; 0x8780
87800fd8:	68fa      	ldr	r2, [r7, #12]
87800fda:	68b9      	ldr	r1, [r7, #8]
87800fdc:	f843 1032 	str.w	r1, [r3, r2, lsl #3]
87800fe0:	f241 028c 	movw	r2, #4236	; 0x108c
87800fe4:	f2c8 7280 	movt	r2, #34688	; 0x8780
87800fe8:	68fb      	ldr	r3, [r7, #12]
87800fea:	00db      	lsls	r3, r3, #3
87800fec:	4413      	add	r3, r2
87800fee:	687a      	ldr	r2, [r7, #4]
87800ff0:	605a      	str	r2, [r3, #4]
87800ff2:	3714      	adds	r7, #20
87800ff4:	46bd      	mov	sp, r7
87800ff6:	f85d 7b04 	ldr.w	r7, [sp], #4
87800ffa:	4770      	bx	lr

87800ffc <Default_system_irq_handler_t>:
87800ffc:	b480      	push	{r7}
87800ffe:	b083      	sub	sp, #12
87801000:	af00      	add	r7, sp, #0
87801002:	6078      	str	r0, [r7, #4]
87801004:	6039      	str	r1, [r7, #0]
87801006:	e7fe      	b.n	87801006 <Default_system_irq_handler_t+0xa>

87801008 <system_irqhandler>:
87801008:	b590      	push	{r4, r7, lr}
8780100a:	b085      	sub	sp, #20
8780100c:	af00      	add	r7, sp, #0
8780100e:	6078      	str	r0, [r7, #4]
87801010:	687b      	ldr	r3, [r7, #4]
87801012:	f3c3 0309 	ubfx	r3, r3, #0, #10
87801016:	60fb      	str	r3, [r7, #12]
87801018:	68fb      	ldr	r3, [r7, #12]
8780101a:	2ba0      	cmp	r3, #160	; 0xa0
8780101c:	d900      	bls.n	87801020 <system_irqhandler+0x18>
8780101e:	e027      	b.n	87801070 <system_irqhandler+0x68>
87801020:	f241 0388 	movw	r3, #4232	; 0x1088
87801024:	f2c8 7380 	movt	r3, #34688	; 0x8780
87801028:	681b      	ldr	r3, [r3, #0]
8780102a:	1c5a      	adds	r2, r3, #1
8780102c:	f241 0388 	movw	r3, #4232	; 0x1088
87801030:	f2c8 7380 	movt	r3, #34688	; 0x8780
87801034:	601a      	str	r2, [r3, #0]
87801036:	f241 038c 	movw	r3, #4236	; 0x108c
8780103a:	f2c8 7380 	movt	r3, #34688	; 0x8780
8780103e:	68fa      	ldr	r2, [r7, #12]
87801040:	f853 4032 	ldr.w	r4, [r3, r2, lsl #3]
87801044:	f241 028c 	movw	r2, #4236	; 0x108c
87801048:	f2c8 7280 	movt	r2, #34688	; 0x8780
8780104c:	68fb      	ldr	r3, [r7, #12]
8780104e:	00db      	lsls	r3, r3, #3
87801050:	4413      	add	r3, r2
87801052:	685b      	ldr	r3, [r3, #4]
87801054:	4619      	mov	r1, r3
87801056:	68f8      	ldr	r0, [r7, #12]
87801058:	47a0      	blx	r4
8780105a:	f241 0388 	movw	r3, #4232	; 0x1088
8780105e:	f2c8 7380 	movt	r3, #34688	; 0x8780
87801062:	681b      	ldr	r3, [r3, #0]
87801064:	1e5a      	subs	r2, r3, #1
87801066:	f241 0388 	movw	r3, #4232	; 0x1088
8780106a:	f2c8 7380 	movt	r3, #34688	; 0x8780
8780106e:	601a      	str	r2, [r3, #0]
87801070:	3714      	adds	r7, #20
87801072:	46bd      	mov	sp, r7
87801074:	bd90      	pop	{r4, r7, pc}
87801076:	bf00      	nop

87801078 <__main_from_arm>:
87801078:	e51ff004 	ldr	pc, [pc, #-4]	; 8780107c <__main_from_arm+0x4>
8780107c:	878002d1 			; <UNDEFINED> instruction: 0x878002d1

Disassembly of section .data:

87801080 <release.8771>:
87801080:	Address 0x0000000087801080 is out of bounds.


Disassembly of section .bss:

87801084 <__bss_start>:
87801084:	00000000 	andeq	r0, r0, r0

87801088 <irq_Nesting>:
87801088:	00000000 	andeq	r0, r0, r0

8780108c <irqTable>:
	...

Disassembly of section .debug_info:

00000000 <.debug_info>:
       0:	0000008b 	andeq	r0, r0, fp, lsl #1
       4:	00000004 	andeq	r0, r0, r4
       8:	01040000 	mrseq	r0, (UNDEF: 4)
       c:	0000000e 	andeq	r0, r0, lr
      10:	00007801 	andeq	r7, r0, r1, lsl #16
      14:	0000b100 	andeq	fp, r0, r0, lsl #2
      18:	8002d000 	andhi	sp, r2, r0
      1c:	00002c87 	andeq	r2, r0, r7, lsl #25
      20:	00000000 	andeq	r0, r0, r0
      24:	07040200 	streq	r0, [r4, -r0, lsl #4]
      28:	00000091 	muleq	r0, r1, r0
      2c:	9e080102 	adflse	f0, f0, f2
      30:	02000000 	andeq	r0, r0, #0
      34:	00da0702 	sbcseq	r0, sl, r2, lsl #14
      38:	04020000 	streq	r0, [r2], #-0
      3c:	00008c07 	andeq	r8, r0, r7, lsl #24
      40:	06010200 	streq	r0, [r1], -r0, lsl #4
      44:	000000a0 	andeq	r0, r0, r0, lsr #1
      48:	ed050202 	sfm	f0, 4, [r5, #-8]
      4c:	03000000 	movweq	r0, #0
      50:	6e690504 	cdpvs	5, 6, cr0, cr9, cr4, {0}
      54:	08020074 	stmdaeq	r2, {r2, r4, r5, r6}
      58:	00000005 	andeq	r0, r0, r5
      5c:	07080200 	streq	r0, [r8, -r0, lsl #4]
      60:	00000087 	andeq	r0, r0, r7, lsl #1
      64:	05050402 	streq	r0, [r5, #-1026]	; 0x402
      68:	02000000 	andeq	r0, r0, #0
      6c:	00f70704 	rscseq	r0, r7, r4, lsl #14
      70:	01020000 	mrseq	r0, (UNDEF: 2)
      74:	0000a708 	andeq	sl, r0, r8, lsl #14
      78:	00ac0400 	adceq	r0, ip, r0, lsl #8
      7c:	10010000 	andne	r0, r1, r0
      80:	0000004f 	andeq	r0, r0, pc, asr #32
      84:	878002d0 			; <UNDEFINED> instruction: 0x878002d0
      88:	0000002c 	andeq	r0, r0, ip, lsr #32
      8c:	40009c01 	andmi	r9, r0, r1, lsl #24
      90:	04000003 	streq	r0, [r0], #-3
      94:	00004400 	andeq	r4, r0, r0, lsl #8
      98:	0e010400 	cfcpyseq	mvf0, mvf1
      9c:	01000000 	mrseq	r0, (UNDEF: 0)
      a0:	000001fd 	strdeq	r0, [r0], -sp
      a4:	000000b1 	strheq	r0, [r0], -r1
      a8:	878002fc 			; <UNDEFINED> instruction: 0x878002fc
      ac:	000002a8 	andeq	r0, r0, r8, lsr #5
      b0:	00000054 	andeq	r0, r0, r4, asr r0
      b4:	a0060102 	andge	r0, r6, r2, lsl #2
      b8:	02000000 	andeq	r0, r0, #0
      bc:	00ed0502 	rsceq	r0, sp, r2, lsl #10
      c0:	04030000 	streq	r0, [r3], #-0
      c4:	746e6905 	strbtvc	r6, [lr], #-2309	; 0x905
      c8:	05080200 	streq	r0, [r8, #-512]	; 0x200
      cc:	00000000 	andeq	r0, r0, r0
      d0:	9e080102 	adflse	f0, f0, f2
      d4:	02000000 	andeq	r0, r0, #0
      d8:	00da0702 	sbcseq	r0, sl, r2, lsl #14
      dc:	04020000 	streq	r0, [r2], #-0
      e0:	00009107 	andeq	r9, r0, r7, lsl #2
      e4:	07080200 	streq	r0, [r8, -r0, lsl #4]
      e8:	00000087 	andeq	r0, r0, r7, lsl #1
      ec:	f7070402 			; <UNDEFINED> instruction: 0xf7070402
      f0:	02000000 	andeq	r0, r0, #0
      f4:	00a70801 	adceq	r0, r7, r1, lsl #16
      f8:	4f040000 	svcmi	0x00040000
      fc:	05000000 	streq	r0, [r0, #-0]
     100:	34ac0220 	strtcc	r0, [ip], #544	; 0x220
     104:	000000e1 	andeq	r0, r0, r1, ror #1
     108:	00524406 	subseq	r4, r2, r6, lsl #8
     10c:	6b34ad02 	blvs	d2b51c <_start-0x86ad4ae4>
     110:	00000000 	andeq	r0, r0, r0
     114:	00015e07 	andeq	r5, r1, r7, lsl #28
     118:	34ae0200 	strtcc	r0, [lr], #512	; 0x200
     11c:	0000006b 	andeq	r0, r0, fp, rrx
     120:	53500604 	cmppl	r0, #4, 12	; 0x400000
     124:	af020052 	svcge	0x00020052
     128:	00006b34 	andeq	r6, r0, r4, lsr fp
     12c:	4c070800 	stcmi	8, cr0, [r7], {-0}
     130:	02000002 	andeq	r0, r0, #2
     134:	006b34b0 	strhteq	r3, [fp], #-64	; 0xffffffc0
     138:	070c0000 	streq	r0, [ip, -r0]
     13c:	00000251 	andeq	r0, r0, r1, asr r2
     140:	6b34b102 	blvs	d2c550 <_start-0x86ad3ab0>
     144:	10000000 	andne	r0, r0, r0
     148:	524d4906 	subpl	r4, sp, #98304	; 0x18000
     14c:	34b20200 	ldrtcc	r0, [r2], #512	; 0x200
     150:	0000006b 	andeq	r0, r0, fp, rrx
     154:	53490614 	movtpl	r0, #38420	; 0x9614
     158:	b3020052 	movwlt	r0, #8274	; 0x2052
     15c:	00006b34 	andeq	r6, r0, r4, lsr fp
     160:	43071800 	movwmi	r1, #30720	; 0x7800
     164:	02000002 	andeq	r0, r0, #2
     168:	006b34b4 	strhteq	r3, [fp], #-68	; 0xffffffbc
     16c:	001c0000 	andseq	r0, ip, r0
     170:	0001d908 	andeq	sp, r1, r8, lsl #18
     174:	34b50200 	ldrtcc	r0, [r5], #512	; 0x200
     178:	00000070 	andeq	r0, r0, r0, ror r0
     17c:	00029a09 	andeq	r9, r2, r9, lsl #20
     180:	07030400 	streq	r0, [r3, -r0, lsl #8]
     184:	0000011e 	andeq	r0, r0, lr, lsl r1
     188:	0002290a 	andeq	r2, r2, sl, lsl #18
     18c:	390a0000 	stmdbcc	sl, {}	; <UNPREDICTABLE>
     190:	01000001 	tsteq	r0, r1
     194:	0002160a 	andeq	r1, r2, sl, lsl #12
     198:	000a0200 	andeq	r0, sl, r0, lsl #4
     19c:	03000001 	movweq	r0, #1
     1a0:	00019a0a 	andeq	r9, r1, sl, lsl #20
     1a4:	180a0400 	stmdane	sl, {sl}
     1a8:	05000001 	streq	r0, [r0, #-1]
     1ac:	029b0b00 	addseq	r0, fp, #0, 22
     1b0:	0f030000 	svceq	0x00030000
     1b4:	000000ed 	andeq	r0, r0, sp, ror #1
     1b8:	00014a09 	andeq	r4, r1, r9, lsl #20
     1bc:	12030400 	andne	r0, r3, #0, 8
     1c0:	00000142 	andeq	r0, r0, r2, asr #2
     1c4:	0002870a 	andeq	r8, r2, sl, lsl #14
     1c8:	b20a0000 	andlt	r0, sl, #0
     1cc:	01000001 	tsteq	r0, r1
     1d0:	014b0b00 	cmpeq	fp, r0, lsl #22
     1d4:	16030000 	strne	r0, [r3], -r0
     1d8:	00000129 	andeq	r0, r0, r9, lsr #2
     1dc:	0002560c 	andeq	r5, r2, ip, lsl #12
     1e0:	18030c00 	stmdane	r3, {sl, fp}
     1e4:	0000017e 	andeq	r0, r0, lr, ror r1
     1e8:	0001e30d 	andeq	lr, r1, sp, lsl #6
     1ec:	411a0300 	tstmi	sl, r0, lsl #6
     1f0:	00000000 	andeq	r0, r0, r0
     1f4:	0001540d 	andeq	r5, r1, sp, lsl #8
     1f8:	421b0300 	andsmi	r0, fp, #0, 6
     1fc:	04000001 	streq	r0, [r0], #-1
     200:	0001910d 	andeq	r9, r1, sp, lsl #2
     204:	1e1c0300 	cdpne	3, 1, cr0, cr12, cr0, {0}
     208:	08000001 	stmdaeq	r0, {r0}
     20c:	02570b00 	subseq	r0, r7, #0, 22
     210:	1d030000 	stcne	0, cr0, [r3, #-0]
     214:	0000014d 	andeq	r0, r0, sp, asr #2
     218:	0002390e 	andeq	r3, r2, lr, lsl #18
     21c:	fc030100 	stc2	1, cr0, [r3], {-0}
     220:	a2878002 	addge	r8, r7, #2
     224:	01000000 	mrseq	r0, (UNDEF: 0)
     228:	0001c99c 	muleq	r1, ip, r9
     22c:	018c0f00 	orreq	r0, ip, r0, lsl #30
     230:	03010000 	movweq	r0, #4096	; 0x1000
     234:	000001c9 	andeq	r0, r0, r9, asr #3
     238:	10749102 	rsbsne	r9, r4, r2, lsl #2
     23c:	006e6970 	rsbeq	r6, lr, r0, ror r9
     240:	00330301 	eorseq	r0, r3, r1, lsl #6
     244:	91020000 	mrsls	r0, (UNDEF: 2)
     248:	02600f70 	rsbeq	r0, r0, #112, 30	; 0x1c0
     24c:	03010000 	movweq	r0, #4096	; 0x1000
     250:	000001cf 	andeq	r0, r0, pc, asr #3
     254:	006c9102 	rsbeq	r9, ip, r2, lsl #2
     258:	00e10411 	rsceq	r0, r1, r1, lsl r4
     25c:	04110000 	ldreq	r0, [r1], #-0
     260:	0000017e 	andeq	r0, r0, lr, ror r1
     264:	0001ef12 	andeq	lr, r1, r2, lsl pc
     268:	a01e0100 	andsge	r0, lr, r0, lsl #2
     26c:	4a878003 	bmi	fe1e0280 <__bss_end+0x769decf4>
     270:	01000000 	mrseq	r0, (UNDEF: 0)
     274:	0002159c 	muleq	r2, ip, r5
     278:	018c0f00 	orreq	r0, ip, r0, lsl #30
     27c:	1e010000 	cdpne	0, 0, cr0, cr1, cr0, {0}
     280:	000001c9 	andeq	r0, r0, r9, asr #3
     284:	10749102 	rsbsne	r9, r4, r2, lsl #2
     288:	006e6970 	rsbeq	r6, lr, r0, ror r9
     28c:	00331e01 	eorseq	r1, r3, r1, lsl #28
     290:	91020000 	mrsls	r0, (UNDEF: 2)
     294:	0fc90f70 	svceq	0x00c90f70
     298:	1e010000 	cdpne	0, 0, cr0, cr1, cr0, {0}
     29c:	00000033 	andeq	r0, r0, r3, lsr r0
     2a0:	006c9102 	rsbeq	r9, ip, r2, lsl #2
     2a4:	00027a13 	andeq	r7, r2, r3, lsl sl
     2a8:	33290100 	teqcc	r9, #0, 2
     2ac:	ec000000 	stc	0, cr0, [r0], {-0}
     2b0:	24878003 	strcs	r8, [r7], #3
     2b4:	01000000 	mrseq	r0, (UNDEF: 0)
     2b8:	00024b9c 	muleq	r2, ip, fp
     2bc:	018c0f00 	orreq	r0, ip, r0, lsl #30
     2c0:	29010000 	stmdbcs	r1, {}	; <UNPREDICTABLE>
     2c4:	000001c9 	andeq	r0, r0, r9, asr #3
     2c8:	10749102 	rsbsne	r9, r4, r2, lsl #2
     2cc:	006e6970 	rsbeq	r6, lr, r0, ror r9
     2d0:	00332901 	eorseq	r2, r3, r1, lsl #18
     2d4:	91020000 	mrsls	r0, (UNDEF: 2)
     2d8:	67120070 			; <UNDEFINED> instruction: 0x67120070
     2dc:	01000002 	tsteq	r0, r2
     2e0:	8004102f 	andhi	r1, r4, pc, lsr #32
     2e4:	00002687 	andeq	r2, r0, r7, lsl #13
     2e8:	7d9c0100 	ldfvcs	f0, [ip]
     2ec:	0f000002 	svceq	0x00000002
     2f0:	0000018c 	andeq	r0, r0, ip, lsl #3
     2f4:	01c92f01 	biceq	r2, r9, r1, lsl #30
     2f8:	91020000 	mrsls	r0, (UNDEF: 2)
     2fc:	69701074 	ldmdbvs	r0!, {r2, r4, r5, r6, ip}^
     300:	2f01006e 	svccs	0x0001006e
     304:	00000033 	andeq	r0, r0, r3, lsr r0
     308:	00709102 	rsbseq	r9, r0, r2, lsl #2
     30c:	00016312 	andeq	r6, r1, r2, lsl r3
     310:	38340100 	ldmdacc	r4!, {r8}
     314:	28878004 	stmcs	r7, {r2, pc}
     318:	01000000 	mrseq	r0, (UNDEF: 0)
     31c:	0002af9c 	muleq	r2, ip, pc	; <UNPREDICTABLE>
     320:	018c0f00 	orreq	r0, ip, r0, lsl #30
     324:	34010000 	strcc	r0, [r1], #-0
     328:	000001c9 	andeq	r0, r0, r9, asr #3
     32c:	10749102 	rsbsne	r9, r4, r2, lsl #2
     330:	006e6970 	rsbeq	r6, lr, r0, ror r9
     334:	00333401 	eorseq	r3, r3, r1, lsl #8
     338:	91020000 	mrsls	r0, (UNDEF: 2)
     33c:	c6120070 			; <UNDEFINED> instruction: 0xc6120070
     340:	01000001 	tsteq	r0, r1
     344:	8004603f 	andhi	r6, r4, pc, lsr r0
     348:	00002687 	andeq	r2, r0, r7, lsl #13
     34c:	e19c0100 	orrs	r0, ip, r0, lsl #2
     350:	0f000002 	svceq	0x00000002
     354:	0000018c 	andeq	r0, r0, ip, lsl #3
     358:	01c93f01 	biceq	r3, r9, r1, lsl #30
     35c:	91020000 	mrsls	r0, (UNDEF: 2)
     360:	69701074 	ldmdbvs	r0!, {r2, r4, r5, r6, ip}^
     364:	3f01006e 	svccc	0x0001006e
     368:	00000033 	andeq	r0, r0, r3, lsr r0
     36c:	00709102 	rsbseq	r9, r0, r2, lsl #2
     370:	00017912 	andeq	r7, r1, r2, lsl r9
     374:	88450100 	stmdahi	r5, {r8}^
     378:	1c878004 	stcne	0, cr8, [r7], {4}
     37c:	01000001 	tsteq	r0, r1
     380:	00033d9c 	muleq	r3, ip, sp
     384:	018c0f00 	orreq	r0, ip, r0, lsl #30
     388:	45010000 	strmi	r0, [r1, #-0]
     38c:	000001c9 	andeq	r0, r0, r9, asr #3
     390:	106c9102 	rsbne	r9, ip, r2, lsl #2
     394:	006e6970 	rsbeq	r6, lr, r0, ror r9
     398:	00334501 	eorseq	r4, r3, r1, lsl #10
     39c:	91020000 	mrsls	r0, (UNDEF: 2)
     3a0:	02aa0f68 	adceq	r0, sl, #104, 30	; 0x1a0
     3a4:	45010000 	strmi	r0, [r1, #-0]
     3a8:	0000011e 	andeq	r0, r0, lr, lsl r1
     3ac:	14649102 	strbtne	r9, [r4], #-258	; 0x102
     3b0:	00726369 	rsbseq	r6, r2, r9, ror #6
     3b4:	033d4701 	teqeq	sp, #262144	; 0x40000
     3b8:	91020000 	mrsls	r0, (UNDEF: 2)
     3bc:	020d1574 	andeq	r1, sp, #116, 10	; 0x1d000000
     3c0:	48010000 	stmdami	r1, {}	; <UNPREDICTABLE>
     3c4:	0000004f 	andeq	r0, r0, pc, asr #32
     3c8:	00709102 	rsbseq	r9, r0, r2, lsl #2
     3cc:	006b0411 	rsbeq	r0, fp, r1, lsl r4
     3d0:	78000000 	stmdavc	r0, {}	; <UNPREDICTABLE>
     3d4:	04000006 	streq	r0, [r0], #-6
     3d8:	00018500 	andeq	r8, r1, r0, lsl #10
     3dc:	0e010400 	cfcpyseq	mvf0, mvf1
     3e0:	01000000 	mrseq	r0, (UNDEF: 0)
     3e4:	0000046f 	andeq	r0, r0, pc, ror #8
     3e8:	000000b1 	strheq	r0, [r0], -r1
     3ec:	878005a4 	strhi	r0, [r0, r4, lsr #11]
     3f0:	00000290 	muleq	r0, r0, r2
     3f4:	000000f1 	strdeq	r0, [r0], -r1
     3f8:	a0060102 	andge	r0, r6, r2, lsl #2
     3fc:	02000000 	andeq	r0, r0, #0
     400:	00ed0502 	rsceq	r0, sp, r2, lsl #10
     404:	04030000 	streq	r0, [r3], #-0
     408:	746e6905 	strbtvc	r6, [lr], #-2309	; 0x905
     40c:	05080200 	streq	r0, [r8, #-512]	; 0x200
     410:	00000000 	andeq	r0, r0, r0
     414:	9e080102 	adflse	f0, f0, f2
     418:	02000000 	andeq	r0, r0, #0
     41c:	00da0702 	sbcseq	r0, sl, r2, lsl #14
     420:	04020000 	streq	r0, [r2], #-0
     424:	00009107 	andeq	r9, r0, r7, lsl #2
     428:	07080200 	streq	r0, [r8, -r0, lsl #4]
     42c:	00000087 	andeq	r0, r0, r7, lsl #1
     430:	f7070402 			; <UNDEFINED> instruction: 0xf7070402
     434:	02000000 	andeq	r0, r0, #0
     438:	00a70801 	adceq	r0, r7, r1, lsl #16
     43c:	41040000 	mrsmi	r0, (UNDEF: 4)
     440:	7b000000 	blvc	448 <_start-0x877ffbb8>
     444:	05000000 	streq	r0, [r0, #-0]
     448:	0000005d 	andeq	r0, r0, sp, asr r0
     44c:	4f060003 	svcmi	0x00060003
     450:	04000000 	streq	r0, [r0], #-0
     454:	00000041 	andeq	r0, r0, r1, asr #32
     458:	00000090 	muleq	r0, r0, r0
     45c:	00005d05 	andeq	r5, r0, r5, lsl #26
     460:	04000b00 	streq	r0, [r0], #-2816	; 0xb00
     464:	00000041 	andeq	r0, r0, r1, asr #32
     468:	000000a0 	andeq	r0, r0, r0, lsr #1
     46c:	00005d05 	andeq	r5, r0, r5, lsl #26
     470:	04001b00 	streq	r1, [r0], #-2816	; 0xb00
     474:	00000041 	andeq	r0, r0, r1, asr #32
     478:	000000b0 	strheq	r0, [r0], -r0	; <UNPREDICTABLE>
     47c:	00005d05 	andeq	r5, r0, r5, lsl #26
     480:	07000700 	streq	r0, [r0, -r0, lsl #14]
     484:	1b33028c 	blne	cc0ebc <_start-0x86b3f144>
     488:	00000267 	andeq	r0, r0, r7, ror #4
     48c:	52434308 	subpl	r4, r3, #8, 6	; 0x20000000
     490:	1b340200 	blne	d00c98 <_start-0x86aff368>
     494:	0000007b 	andeq	r0, r0, fp, ror r0
     498:	04e10900 	strbteq	r0, [r1], #2304	; 0x900
     49c:	35020000 	strcc	r0, [r2, #-0]
     4a0:	00007b1b 	andeq	r7, r0, fp, lsl fp
     4a4:	43080400 	movwmi	r0, #33792	; 0x8400
     4a8:	02005253 	andeq	r5, r0, #805306373	; 0x30000005
     4ac:	007b1b36 	rsbseq	r1, fp, r6, lsr fp
     4b0:	09080000 	stmdbeq	r8, {}	; <UNPREDICTABLE>
     4b4:	0000056f 	andeq	r0, r0, pc, ror #10
     4b8:	7b1b3702 	blvc	6ce0c8 <_start-0x87131f38>
     4bc:	0c000000 	stceq	0, cr0, [r0], {-0}
     4c0:	0005f409 	andeq	pc, r5, r9, lsl #8
     4c4:	1b380200 	blne	e00ccc <_start-0x869ff334>
     4c8:	0000007b 	andeq	r0, r0, fp, ror r0
     4cc:	04210910 	strteq	r0, [r1], #-2320	; 0x910
     4d0:	39020000 	stmdbcc	r2, {}	; <UNPREDICTABLE>
     4d4:	00007b1b 	andeq	r7, r0, fp, lsl fp
     4d8:	57091400 	strpl	r1, [r9, -r0, lsl #8]
     4dc:	02000005 	andeq	r0, r0, #5
     4e0:	007b1b3a 	rsbseq	r1, fp, sl, lsr fp
     4e4:	09180000 	ldmdbeq	r8, {}	; <UNPREDICTABLE>
     4e8:	00000657 	andeq	r0, r0, r7, asr r6
     4ec:	7b1b3b02 	blvc	6cf0fc <_start-0x87130f04>
     4f0:	1c000000 	stcne	0, cr0, [r0], {-0}
     4f4:	0002bb09 	andeq	fp, r2, r9, lsl #22
     4f8:	1b3c0200 	blne	f00d00 <_start-0x868ff300>
     4fc:	0000007b 	andeq	r0, r0, fp, ror r0
     500:	02df0920 	sbcseq	r0, pc, #32, 18	; 0x80000
     504:	3d020000 	stccc	0, cr0, [r2, #-0]
     508:	00007b1b 	andeq	r7, r0, fp, lsl fp
     50c:	31092400 	tstcc	r9, r0, lsl #8
     510:	02000006 	andeq	r0, r0, #6
     514:	007b1b3e 	rsbseq	r1, fp, lr, lsr fp
     518:	09280000 	stmdbeq	r8!, {}	; <UNPREDICTABLE>
     51c:	0000034e 	andeq	r0, r0, lr, asr #6
     520:	7b1b3f02 	blvc	6d0130 <_start-0x8712fed0>
     524:	2c000000 	stccs	0, cr0, [r0], {-0}
     528:	00062b09 	andeq	r2, r6, r9, lsl #22
     52c:	1b400200 	blne	1000d34 <_start-0x867ff2cc>
     530:	0000007b 	andeq	r0, r0, fp, ror r0
     534:	04de0930 	ldrbeq	r0, [lr], #2352	; 0x930
     538:	41020000 	mrsmi	r0, (UNDEF: 2)
     53c:	00007b1b 	andeq	r7, r0, fp, lsl fp
     540:	ac093400 	cfstrsge	mvf3, [r9], {-0}
     544:	02000004 	andeq	r0, r0, #4
     548:	007b1b42 	rsbseq	r1, fp, r2, asr #22
     54c:	09380000 	ldmdbeq	r8!, {}	; <UNPREDICTABLE>
     550:	000002f2 	strdeq	r0, [r0], -r2
     554:	7b1b4302 	blvc	6d1164 <_start-0x8712ee9c>
     558:	3c000000 	stccc	0, cr0, [r0], {-0}
     55c:	00057a09 	andeq	r7, r5, r9, lsl #20
     560:	1b440200 	blne	1100d68 <_start-0x866ff298>
     564:	000000a0 	andeq	r0, r0, r0, lsr #1
     568:	02ca0940 	sbceq	r0, sl, #64, 18	; 0x100000
     56c:	45020000 	strmi	r0, [r2, #-0]
     570:	00007b1b 	andeq	r7, r0, fp, lsl fp
     574:	85094800 	strhi	r4, [r9, #-2048]	; 0x800
     578:	02000005 	andeq	r0, r0, #5
     57c:	00a01b46 	adceq	r1, r0, r6, asr #22
     580:	094c0000 	stmdbeq	ip, {}^	; <UNPREDICTABLE>
     584:	00000371 	andeq	r0, r0, r1, ror r3
     588:	7b1b4702 	blvc	6d2198 <_start-0x8712de68>
     58c:	54000000 	strpl	r0, [r0], #-0
     590:	0002f909 	andeq	pc, r2, r9, lsl #18
     594:	1b480200 	blne	1200d9c <_start-0x865ff264>
     598:	0000007b 	andeq	r0, r0, fp, ror r0
     59c:	04b30958 	ldrteq	r0, [r3], #2392	; 0x958
     5a0:	49020000 	stmdbmi	r2, {}	; <UNPREDICTABLE>
     5a4:	00007b1b 	andeq	r7, r0, fp, lsl fp
     5a8:	a8095c00 	stmdage	r9, {sl, fp, ip, lr}
     5ac:	02000003 	andeq	r0, r0, #3
     5b0:	007b1b4a 	rsbseq	r1, fp, sl, asr #22
     5b4:	09600000 	stmdbeq	r0!, {}^	; <UNPREDICTABLE>
     5b8:	000004a7 	andeq	r0, r0, r7, lsr #9
     5bc:	7b1b4b02 	blvc	6d31cc <_start-0x8712ce34>
     5c0:	64000000 	strvs	r0, [r0], #-0
     5c4:	00057409 	andeq	r7, r5, r9, lsl #8
     5c8:	1b4c0200 	blne	1300dd0 <_start-0x864ff230>
     5cc:	0000007b 	andeq	r0, r0, fp, ror r0
     5d0:	065e0968 	ldrbeq	r0, [lr], -r8, ror #18
     5d4:	4d020000 	stcmi	0, cr0, [r2, #-0]
     5d8:	00007b1b 	andeq	r7, r0, fp, lsl fp
     5dc:	6e096c00 	cdpvs	12, 0, cr6, cr9, cr0, {0}
     5e0:	02000006 	andeq	r0, r0, #6
     5e4:	007b1b4e 	rsbseq	r1, fp, lr, asr #22
     5e8:	09700000 	ldmdbeq	r0!, {}^	; <UNPREDICTABLE>
     5ec:	00000674 	andeq	r0, r0, r4, ror r6
     5f0:	7b1b4f02 	blvc	6d4200 <_start-0x8712be00>
     5f4:	74000000 	strvc	r0, [r0], #-0
     5f8:	00068609 	andeq	r8, r6, r9, lsl #12
     5fc:	1b500200 	blne	1400e04 <_start-0x863ff1fc>
     600:	0000007b 	andeq	r0, r0, fp, ror r0
     604:	068c0978 			; <UNDEFINED> instruction: 0x068c0978
     608:	51020000 	mrspl	r0, (UNDEF: 2)
     60c:	00007b1b 	andeq	r7, r0, fp, lsl fp
     610:	9f097c00 	svcls	0x00097c00
     614:	02000006 	andeq	r0, r0, #6
     618:	007b1b52 	rsbseq	r1, fp, r2, asr fp
     61c:	09800000 	stmibeq	r0, {}	; <UNPREDICTABLE>
     620:	00000590 	muleq	r0, r0, r5
     624:	6b1b5302 	blvs	6d5234 <_start-0x8712adcc>
     628:	84000000 	strhi	r0, [r0], #-0
     62c:	00065109 	andeq	r5, r6, r9, lsl #2
     630:	1b540200 	blne	1500e38 <_start-0x862ff1c8>
     634:	0000007b 	andeq	r0, r0, fp, ror r0
     638:	410a0088 	smlabbmi	sl, r8, r0, r0
     63c:	02000004 	andeq	r0, r0, #4
     640:	00b01b55 	adcseq	r1, r0, r5, asr fp
     644:	800b0000 	andhi	r0, fp, r0
     648:	1e990201 	cdpne	2, 9, cr0, cr9, cr1, {0}
     64c:	000005c2 	andeq	r0, r0, r2, asr #11
     650:	00040709 	andeq	r0, r4, r9, lsl #14
     654:	1e9a0200 	cdpne	2, 9, cr0, cr10, cr0, {0}
     658:	0000007b 	andeq	r0, r0, fp, ror r0
     65c:	067a0900 	ldrbteq	r0, [sl], -r0, lsl #18
     660:	9b020000 	blls	80668 <_start-0x8777f998>
     664:	00007b1e 	andeq	r7, r0, lr, lsl fp
     668:	af090400 	svcge	0x00090400
     66c:	02000002 	andeq	r0, r0, #2
     670:	007b1e9c 			; <UNDEFINED> instruction: 0x007b1e9c
     674:	09080000 	stmdbeq	r8, {}	; <UNPREDICTABLE>
     678:	000005c7 	andeq	r0, r0, r7, asr #11
     67c:	7b1e9d02 	blvc	7a7a8c <_start-0x87058574>
     680:	0c000000 	stceq	0, cr0, [r0], {-0}
     684:	00045709 	andeq	r5, r4, r9, lsl #14
     688:	1e9e0200 	cdpne	2, 9, cr0, cr14, cr0, {0}
     68c:	0000007b 	andeq	r0, r0, fp, ror r0
     690:	04270910 	strteq	r0, [r7], #-2320	; 0x910
     694:	9f020000 	svcls	0x00020000
     698:	00007b1e 	andeq	r7, r0, lr, lsl fp
     69c:	fe091400 	cdp2	4, 0, cr1, cr9, cr0, {0}
     6a0:	02000002 	andeq	r0, r0, #2
     6a4:	007b1ea0 	rsbseq	r1, fp, r0, lsr #29
     6a8:	09180000 	ldmdbeq	r8, {}	; <UNPREDICTABLE>
     6ac:	00000612 	andeq	r0, r0, r2, lsl r6
     6b0:	7b1ea102 	blvc	7a8ac0 <_start-0x87057540>
     6b4:	1c000000 	stcne	0, cr0, [r0], {-0}
     6b8:	00046009 	andeq	r6, r4, r9
     6bc:	1ea20200 	cdpne	2, 10, cr0, cr2, cr0, {0}
     6c0:	0000007b 	andeq	r0, r0, fp, ror r0
     6c4:	054a0920 	strbeq	r0, [sl, #-2336]	; 0x920
     6c8:	a3020000 	movwge	r0, #8192	; 0x2000
     6cc:	00007b1e 	andeq	r7, r0, lr, lsl fp
     6d0:	4a092400 	bmi	2496d8 <_start-0x875b6928>
     6d4:	02000004 	andeq	r0, r0, #4
     6d8:	007b1ea4 	rsbseq	r1, fp, r4, lsr #29
     6dc:	09280000 	stmdbeq	r8!, {}	; <UNPREDICTABLE>
     6e0:	0000038f 	andeq	r0, r0, pc, lsl #7
     6e4:	7b1ea502 	blvc	7a9af4 <_start-0x8705650c>
     6e8:	2c000000 	stccs	0, cr0, [r0], {-0}
     6ec:	00041909 	andeq	r1, r4, r9, lsl #18
     6f0:	1ea60200 	cdpne	2, 10, cr0, cr6, cr0, {0}
     6f4:	0000007b 	andeq	r0, r0, fp, ror r0
     6f8:	04f80930 	ldrbteq	r0, [r8], #2352	; 0x930
     6fc:	a7020000 	strge	r0, [r2, -r0]
     700:	00007b1e 	andeq	r7, r0, lr, lsl fp
     704:	9c093400 	cfstrsls	mvf3, [r9], {-0}
     708:	02000003 	andeq	r0, r0, #3
     70c:	007b1ea8 	rsbseq	r1, fp, r8, lsr #29
     710:	09380000 	ldmdbeq	r8!, {}	; <UNPREDICTABLE>
     714:	0000032e 	andeq	r0, r0, lr, lsr #6
     718:	7b1ea902 	blvc	7aab28 <_start-0x870554d8>
     71c:	3c000000 	stccc	0, cr0, [r0], {-0}
     720:	0003c809 	andeq	ip, r3, r9, lsl #16
     724:	1eaa0200 	cdpne	2, 10, cr0, cr10, cr0, {0}
     728:	0000007b 	andeq	r0, r0, fp, ror r0
     72c:	057a0940 	ldrbeq	r0, [sl, #-2368]!	; 0x940
     730:	ab020000 	blge	80738 <_start-0x8777f8c8>
     734:	0000801e 	andeq	r8, r0, lr, lsl r0
     738:	1f094400 	svcne	0x00094400
     73c:	02000006 	andeq	r0, r0, #6
     740:	007b1eac 	rsbseq	r1, fp, ip, lsr #29
     744:	09500000 	ldmdbeq	r0, {}^	; <UNPREDICTABLE>
     748:	00000585 	andeq	r0, r0, r5, lsl #11
     74c:	801ead02 	andshi	sl, lr, r2, lsl #26
     750:	54000000 	strpl	r0, [r0], #-0
     754:	00050409 	andeq	r0, r5, r9, lsl #8
     758:	1eae0200 	cdpne	2, 10, cr0, cr14, cr0, {0}
     75c:	0000007b 	andeq	r0, r0, fp, ror r0
     760:	05900960 	ldreq	r0, [r0, #2400]	; 0x960
     764:	af020000 	svcge	0x00020000
     768:	0000801e 	andeq	r8, r0, lr, lsl r0
     76c:	64096400 	strvs	r6, [r9], #-1024	; 0x400
     770:	02000006 	andeq	r0, r0, #6
     774:	007b1eb0 	ldrhteq	r1, [fp], #-224	; 0xffffff20
     778:	09700000 	ldmdbeq	r0!, {}^	; <UNPREDICTABLE>
     77c:	000003f1 	strdeq	r0, [r0], -r1
     780:	7b1eb102 	blvc	7acb90 <_start-0x87053470>
     784:	74000000 	strvc	r0, [r0], #-0
     788:	0002d109 	andeq	sp, r2, r9, lsl #2
     78c:	1eb20200 	cdpne	2, 11, cr0, cr2, cr0, {0}
     790:	0000007b 	andeq	r0, r0, fp, ror r0
     794:	05dc0978 	ldrbeq	r0, [ip, #2424]	; 0x978
     798:	b3020000 	movwlt	r0, #8192	; 0x2000
     79c:	00007b1e 	andeq	r7, r0, lr, lsl fp
     7a0:	04097c00 	streq	r7, [r9], #-3072	; 0xc00
     7a4:	02000006 	andeq	r0, r0, #6
     7a8:	007b1eb4 	ldrhteq	r1, [fp], #-228	; 0xffffff1c
     7ac:	09800000 	stmibeq	r0, {}	; <UNPREDICTABLE>
     7b0:	0000059b 	muleq	r0, fp, r5
     7b4:	801eb502 	andshi	fp, lr, r2, lsl #10
     7b8:	84000000 	strhi	r0, [r0], #-0
     7bc:	0003d309 	andeq	sp, r3, r9, lsl #6
     7c0:	1eb60200 	cdpne	2, 11, cr0, cr6, cr0, {0}
     7c4:	0000007b 	andeq	r0, r0, fp, ror r0
     7c8:	05a60990 	streq	r0, [r6, #2448]!	; 0x990
     7cc:	b7020000 	strlt	r0, [r2, -r0]
     7d0:	0000801e 	andeq	r8, r0, lr, lsl r0
     7d4:	3a099400 	bcc	2657dc <_start-0x8759a824>
     7d8:	02000003 	andeq	r0, r0, #3
     7dc:	007b1eb8 	ldrhteq	r1, [fp], #-232	; 0xffffff18
     7e0:	09a00000 	stmibeq	r0!, {}	; <UNPREDICTABLE>
     7e4:	0000048f 	andeq	r0, r0, pc, lsl #9
     7e8:	7b1eb902 	blvc	7aebf8 <_start-0x87051408>
     7ec:	a4000000 	strge	r0, [r0], #-0
     7f0:	00037709 	andeq	r7, r3, r9, lsl #14
     7f4:	1eba0200 	cdpne	2, 11, cr0, cr10, cr0, {0}
     7f8:	0000007b 	andeq	r0, r0, fp, ror r0
     7fc:	06a509a8 	strteq	r0, [r5], r8, lsr #19
     800:	bb020000 	bllt	80808 <_start-0x8777f7f8>
     804:	00007b1e 	andeq	r7, r0, lr, lsl fp
     808:	e309ac00 	movw	sl, #39936	; 0x9c00
     80c:	02000003 	andeq	r0, r0, #3
     810:	007b1ebc 	ldrhteq	r1, [fp], #-236	; 0xffffff14
     814:	09b00000 	ldmibeq	r0!, {}	; <UNPREDICTABLE>
     818:	000005b1 			; <UNDEFINED> instruction: 0x000005b1
     81c:	801ebd02 	andshi	fp, lr, r2, lsl #26
     820:	b4000000 	strlt	r0, [r0], #-0
     824:	0004b809 	andeq	fp, r4, r9, lsl #16
     828:	1ebe0200 	cdpne	2, 11, cr0, cr14, cr0, {0}
     82c:	0000007b 	andeq	r0, r0, fp, ror r0
     830:	05bc09c0 	ldreq	r0, [ip, #2496]!	; 0x9c0
     834:	bf020000 	svclt	0x00020000
     838:	0000901e 	andeq	r9, r0, lr, lsl r0
     83c:	d309c400 	movwle	ip, #37888	; 0x9400
     840:	02000005 	andeq	r0, r0, #5
     844:	007b1ec0 	rsbseq	r1, fp, r0, asr #29
     848:	09e00000 	stmibeq	r0!, {}^	; <UNPREDICTABLE>
     84c:	0000053d 	andeq	r0, r0, sp, lsr r5
     850:	7b1ec102 	blvc	7b0c60 <_start-0x8704f3a0>
     854:	e4000000 	str	r0, [r0], #-0
     858:	00032109 	andeq	r2, r3, r9, lsl #2
     85c:	1ec20200 	cdpne	2, 12, cr0, cr2, cr0, {0}
     860:	0000007b 	andeq	r0, r0, fp, ror r0
     864:	064409e8 	strbeq	r0, [r4], -r8, ror #19
     868:	c3020000 	movwgt	r0, #8192	; 0x2000
     86c:	00007b1e 	andeq	r7, r0, lr, lsl fp
     870:	c209ec00 	andgt	lr, r9, #0, 24
     874:	02000002 	andeq	r0, r0, #2
     878:	007b1ec4 	rsbseq	r1, fp, r4, asr #29
     87c:	09f00000 	ldmibeq	r0!, {}^	; <UNPREDICTABLE>
     880:	000004d2 	ldrdeq	r0, [r0], -r2
     884:	7b1ec502 	blvc	7b1c94 <_start-0x8704e36c>
     888:	f4000000 	vst4.8	{d0-d3}, [r0], r0
     88c:	0003ae09 	andeq	sl, r3, r9, lsl #28
     890:	1ec60200 	cdpne	2, 12, cr0, cr6, cr0, {0}
     894:	0000007b 	andeq	r0, r0, fp, ror r0
     898:	02e609f8 	rsceq	r0, r6, #248, 18	; 0x3e0000
     89c:	c7020000 	strgt	r0, [r2, -r0]
     8a0:	00007b1e 	andeq	r7, r0, lr, lsl fp
     8a4:	ff0cfc00 			; <UNDEFINED> instruction: 0xff0cfc00
     8a8:	02000003 	andeq	r0, r0, #3
     8ac:	007b1ec8 	rsbseq	r1, fp, r8, asr #29
     8b0:	01000000 	mrseq	r0, (UNDEF: 0)
     8b4:	0006380c 	andeq	r3, r6, ip, lsl #16
     8b8:	1ec90200 	cdpne	2, 12, cr0, cr9, cr0, {0}
     8bc:	0000007b 	andeq	r0, r0, fp, ror r0
     8c0:	1c0c0104 	stfnes	f0, [ip], {4}
     8c4:	02000005 	andeq	r0, r0, #5
     8c8:	007b1eca 	rsbseq	r1, fp, sl, asr #29
     8cc:	01080000 	mrseq	r0, (UNDEF: 8)
     8d0:	0004830c 	andeq	r8, r4, ip, lsl #6
     8d4:	1ecb0200 	cdpne	2, 12, cr0, cr11, cr0, {0}
     8d8:	0000007b 	andeq	r0, r0, fp, ror r0
     8dc:	160c010c 	strne	r0, [ip], -ip, lsl #2
     8e0:	02000003 	andeq	r0, r0, #3
     8e4:	05c21ecc 	strbeq	r1, [r2, #3788]	; 0xecc
     8e8:	01100000 	tsteq	r0, r0
     8ec:	0003650c 	andeq	r6, r3, ip, lsl #10
     8f0:	1ecd0200 	cdpne	2, 12, cr0, cr13, cr0, {0}
     8f4:	0000007b 	andeq	r0, r0, fp, ror r0
     8f8:	440c0150 	strmi	r0, [ip], #-336	; 0x150
     8fc:	02000003 	andeq	r0, r0, #3
     900:	007b1ece 	rsbseq	r1, fp, lr, asr #29
     904:	01540000 	cmpeq	r4, r0
     908:	0005fa0c 	andeq	pc, r5, ip, lsl #20
     90c:	1ecf0200 	cdpne	2, 12, cr0, cr15, cr0, {0}
     910:	0000007b 	andeq	r0, r0, fp, ror r0
     914:	120c0158 	andne	r0, ip, #88, 2
     918:	02000005 	andeq	r0, r0, #5
     91c:	007b1ed0 	ldrsbteq	r1, [fp], #-224	; 0xffffff20
     920:	015c0000 	cmpeq	ip, r0
     924:	00036b0c 	andeq	r6, r3, ip, lsl #22
     928:	1ed10200 	cdpne	2, 13, cr0, cr1, cr0, {0}
     92c:	0000007b 	andeq	r0, r0, fp, ror r0
     930:	9d0c0160 	stflss	f0, [ip, #-384]	; 0xfffffe80
     934:	02000004 	andeq	r0, r0, #4
     938:	007b1ed2 	ldrsbteq	r1, [fp], #-226	; 0xffffff1e
     93c:	01640000 	cmneq	r4, r0
     940:	0003850c 	andeq	r8, r3, ip, lsl #10
     944:	1ed30200 	cdpne	2, 13, cr0, cr3, cr0, {0}
     948:	0000007b 	andeq	r0, r0, fp, ror r0
     94c:	b30c0168 	movwlt	r0, #49512	; 0xc168
     950:	02000006 	andeq	r0, r0, #6
     954:	007b1ed4 	ldrsbteq	r1, [fp], #-228	; 0xffffff1c
     958:	016c0000 	cmneq	ip, r0
     95c:	0004690c 	andeq	r6, r4, ip, lsl #18
     960:	1ed50200 	cdpne	2, 13, cr0, cr5, cr0, {0}
     964:	0000007b 	andeq	r0, r0, fp, ror r0
     968:	ea0c0170 	b	300f30 <_start-0x874ff0d0>
     96c:	02000005 	andeq	r0, r0, #5
     970:	007b1ed6 	ldrsbteq	r1, [fp], #-230	; 0xffffff1a
     974:	01740000 	cmneq	r4, r0
     978:	0004c80c 	andeq	ip, r4, ip, lsl #16
     97c:	1ed70200 	cdpne	2, 13, cr0, cr7, cr0, {0}
     980:	0000007b 	andeq	r0, r0, fp, ror r0
     984:	0f0c0178 	svceq	0x000c0178
     988:	02000004 	andeq	r0, r0, #4
     98c:	007b1ed8 	ldrsbteq	r1, [fp], #-232	; 0xffffff18
     990:	017c0000 	cmneq	ip, r0
     994:	00410400 	subeq	r0, r1, r0, lsl #8
     998:	05d20000 	ldrbeq	r0, [r2]
     99c:	5d050000 	stcpl	0, cr0, [r5, #-0]
     9a0:	3f000000 	svccc	0x00000000
     9a4:	03550a00 	cmpeq	r5, #0, 20
     9a8:	d9020000 	stmdble	r2, {}	; <UNPREDICTABLE>
     9ac:	0002731e 	andeq	r7, r2, lr, lsl r3
     9b0:	030b0d00 	movweq	r0, #48384	; 0xbd00
     9b4:	09010000 	stmdbeq	r1, {}	; <UNPREDICTABLE>
     9b8:	878005a4 	strhi	r0, [r0, r4, lsr #11]
     9bc:	00000070 	andeq	r0, r0, r0, ror r0
     9c0:	ba0e9c01 	blt	3a79cc <_start-0x87458634>
     9c4:	01000003 	tsteq	r0, r3
     9c8:	80061415 	andhi	r1, r6, r5, lsl r4
     9cc:	00009087 	andeq	r9, r0, r7, lsl #1
     9d0:	0f9c0100 	svceq	0x009c0100
     9d4:	00000692 	muleq	r0, r2, r6
     9d8:	06a42e01 	strteq	r2, [r4], r1, lsl #28
     9dc:	00588780 	subseq	r8, r8, r0, lsl #15
     9e0:	9c010000 	stcls	0, cr0, [r1], {-0}
     9e4:	00000624 	andeq	r0, r0, r4, lsr #12
     9e8:	67657210 			; <UNDEFINED> instruction: 0x67657210
     9ec:	4f300100 	svcmi	0x00300100
     9f0:	02000000 	andeq	r0, r0, #0
     9f4:	0f007491 	svceq	0x00007491
     9f8:	00000434 	andeq	r0, r0, r4, lsr r4
     9fc:	06fc3c01 	ldrbteq	r3, [ip], r1, lsl #24
     a00:	00588780 	subseq	r8, r8, r0, lsl #15
     a04:	9c010000 	stcls	0, cr0, [r1], {-0}
     a08:	00000648 	andeq	r0, r0, r8, asr #12
     a0c:	67657210 			; <UNDEFINED> instruction: 0x67657210
     a10:	4f3e0100 	svcmi	0x003e0100
     a14:	02000000 	andeq	r0, r0, #0
     a18:	0d007491 	cfstrseq	mvf7, [r0, #-580]	; 0xfffffdbc
     a1c:	0000055d 	andeq	r0, r0, sp, asr r5
     a20:	07544b01 	ldrbeq	r4, [r4, -r1, lsl #22]
     a24:	00688780 	rsbeq	r8, r8, r0, lsl #15
     a28:	9c010000 	stcls	0, cr0, [r1], {-0}
     a2c:	0004e60d 	andeq	lr, r4, sp, lsl #12
     a30:	bc600100 	stflte	f0, [r0], #-0
     a34:	3c878007 	stccc	0, cr8, [r7], {7}
     a38:	01000000 	mrseq	r0, (UNDEF: 0)
     a3c:	05280d9c 	streq	r0, [r8, #-3484]!	; 0xd9c
     a40:	68010000 	stmdavs	r1, {}	; <UNPREDICTABLE>
     a44:	878007f8 			; <UNDEFINED> instruction: 0x878007f8
     a48:	0000003c 	andeq	r0, r0, ip, lsr r0
     a4c:	0a009c01 	beq	27a58 <_start-0x877d85a8>
     a50:	04000002 	streq	r0, [r0], #-2
     a54:	00027500 	andeq	r7, r2, r0, lsl #10
     a58:	0e010400 	cfcpyseq	mvf0, mvf1
     a5c:	01000000 	mrseq	r0, (UNDEF: 0)
     a60:	00000717 	andeq	r0, r0, r7, lsl r7
     a64:	000000b1 	strheq	r0, [r0], -r1
     a68:	87800834 			; <UNDEFINED> instruction: 0x87800834
     a6c:	000001d6 	ldrdeq	r0, [r0], -r6
     a70:	00000187 	andeq	r0, r0, r7, lsl #3
     a74:	a0060102 	andge	r0, r6, r2, lsl #2
     a78:	02000000 	andeq	r0, r0, #0
     a7c:	00ed0502 	rsceq	r0, sp, r2, lsl #10
     a80:	04030000 	streq	r0, [r3], #-0
     a84:	746e6905 	strbtvc	r6, [lr], #-2309	; 0x905
     a88:	05080200 	streq	r0, [r8, #-512]	; 0x200
     a8c:	00000000 	andeq	r0, r0, r0
     a90:	9e080102 	adflse	f0, f0, f2
     a94:	02000000 	andeq	r0, r0, #0
     a98:	00da0702 	sbcseq	r0, sl, r2, lsl #14
     a9c:	04020000 	streq	r0, [r2], #-0
     aa0:	00009107 	andeq	r9, r0, r7, lsl #2
     aa4:	07080200 	streq	r0, [r8, -r0, lsl #4]
     aa8:	00000087 	andeq	r0, r0, r7, lsl #1
     aac:	f7070402 			; <UNDEFINED> instruction: 0xf7070402
     ab0:	02000000 	andeq	r0, r0, #0
     ab4:	00a70801 	adceq	r0, r7, r1, lsl #16
     ab8:	4f040000 	svcmi	0x00040000
     abc:	05000000 	streq	r0, [r0, #-0]
     ac0:	0000004f 	andeq	r0, r0, pc, asr #32
     ac4:	00000080 	andeq	r0, r0, r0, lsl #1
     ac8:	00005d06 	andeq	r5, r0, r6, lsl #26
     acc:	07000200 	streq	r0, [r0, -r0, lsl #4]
     ad0:	39380228 	ldmdbcc	r8!, {r3, r5, r9}
     ad4:	000000e1 	andeq	r0, r0, r1, ror #1
     ad8:	00524308 	subseq	r4, r2, r8, lsl #6
     adc:	6b393902 	blvs	e4eeec <_start-0x869b1114>
     ae0:	00000000 	andeq	r0, r0, r0
     ae4:	00525008 	subseq	r5, r2, r8
     ae8:	6b393a02 	blvs	e4f2f8 <_start-0x869b0d08>
     aec:	04000000 	streq	r0, [r0], #-0
     af0:	00525308 	subseq	r5, r2, r8, lsl #6
     af4:	6b393b02 	blvs	e4f704 <_start-0x869b08fc>
     af8:	08000000 	stmdaeq	r0, {}	; <UNPREDICTABLE>
     afc:	00524908 	subseq	r4, r2, r8, lsl #18
     b00:	6b393c02 	blvs	e4fb10 <_start-0x869b04f0>
     b04:	0c000000 	stceq	0, cr0, [r0], {-0}
     b08:	52434f08 	subpl	r4, r3, #8, 30
     b0c:	393d0200 	ldmdbcc	sp!, {r9}
     b10:	000000e1 	andeq	r0, r0, r1, ror #1
     b14:	43490810 	movtmi	r0, #38928	; 0x9810
     b18:	3e020052 	mcrcc	0, 0, r0, cr2, cr2, {2}
     b1c:	0000f639 	andeq	pc, r0, r9, lsr r6	; <UNPREDICTABLE>
     b20:	43081c00 	movwmi	r1, #35840	; 0x8c00
     b24:	0200544e 	andeq	r5, r0, #1308622848	; 0x4e000000
     b28:	006b393f 	rsbeq	r3, fp, pc, lsr r9
     b2c:	00240000 	eoreq	r0, r4, r0
     b30:	00007004 	andeq	r7, r0, r4
     b34:	004f0500 	subeq	r0, pc, r0, lsl #10
     b38:	00f60000 	rscseq	r0, r6, r0
     b3c:	5d060000 	stcpl	0, cr0, [r6, #-0]
     b40:	01000000 	mrseq	r0, (UNDEF: 0)
     b44:	00e60400 	rsceq	r0, r6, r0, lsl #8
     b48:	0e090000 	cdpeq	0, 0, cr0, cr9, cr0, {0}
     b4c:	02000007 	andeq	r0, r0, #7
     b50:	00803940 	addeq	r3, r0, r0, asr #18
     b54:	e70a0000 	str	r0, [sl, -r0]
     b58:	01000006 	tsteq	r0, r6
     b5c:	80083409 	andhi	r3, r8, r9, lsl #8
     b60:	00001e87 	andeq	r1, r0, r7, lsl #29
     b64:	299c0100 	ldmibcs	ip, {r8}
     b68:	0b000001 	bleq	b74 <_start-0x877ff48c>
     b6c:	0901006e 	stmdbeq	r1, {r1, r2, r3, r5, r6}
     b70:	0000006b 	andeq	r0, r0, fp, rrx
     b74:	00749102 	rsbseq	r9, r4, r2, lsl #2
     b78:	0006f50c 	andeq	pc, r6, ip, lsl #10
     b7c:	54140100 	ldrpl	r0, [r4], #-256	; 0x100
     b80:	22878008 	addcs	r8, r7, #8
     b84:	01000000 	mrseq	r0, (UNDEF: 0)
     b88:	00014b9c 	muleq	r1, ip, fp
     b8c:	006e0b00 	rsbeq	r0, lr, r0, lsl #22
     b90:	006b1401 	rsbeq	r1, fp, r1, lsl #8
     b94:	91020000 	mrsls	r0, (UNDEF: 2)
     b98:	cb0d0074 	blgt	340d70 <_start-0x874bf290>
     b9c:	01000006 	tsteq	r0, r6
     ba0:	8008781d 	andhi	r7, r8, sp, lsl r8
     ba4:	0000c887 	andeq	ip, r0, r7, lsl #17
     ba8:	0a9c0100 	beq	fe700fb0 <__bss_end+0x76effa24>
     bac:	000006fb 	strdeq	r0, [r0], -fp
     bb0:	09404801 	stmdbeq	r0, {r0, fp, lr}^
     bb4:	006a8780 	rsbeq	r8, sl, r0, lsl #15
     bb8:	9c010000 	stcls	0, cr0, [r1], {-0}
     bbc:	000001aa 	andeq	r0, r0, sl, lsr #3
     bc0:	0006d60e 	andeq	sp, r6, lr, lsl #12
     bc4:	4f480100 	svcmi	0x00480100
     bc8:	02000000 	andeq	r0, r0, #0
     bcc:	c40f6491 	strgt	r6, [pc], #-1169	; bd4 <_start-0x877ff42c>
     bd0:	01000006 	tsteq	r0, r6
     bd4:	0001aa4a 	andeq	sl, r1, sl, asr #20
     bd8:	74910200 	ldrvc	r0, [r1], #512	; 0x200
     bdc:	0006bd0f 	andeq	fp, r6, pc, lsl #26
     be0:	aa4a0100 	bge	1280fe8 <_start-0x8657f018>
     be4:	02000001 	andeq	r0, r0, #1
     be8:	040f6c91 	streq	r6, [pc], #-3217	; bf0 <_start-0x877ff410>
     bec:	01000007 	tsteq	r0, r7
     bf0:	0001aa4b 	andeq	sl, r1, fp, asr #20
     bf4:	70910200 	addsvc	r0, r1, r0, lsl #4
     bf8:	07040200 	streq	r0, [r4, -r0, lsl #4]
     bfc:	0000008c 	andeq	r0, r0, ip, lsl #1
     c00:	0006de0c 	andeq	sp, r6, ip, lsl #28
     c04:	ac650100 	stfgee	f0, [r5], #-0
     c08:	2e878009 	cdpcs	0, 8, cr8, cr7, cr9, {0}
     c0c:	01000000 	mrseq	r0, (UNDEF: 0)
     c10:	0001e19c 	muleq	r1, ip, r1
     c14:	06f30e00 	ldrbteq	r0, [r3], r0, lsl #28
     c18:	65010000 	strvs	r0, [r1, #-0]
     c1c:	0000004f 	andeq	r0, r0, pc, asr #32
     c20:	106c9102 	rsbne	r9, ip, r2, lsl #2
     c24:	67010069 	strvs	r0, [r1, -r9, rrx]
     c28:	00000033 	andeq	r0, r0, r3, lsr r0
     c2c:	00749102 	rsbseq	r9, r4, r2, lsl #2
     c30:	00072d11 	andeq	r2, r7, r1, lsl sp
     c34:	dc6c0100 	stflee	f0, [ip], #-0
     c38:	2e878009 	cdpcs	0, 8, cr8, cr7, cr9, {0}
     c3c:	01000000 	mrseq	r0, (UNDEF: 0)
     c40:	06f40e9c 	usateq	r0, #20, ip, lsl #29
     c44:	6c010000 	stcvs	0, cr0, [r1], {-0}
     c48:	0000004f 	andeq	r0, r0, pc, asr #32
     c4c:	106c9102 	rsbne	r9, ip, r2, lsl #2
     c50:	6e010069 	cdpvs	0, 0, cr0, cr1, cr9, {3}
     c54:	00000033 	andeq	r0, r0, r3, lsr r0
     c58:	00749102 	rsbseq	r9, r4, r2, lsl #2
     c5c:	00106f00 	andseq	r6, r0, r0, lsl #30
     c60:	81000400 	tsthi	r0, r0, lsl #8
     c64:	04000003 	streq	r0, [r0], #-3
     c68:	00000e01 	andeq	r0, r0, r1, lsl #28
     c6c:	099d0100 	ldmibeq	sp, {r8}
     c70:	00b10000 	adcseq	r0, r1, r0
     c74:	0a0c0000 	beq	300c7c <_start-0x874ff384>
     c78:	00c88780 	sbceq	r8, r8, r0, lsl #15
     c7c:	023d0000 	eorseq	r0, sp, #0
     c80:	01020000 	mrseq	r0, (UNDEF: 2)
     c84:	0000a006 	andeq	sl, r0, r6
     c88:	05020200 	streq	r0, [r2, #-512]	; 0x200
     c8c:	000000ed 	andeq	r0, r0, sp, ror #1
     c90:	69050403 	stmdbvs	r5, {r0, r1, sl}
     c94:	0200746e 	andeq	r7, r0, #1845493760	; 0x6e000000
     c98:	00000508 	andeq	r0, r0, r8, lsl #10
     c9c:	01020000 	mrseq	r0, (UNDEF: 2)
     ca0:	00009e08 	andeq	r9, r0, r8, lsl #28
     ca4:	07020200 	streq	r0, [r2, -r0, lsl #4]
     ca8:	000000da 	ldrdeq	r0, [r0], -sl
     cac:	91070402 	tstls	r7, r2, lsl #8
     cb0:	02000000 	andeq	r0, r0, #0
     cb4:	00870708 	addeq	r0, r7, r8, lsl #14
     cb8:	04020000 	streq	r0, [r2], #-0
     cbc:	0000f707 	andeq	pc, r0, r7, lsl #14
     cc0:	08010200 	stmdaeq	r1, {r9}
     cc4:	000000a7 	andeq	r0, r0, r7, lsr #1
     cc8:	00004f04 	andeq	r4, r0, r4, lsl #30
     ccc:	02200500 	eoreq	r0, r0, #0, 10
     cd0:	00e134ac 	rsceq	r3, r1, ip, lsr #9
     cd4:	44060000 	strmi	r0, [r6], #-0
     cd8:	ad020052 	stcge	0, cr0, [r2, #-328]	; 0xfffffeb8
     cdc:	00006b34 	andeq	r6, r0, r4, lsr fp
     ce0:	5e070000 	cdppl	0, 0, cr0, cr7, cr0, {0}
     ce4:	02000001 	andeq	r0, r0, #1
     ce8:	006b34ae 	rsbeq	r3, fp, lr, lsr #9
     cec:	06040000 	streq	r0, [r4], -r0
     cf0:	00525350 	subseq	r5, r2, r0, asr r3
     cf4:	6b34af02 	blvs	d2c904 <_start-0x86ad36fc>
     cf8:	08000000 	stmdaeq	r0, {}	; <UNPREDICTABLE>
     cfc:	00024c07 	andeq	r4, r2, r7, lsl #24
     d00:	34b00200 	ldrtcc	r0, [r0], #512	; 0x200
     d04:	0000006b 	andeq	r0, r0, fp, rrx
     d08:	0251070c 	subseq	r0, r1, #12, 14	; 0x300000
     d0c:	b1020000 	mrslt	r0, (UNDEF: 2)
     d10:	00006b34 	andeq	r6, r0, r4, lsr fp
     d14:	49061000 	stmdbmi	r6, {ip}
     d18:	0200524d 	andeq	r5, r0, #-805306364	; 0xd0000004
     d1c:	006b34b2 	strhteq	r3, [fp], #-66	; 0xffffffbe
     d20:	06140000 	ldreq	r0, [r4], -r0
     d24:	00525349 	subseq	r5, r2, r9, asr #6
     d28:	6b34b302 	blvs	d2d938 <_start-0x86ad26c8>
     d2c:	18000000 	stmdane	r0, {}	; <UNPREDICTABLE>
     d30:	00024307 	andeq	r4, r2, r7, lsl #6
     d34:	34b40200 	ldrtcc	r0, [r4], #512	; 0x200
     d38:	0000006b 	andeq	r0, r0, fp, rrx
     d3c:	d908001c 	stmdble	r8, {r2, r3, r4}
     d40:	02000001 	andeq	r0, r0, #1
     d44:	007034b5 	ldrhteq	r3, [r0], #-69	; 0xffffffbb
     d48:	c0090000 	andgt	r0, r9, r0
     d4c:	67180301 	ldrvs	r0, [r8, -r1, lsl #6]
     d50:	0a000006 	beq	d70 <_start-0x877ff290>
     d54:	00000e99 	muleq	r0, r9, lr
     d58:	006b1a03 	rsbeq	r1, fp, r3, lsl #20
     d5c:	0a000000 	beq	d64 <_start-0x877ff29c>
     d60:	00000ee6 	andeq	r0, r0, r6, ror #29
     d64:	006b1b03 	rsbeq	r1, fp, r3, lsl #22
     d68:	0a040000 	beq	100d70 <_start-0x876ff290>
     d6c:	00000a51 	andeq	r0, r0, r1, asr sl
     d70:	006b1c03 	rsbeq	r1, fp, r3, lsl #24
     d74:	0a080000 	beq	200d7c <_start-0x875ff284>
     d78:	000008c6 	andeq	r0, r0, r6, asr #17
     d7c:	006b1d03 	rsbeq	r1, fp, r3, lsl #26
     d80:	0a0c0000 	beq	300d88 <_start-0x874ff278>
     d84:	00000f5f 	andeq	r0, r0, pc, asr pc
     d88:	006b1e03 	rsbeq	r1, fp, r3, lsl #28
     d8c:	0a100000 	beq	400d94 <_start-0x873ff26c>
     d90:	000008cf 	andeq	r0, r0, pc, asr #17
     d94:	006b1f03 	rsbeq	r1, fp, r3, lsl #30
     d98:	0a140000 	beq	500da0 <_start-0x872ff260>
     d9c:	00000f71 	andeq	r0, r0, r1, ror pc
     da0:	006b2003 	rsbeq	r2, fp, r3
     da4:	0a180000 	beq	600dac <_start-0x871ff254>
     da8:	00000735 	andeq	r0, r0, r5, lsr r7
     dac:	006b2103 	rsbeq	r2, fp, r3, lsl #2
     db0:	0a1c0000 	beq	700db8 <_start-0x870ff248>
     db4:	00000740 	andeq	r0, r0, r0, asr #14
     db8:	006b2203 	rsbeq	r2, fp, r3, lsl #4
     dbc:	0a200000 	beq	800dc4 <_start-0x86fff23c>
     dc0:	0000074b 	andeq	r0, r0, fp, asr #14
     dc4:	006b2303 	rsbeq	r2, fp, r3, lsl #6
     dc8:	0a240000 	beq	900dd0 <_start-0x86eff230>
     dcc:	00000756 	andeq	r0, r0, r6, asr r7
     dd0:	006b2403 	rsbeq	r2, fp, r3, lsl #8
     dd4:	0a280000 	beq	a00ddc <_start-0x86dff224>
     dd8:	00000761 	andeq	r0, r0, r1, ror #14
     ddc:	006b2503 	rsbeq	r2, fp, r3, lsl #10
     de0:	0a2c0000 	beq	b00de8 <_start-0x86cff218>
     de4:	000009b7 			; <UNDEFINED> instruction: 0x000009b7
     de8:	006b2603 	rsbeq	r2, fp, r3, lsl #12
     dec:	0a300000 	beq	c00df4 <_start-0x86bff20c>
     df0:	00000778 	andeq	r0, r0, r8, ror r7
     df4:	006b2703 	rsbeq	r2, fp, r3, lsl #14
     df8:	0a340000 	beq	d00e00 <_start-0x86aff200>
     dfc:	00000783 	andeq	r0, r0, r3, lsl #15
     e00:	006b2803 	rsbeq	r2, fp, r3, lsl #16
     e04:	0a380000 	beq	e00e0c <_start-0x869ff1f4>
     e08:	0000078e 	andeq	r0, r0, lr, lsl #15
     e0c:	006b2903 	rsbeq	r2, fp, r3, lsl #18
     e10:	0a3c0000 	beq	f00e18 <_start-0x868ff1e8>
     e14:	00000e2e 	andeq	r0, r0, lr, lsr #28
     e18:	006b2a03 	rsbeq	r2, fp, r3, lsl #20
     e1c:	0a400000 	beq	1000e24 <_start-0x867ff1dc>
     e20:	00000e0b 	andeq	r0, r0, fp, lsl #28
     e24:	006b2b03 	rsbeq	r2, fp, r3, lsl #22
     e28:	0a440000 	beq	1100e30 <_start-0x866ff1d0>
     e2c:	00000a99 	muleq	r0, r9, sl
     e30:	006b2c03 	rsbeq	r2, fp, r3, lsl #24
     e34:	0a480000 	beq	1200e3c <_start-0x865ff1c4>
     e38:	00000bdd 	ldrdeq	r0, [r0], -sp
     e3c:	006b2d03 	rsbeq	r2, fp, r3, lsl #26
     e40:	0a4c0000 	beq	1300e48 <_start-0x864ff1b8>
     e44:	00000efa 	strdeq	r0, [r0], -sl
     e48:	006b2e03 	rsbeq	r2, fp, r3, lsl #28
     e4c:	0a500000 	beq	1400e54 <_start-0x863ff1ac>
     e50:	00000ecd 	andeq	r0, r0, sp, asr #29
     e54:	006b2f03 	rsbeq	r2, fp, r3, lsl #30
     e58:	0a540000 	beq	1500e60 <_start-0x862ff1a0>
     e5c:	00000cff 	strdeq	r0, [r0], -pc	; <UNPREDICTABLE>
     e60:	006b3003 	rsbeq	r3, fp, r3
     e64:	0a580000 	beq	1600e6c <_start-0x861ff194>
     e68:	0000076c 	andeq	r0, r0, ip, ror #14
     e6c:	006b3103 	rsbeq	r3, fp, r3, lsl #2
     e70:	0a5c0000 	beq	1700e78 <_start-0x860ff188>
     e74:	0000081e 	andeq	r0, r0, lr, lsl r8
     e78:	006b3203 	rsbeq	r3, fp, r3, lsl #4
     e7c:	0a600000 	beq	1800e84 <_start-0x85fff17c>
     e80:	00000ea2 	andeq	r0, r0, r2, lsr #29
     e84:	006b3303 	rsbeq	r3, fp, r3, lsl #6
     e88:	0a640000 	beq	1900e90 <_start-0x85eff170>
     e8c:	0000082c 	andeq	r0, r0, ip, lsr #16
     e90:	006b3403 	rsbeq	r3, fp, r3, lsl #8
     e94:	0a680000 	beq	1a00e9c <_start-0x85dff164>
     e98:	00000bfd 	strdeq	r0, [r0], -sp
     e9c:	006b3503 	rsbeq	r3, fp, r3, lsl #10
     ea0:	0a6c0000 	beq	1b00ea8 <_start-0x85cff158>
     ea4:	00000952 	andeq	r0, r0, r2, asr r9
     ea8:	006b3603 	rsbeq	r3, fp, r3, lsl #12
     eac:	0a700000 	beq	1c00eb4 <_start-0x85bff14c>
     eb0:	00000859 	andeq	r0, r0, r9, asr r8
     eb4:	006b3703 	rsbeq	r3, fp, r3, lsl #14
     eb8:	0a740000 	beq	1d00ec0 <_start-0x85aff140>
     ebc:	00000ad3 	ldrdeq	r0, [r0], -r3
     ec0:	006b3803 	rsbeq	r3, fp, r3, lsl #16
     ec4:	0a780000 	beq	1e00ecc <_start-0x859ff134>
     ec8:	00000908 	andeq	r0, r0, r8, lsl #18
     ecc:	006b3903 	rsbeq	r3, fp, r3, lsl #18
     ed0:	0a7c0000 	beq	1f00ed8 <_start-0x858ff128>
     ed4:	00000889 	andeq	r0, r0, r9, lsl #17
     ed8:	006b3a03 	rsbeq	r3, fp, r3, lsl #20
     edc:	0a800000 	beq	fe000ee4 <__bss_end+0x767ff958>
     ee0:	00000ae1 	andeq	r0, r0, r1, ror #21
     ee4:	006b3b03 	rsbeq	r3, fp, r3, lsl #22
     ee8:	0a840000 	beq	fe100ef0 <__bss_end+0x768ff964>
     eec:	00000d3c 	andeq	r0, r0, ip, lsr sp
     ef0:	006b3c03 	rsbeq	r3, fp, r3, lsl #24
     ef4:	0a880000 	beq	fe200efc <__bss_end+0x769ff970>
     ef8:	00000e5a 	andeq	r0, r0, sl, asr lr
     efc:	006b3d03 	rsbeq	r3, fp, r3, lsl #26
     f00:	0a8c0000 	beq	fe300f08 <__bss_end+0x76aff97c>
     f04:	00000e69 	andeq	r0, r0, r9, ror #28
     f08:	006b3e03 	rsbeq	r3, fp, r3, lsl #28
     f0c:	0a900000 	beq	fe400f14 <__bss_end+0x76bff988>
     f10:	00000e78 	andeq	r0, r0, r8, ror lr
     f14:	006b3f03 	rsbeq	r3, fp, r3, lsl #30
     f18:	0a940000 	beq	fe500f20 <__bss_end+0x76cff994>
     f1c:	00000b80 	andeq	r0, r0, r0, lsl #23
     f20:	006b4003 	rsbeq	r4, fp, r3
     f24:	0a980000 	beq	fe600f2c <__bss_end+0x76dff9a0>
     f28:	00000d48 	andeq	r0, r0, r8, asr #26
     f2c:	006b4103 	rsbeq	r4, fp, r3, lsl #2
     f30:	0a9c0000 	beq	fe700f38 <__bss_end+0x76eff9ac>
     f34:	000008a0 	andeq	r0, r0, r0, lsr #17
     f38:	006b4203 	rsbeq	r4, fp, r3, lsl #4
     f3c:	0aa00000 	beq	fe800f44 <__bss_end+0x76fff9b8>
     f40:	000008af 	andeq	r0, r0, pc, lsr #17
     f44:	006b4303 	rsbeq	r4, fp, r3, lsl #6
     f48:	0aa40000 	beq	fe900f50 <__bss_end+0x770ff9c4>
     f4c:	00000867 	andeq	r0, r0, r7, ror #16
     f50:	006b4403 	rsbeq	r4, fp, r3, lsl #8
     f54:	0aa80000 	beq	fea00f5c <__bss_end+0x771ff9d0>
     f58:	00000c6f 	andeq	r0, r0, pc, ror #24
     f5c:	006b4503 	rsbeq	r4, fp, r3, lsl #10
     f60:	0aac0000 	beq	feb00f68 <__bss_end+0x772ff9dc>
     f64:	00000c7e 	andeq	r0, r0, lr, ror ip
     f68:	006b4603 	rsbeq	r4, fp, r3, lsl #12
     f6c:	0ab00000 	beq	fec00f74 <__bss_end+0x773ff9e8>
     f70:	00000ac7 	andeq	r0, r0, r7, asr #21
     f74:	006b4703 	rsbeq	r4, fp, r3, lsl #14
     f78:	0ab40000 	beq	fed00f80 <__bss_end+0x774ff9f4>
     f7c:	00000e3c 	andeq	r0, r0, ip, lsr lr
     f80:	006b4803 	rsbeq	r4, fp, r3, lsl #16
     f84:	0ab80000 	beq	fee00f8c <__bss_end+0x775ffa00>
     f88:	00000873 	andeq	r0, r0, r3, ror r8
     f8c:	006b4903 	rsbeq	r4, fp, r3, lsl #18
     f90:	0abc0000 	beq	fef00f98 <__bss_end+0x776ffa0c>
     f94:	000009af 	andeq	r0, r0, pc, lsr #19
     f98:	006b4a03 	rsbeq	r4, fp, r3, lsl #20
     f9c:	0ac00000 	beq	ff000fa4 <__bss_end+0x777ffa18>
     fa0:	00000a5a 	andeq	r0, r0, sl, asr sl
     fa4:	006b4b03 	rsbeq	r4, fp, r3, lsl #22
     fa8:	0ac40000 	beq	ff100fb0 <__bss_end+0x778ffa24>
     fac:	00000d66 	andeq	r0, r0, r6, ror #26
     fb0:	006b4c03 	rsbeq	r4, fp, r3, lsl #24
     fb4:	0ac80000 	beq	ff200fbc <__bss_end+0x779ffa30>
     fb8:	00000e19 	andeq	r0, r0, r9, lsl lr
     fbc:	006b4d03 	rsbeq	r4, fp, r3, lsl #26
     fc0:	0acc0000 	beq	ff300fc8 <__bss_end+0x77affa3c>
     fc4:	00000afd 	strdeq	r0, [r0], -sp
     fc8:	006b4e03 	rsbeq	r4, fp, r3, lsl #28
     fcc:	0ad00000 	beq	ff400fd4 <__bss_end+0x77bffa48>
     fd0:	00000b07 	andeq	r0, r0, r7, lsl #22
     fd4:	006b4f03 	rsbeq	r4, fp, r3, lsl #30
     fd8:	0ad40000 	beq	ff500fe0 <__bss_end+0x77cffa54>
     fdc:	00000b12 	andeq	r0, r0, r2, lsl fp
     fe0:	006b5003 	rsbeq	r5, fp, r3
     fe4:	0ad80000 	beq	ff600fec <__bss_end+0x77dffa60>
     fe8:	00000e23 	andeq	r0, r0, r3, lsr #28
     fec:	006b5103 	rsbeq	r5, fp, r3, lsl #2
     ff0:	0adc0000 	beq	ff700ff8 <__bss_end+0x77effa6c>
     ff4:	00000b29 	andeq	r0, r0, r9, lsr #22
     ff8:	006b5203 	rsbeq	r5, fp, r3, lsl #4
     ffc:	0ae00000 	beq	ff801004 <__bss_end+0x77fffa78>
    1000:	00000b34 	andeq	r0, r0, r4, lsr fp
    1004:	006b5303 	rsbeq	r5, fp, r3, lsl #6
    1008:	0ae40000 	beq	ff901010 <__bss_end+0x780ffa84>
    100c:	00000b3f 	andeq	r0, r0, pc, lsr fp
    1010:	006b5403 	rsbeq	r5, fp, r3, lsl #8
    1014:	0ae80000 	beq	ffa0101c <__bss_end+0x781ffa90>
    1018:	00000b4a 	andeq	r0, r0, sl, asr #22
    101c:	006b5503 	rsbeq	r5, fp, r3, lsl #10
    1020:	0aec0000 	beq	ffb01028 <__bss_end+0x782ffa9c>
    1024:	00000b55 	andeq	r0, r0, r5, asr fp
    1028:	006b5603 	rsbeq	r5, fp, r3, lsl #12
    102c:	0af00000 	beq	ffc01034 <__bss_end+0x783ffaa8>
    1030:	00000b60 	andeq	r0, r0, r0, ror #22
    1034:	006b5703 	rsbeq	r5, fp, r3, lsl #14
    1038:	0af40000 	beq	ffd01040 <__bss_end+0x784ffab4>
    103c:	00000b6b 	andeq	r0, r0, fp, ror #22
    1040:	006b5803 	rsbeq	r5, fp, r3, lsl #16
    1044:	0af80000 	beq	ffe0104c <__bss_end+0x785ffac0>
    1048:	00000c64 	andeq	r0, r0, r4, ror #24
    104c:	006b5903 	rsbeq	r5, fp, r3, lsl #18
    1050:	0bfc0000 	bleq	fff01058 <__bss_end+0x786ffacc>
    1054:	00000799 	muleq	r0, r9, r7
    1058:	006b5a03 	rsbeq	r5, fp, r3, lsl #20
    105c:	01000000 	mrseq	r0, (UNDEF: 0)
    1060:	0007a40b 	andeq	sl, r7, fp, lsl #8
    1064:	6b5b0300 	blvs	16c1c6c <_start-0x8613e394>
    1068:	04000000 	streq	r0, [r0], #-0
    106c:	0c8d0b01 	fstmiaxeq	sp, {d0-d-1}	;@ Deprecated
    1070:	5c030000 	stcpl	0, cr0, [r3], {-0}
    1074:	0000006b 	andeq	r0, r0, fp, rrx
    1078:	af0b0108 	svcge	0x000b0108
    107c:	03000007 	movweq	r0, #7
    1080:	00006b5d 	andeq	r6, r0, sp, asr fp
    1084:	0b010c00 	bleq	4408c <_start-0x877bbf74>
    1088:	00000c98 	muleq	r0, r8, ip
    108c:	006b5e03 	rsbeq	r5, fp, r3, lsl #28
    1090:	01100000 	tsteq	r0, r0
    1094:	0007c20b 	andeq	ip, r7, fp, lsl #4
    1098:	6b5f0300 	blvs	17c1ca0 <_start-0x8603e360>
    109c:	14000000 	strne	r0, [r0], #-0
    10a0:	07cd0b01 	strbeq	r0, [sp, r1, lsl #22]
    10a4:	60030000 	andvs	r0, r3, r0
    10a8:	0000006b 	andeq	r0, r0, fp, rrx
    10ac:	d80b0118 	stmdale	fp, {r3, r4, r8}
    10b0:	03000007 	movweq	r0, #7
    10b4:	00006b61 	andeq	r6, r0, r1, ror #22
    10b8:	0b011c00 	bleq	480c0 <_start-0x877b7f40>
    10bc:	000007ef 	andeq	r0, r0, pc, ror #15
    10c0:	006b6203 	rsbeq	r6, fp, r3, lsl #4
    10c4:	01200000 	teqeq	r0, r0
    10c8:	000d870b 	andeq	r8, sp, fp, lsl #14
    10cc:	6b630300 	blvs	18c1cd4 <_start-0x85f3e32c>
    10d0:	24000000 	strcs	r0, [r0], #-0
    10d4:	0d920b01 	vldreq	d0, [r2, #4]
    10d8:	64030000 	strvs	r0, [r3], #-0
    10dc:	0000006b 	andeq	r0, r0, fp, rrx
    10e0:	9d0b0128 	stflss	f0, [fp, #-160]	; 0xffffff60
    10e4:	0300000d 	movweq	r0, #13
    10e8:	00006b65 	andeq	r6, r0, r5, ror #22
    10ec:	0b012c00 	bleq	4c0f4 <_start-0x877b3f0c>
    10f0:	00000da8 	andeq	r0, r0, r8, lsr #27
    10f4:	006b6603 	rsbeq	r6, fp, r3, lsl #12
    10f8:	01300000 	teqeq	r0, r0
    10fc:	000d150b 	andeq	r1, sp, fp, lsl #10
    1100:	6b670300 	blvs	19c1d08 <_start-0x85e3e2f8>
    1104:	34000000 	strcc	r0, [r0], #-0
    1108:	0e840b01 	vdiveq.f64	d0, d4, d1
    110c:	68030000 	stmdavs	r3, {}	; <UNPREDICTABLE>
    1110:	0000006b 	andeq	r0, r0, fp, rrx
    1114:	f10b0138 			; <UNDEFINED> instruction: 0xf10b0138
    1118:	03000009 	movweq	r0, #9
    111c:	00006b69 	andeq	r6, r0, r9, ror #22
    1120:	0b013c00 	bleq	50128 <_start-0x877afed8>
    1124:	000009fd 	strdeq	r0, [r0], -sp
    1128:	006b6a03 	rsbeq	r6, fp, r3, lsl #20
    112c:	01400000 	mrseq	r0, (UNDEF: 64)
    1130:	000a090b 	andeq	r0, sl, fp, lsl #18
    1134:	6b6b0300 	blvs	1ac1d3c <_start-0x85d3e2c4>
    1138:	44000000 	strmi	r0, [r0], #-0
    113c:	0a150b01 	beq	543d48 <_start-0x872bc2b8>
    1140:	6c030000 	stcvs	0, cr0, [r3], {-0}
    1144:	0000006b 	andeq	r0, r0, fp, rrx
    1148:	210b0148 	tstcs	fp, r8, asr #2
    114c:	0300000a 	movweq	r0, #10
    1150:	00006b6d 	andeq	r6, r0, sp, ror #22
    1154:	0b014c00 	bleq	5415c <_start-0x877abea4>
    1158:	00000a2d 	andeq	r0, r0, sp, lsr #20
    115c:	006b6e03 	rsbeq	r6, fp, r3, lsl #28
    1160:	01500000 	cmpeq	r0, r0
    1164:	0008120b 	andeq	r1, r8, fp, lsl #4
    1168:	6b6f0300 	blvs	1bc1d70 <_start-0x85c3e290>
    116c:	54000000 	strpl	r0, [r0], #-0
    1170:	0a450b01 	beq	1143d7c <_start-0x866bc284>
    1174:	70030000 	andvc	r0, r3, r0
    1178:	0000006b 	andeq	r0, r0, fp, rrx
    117c:	dd0b0158 	stfles	f0, [fp, #-352]	; 0xfffffea0
    1180:	03000009 	movweq	r0, #9
    1184:	00006b71 	andeq	r6, r0, r1, ror fp
    1188:	0b015c00 	bleq	58190 <_start-0x877a7e70>
    118c:	000008f4 	strdeq	r0, [r0], -r4
    1190:	006b7203 	rsbeq	r7, fp, r3, lsl #4
    1194:	01600000 	cmneq	r0, r0
    1198:	000d700b 	andeq	r7, sp, fp
    119c:	6b730300 	blvs	1cc1da4 <_start-0x85b3e25c>
    11a0:	64000000 	strvs	r0, [r0], #-0
    11a4:	0bf20b01 	bleq	ffc83db0 <__bss_end+0x78482824>
    11a8:	74030000 	strvc	r0, [r3], #-0
    11ac:	0000006b 	andeq	r0, r0, fp, rrx
    11b0:	ef0b0168 	svc	0x000b0168
    11b4:	0300000e 	movweq	r0, #14
    11b8:	00006b75 	andeq	r6, r0, r5, ror fp
    11bc:	0b016c00 	bleq	5c1c4 <_start-0x877a3e3c>
    11c0:	00000ec4 	andeq	r0, r0, r4, asr #29
    11c4:	006b7603 	rsbeq	r7, fp, r3, lsl #12
    11c8:	01700000 	cmneq	r0, r0
    11cc:	000be90b 	andeq	lr, fp, fp, lsl #18
    11d0:	6b770300 	blvs	1dc1dd8 <_start-0x85a3e228>
    11d4:	74000000 	strvc	r0, [r0], #-0
    11d8:	08be0b01 	ldmeq	lr!, {r0, r8, r9, fp}
    11dc:	78030000 	stmdavc	r3, {}	; <UNPREDICTABLE>
    11e0:	0000006b 	andeq	r0, r0, fp, rrx
    11e4:	ba0b0178 	blt	2c17cc <_start-0x8753e834>
    11e8:	03000007 	movweq	r0, #7
    11ec:	00006b79 	andeq	r6, r0, r9, ror fp
    11f0:	0b017c00 	bleq	601f8 <_start-0x8779fe08>
    11f4:	00000d0b 	andeq	r0, r0, fp, lsl #26
    11f8:	006b7a03 	rsbeq	r7, fp, r3, lsl #20
    11fc:	01800000 	orreq	r0, r0, r0
    1200:	000f130b 	andeq	r1, pc, fp, lsl #6
    1204:	6b7b0300 	blvs	1ec1e0c <_start-0x8593e1f4>
    1208:	84000000 	strhi	r0, [r0], #-0
    120c:	0f1d0b01 	svceq	0x001d0b01
    1210:	7c030000 	stcvc	0, cr0, [r3], {-0}
    1214:	0000006b 	andeq	r0, r0, fp, rrx
    1218:	270b0188 	strcs	r0, [fp, -r8, lsl #3]
    121c:	0300000f 	movweq	r0, #15
    1220:	00006b7d 	andeq	r6, r0, sp, ror fp
    1224:	0b018c00 	bleq	6422c <_start-0x8779bdd4>
    1228:	00000ccf 	andeq	r0, r0, pc, asr #25
    122c:	006b7e03 	rsbeq	r7, fp, r3, lsl #28
    1230:	01900000 	orrseq	r0, r0, r0
    1234:	0008db0b 	andeq	sp, r8, fp, lsl #22
    1238:	6b7f0300 	blvs	1fc1e40 <_start-0x8583e1c0>
    123c:	94000000 	strls	r0, [r0], #-0
    1240:	0b760b01 	bleq	1d83e4c <_start-0x85a7c1b4>
    1244:	80030000 	andhi	r0, r3, r0
    1248:	0000006b 	andeq	r0, r0, fp, rrx
    124c:	310b0198 			; <UNDEFINED> instruction: 0x310b0198
    1250:	0300000f 	movweq	r0, #15
    1254:	00006b81 	andeq	r6, r0, r1, lsl #23
    1258:	0b019c00 	bleq	68260 <_start-0x87797da0>
    125c:	00000ca3 	andeq	r0, r0, r3, lsr #25
    1260:	006b8203 	rsbeq	r8, fp, r3, lsl #4
    1264:	01a00000 	moveq	r0, r0
    1268:	000cae0b 	andeq	sl, ip, fp, lsl #28
    126c:	6b830300 	blvs	fe0c1e74 <__bss_end+0x768c08e8>
    1270:	a4000000 	strge	r0, [r0], #-0
    1274:	0cb90b01 	fldmiaxeq	r9!, {d0-d-1}	;@ Deprecated
    1278:	84030000 	strhi	r0, [r3], #-0
    127c:	0000006b 	andeq	r0, r0, fp, rrx
    1280:	c40b01a8 	strgt	r0, [fp], #-424	; 0x1a8
    1284:	0300000c 	movweq	r0, #12
    1288:	00006b85 	andeq	r6, r0, r5, lsl #23
    128c:	0b01ac00 	bleq	6c294 <_start-0x87793d6c>
    1290:	00000e8e 	andeq	r0, r0, lr, lsl #29
    1294:	006b8603 	rsbeq	r8, fp, r3, lsl #12
    1298:	01b00000 	movseq	r0, r0
    129c:	000cd80b 	andeq	sp, ip, fp, lsl #16
    12a0:	6b870300 	blvs	fe1c1ea8 <__bss_end+0x769c091c>
    12a4:	b4000000 	strlt	r0, [r0], #-0
    12a8:	0ce30b01 	fstmiaxeq	r3!, {d16-d15}	;@ Deprecated
    12ac:	88030000 	stmdahi	r3, {}	; <UNPREDICTABLE>
    12b0:	0000006b 	andeq	r0, r0, fp, rrx
    12b4:	ee0b01b8 	mcr	1, 0, r0, cr11, cr8, {5}
    12b8:	0300000c 	movweq	r0, #12
    12bc:	00006b89 	andeq	r6, r0, r9, lsl #23
    12c0:	0001bc00 	andeq	fp, r1, r0, lsl #24
    12c4:	000bcb0c 	andeq	ip, fp, ip, lsl #22
    12c8:	ed8a0300 	stc	3, cr0, [sl]
    12cc:	09000000 	stmdbeq	r0, {}	; <UNPREDICTABLE>
    12d0:	8c0302b4 	sfmhi	f0, 4, [r3], {180}	; 0xb4
    12d4:	00000f40 	andeq	r0, r0, r0, asr #30
    12d8:	0009160a 	andeq	r1, r9, sl, lsl #12
    12dc:	6b8e0300 	blvs	fe381ee4 <__bss_end+0x76b80958>
    12e0:	00000000 	andeq	r0, r0, r0
    12e4:	0009220a 	andeq	r2, r9, sl, lsl #4
    12e8:	6b8f0300 	blvs	fe3c1ef0 <__bss_end+0x76bc0964>
    12ec:	04000000 	streq	r0, [r0], #-0
    12f0:	00092e0a 	andeq	r2, r9, sl, lsl #28
    12f4:	6b900300 	blvs	fe401efc <__bss_end+0x76c00970>
    12f8:	08000000 	stmdaeq	r0, {}	; <UNPREDICTABLE>
    12fc:	00093a0a 	andeq	r3, r9, sl, lsl #20
    1300:	6b910300 	blvs	fe441f08 <__bss_end+0x76c4097c>
    1304:	0c000000 	stceq	0, cr0, [r0], {-0}
    1308:	0009460a 	andeq	r4, r9, sl, lsl #12
    130c:	6b920300 	blvs	fe481f14 <__bss_end+0x76c80988>
    1310:	10000000 	andne	r0, r0, r0
    1314:	000a390a 	andeq	r3, sl, sl, lsl #18
    1318:	6b930300 	blvs	fe4c1f20 <__bss_end+0x76cc0994>
    131c:	14000000 	strne	r0, [r0], #-0
    1320:	0009600a 	andeq	r6, r9, sl
    1324:	6b940300 	blvs	fe501f2c <__bss_end+0x76d009a0>
    1328:	18000000 	stmdane	r0, {}	; <UNPREDICTABLE>
    132c:	00096c0a 	andeq	r6, r9, sl, lsl #24
    1330:	6b950300 	blvs	fe541f38 <__bss_end+0x76d409ac>
    1334:	1c000000 	stcne	0, cr0, [r0], {-0}
    1338:	0009780a 	andeq	r7, r9, sl, lsl #16
    133c:	6b960300 	blvs	fe581f44 <__bss_end+0x76d809b8>
    1340:	20000000 	andcs	r0, r0, r0
    1344:	0009840a 	andeq	r8, r9, sl, lsl #8
    1348:	6b970300 	blvs	fe5c1f50 <__bss_end+0x76dc09c4>
    134c:	24000000 	strcs	r0, [r0], #-0
    1350:	000a750a 	andeq	r7, sl, sl, lsl #10
    1354:	6b980300 	blvs	fe601f5c <__bss_end+0x76e009d0>
    1358:	28000000 	stmdacs	r0, {}	; <UNPREDICTABLE>
    135c:	000a810a 	andeq	r8, sl, sl, lsl #2
    1360:	6b990300 	blvs	fe641f68 <__bss_end+0x76e409dc>
    1364:	2c000000 	stccs	0, cr0, [r0], {-0}
    1368:	000a8d0a 	andeq	r8, sl, sl, lsl #26
    136c:	6b9a0300 	blvs	fe681f74 <__bss_end+0x76e809e8>
    1370:	30000000 	andcc	r0, r0, r0
    1374:	0007e30a 	andeq	lr, r7, sl, lsl #6
    1378:	6b9b0300 	blvs	fe6c1f80 <__bss_end+0x76ec09f4>
    137c:	34000000 	strcc	r0, [r0], #-0
    1380:	000aa50a 	andeq	sl, sl, sl, lsl #10
    1384:	6b9c0300 	blvs	fe701f8c <__bss_end+0x76f00a00>
    1388:	38000000 	stmdacc	r0, {}	; <UNPREDICTABLE>
    138c:	000ab10a 	andeq	fp, sl, sl, lsl #2
    1390:	6b9d0300 	blvs	fe741f98 <__bss_end+0x76f40a0c>
    1394:	3c000000 	stccc	0, cr0, [r0], {-0}
    1398:	000e010a 	andeq	r0, lr, sl, lsl #2
    139c:	6b9e0300 	blvs	fe781fa4 <__bss_end+0x76f80a18>
    13a0:	40000000 	andmi	r0, r0, r0
    13a4:	000d7d0a 	andeq	r7, sp, sl, lsl #26
    13a8:	6b9f0300 	blvs	fe7c1fb0 <__bss_end+0x76fc0a24>
    13ac:	44000000 	strmi	r0, [r0], #-0
    13b0:	000dd90a 	andeq	sp, sp, sl, lsl #18
    13b4:	6ba00300 	blvs	fe801fbc <__bss_end+0x77000a30>
    13b8:	48000000 	stmdami	r0, {}	; <UNPREDICTABLE>
    13bc:	0009e60a 	andeq	lr, r9, sl, lsl #12
    13c0:	6ba10300 	blvs	fe841fc8 <__bss_end+0x77040a3c>
    13c4:	4c000000 	stcmi	0, cr0, [r0], {-0}
    13c8:	000d540a 	andeq	r5, sp, sl, lsl #8
    13cc:	6ba20300 	blvs	fe881fd4 <__bss_end+0x77080a48>
    13d0:	50000000 	andpl	r0, r0, r0
    13d4:	000b8d0a 	andeq	r8, fp, sl, lsl #26
    13d8:	6ba30300 	blvs	fe8c1fe0 <__bss_end+0x770c0a54>
    13dc:	54000000 	strpl	r0, [r0], #-0
    13e0:	000b1d0a 	andeq	r1, fp, sl, lsl #26
    13e4:	6ba40300 	blvs	fe901fec <__bss_end+0x77100a60>
    13e8:	58000000 	stmdapl	r0, {}	; <UNPREDICTABLE>
    13ec:	000ded0a 	andeq	lr, sp, sl, lsl #26
    13f0:	6ba50300 	blvs	fe941ff8 <__bss_end+0x77140a6c>
    13f4:	5c000000 	stcpl	0, cr0, [r0], {-0}
    13f8:	000df70a 	andeq	pc, sp, sl, lsl #14
    13fc:	6ba60300 	blvs	fe982004 <__bss_end+0x77180a78>
    1400:	60000000 	andvs	r0, r0, r0
    1404:	0008380a 	andeq	r3, r8, sl, lsl #16
    1408:	6ba70300 	blvs	fe9c2010 <__bss_end+0x771c0a84>
    140c:	64000000 	strvs	r0, [r0], #-0
    1410:	0008430a 	andeq	r4, r8, sl, lsl #6
    1414:	6ba80300 	blvs	fea0201c <__bss_end+0x77200a90>
    1418:	68000000 	stmdavs	r0, {}	; <UNPREDICTABLE>
    141c:	00084e0a 	andeq	r4, r8, sl, lsl #28
    1420:	6ba90300 	blvs	fea42028 <__bss_end+0x77240a9c>
    1424:	6c000000 	stcvs	0, cr0, [r0], {-0}
    1428:	0007fa0a 	andeq	pc, r7, sl, lsl #20
    142c:	6baa0300 	blvs	fea82034 <__bss_end+0x77280aa8>
    1430:	70000000 	andvc	r0, r0, r0
    1434:	0008060a 	andeq	r0, r8, sl, lsl #12
    1438:	6bab0300 	blvs	feac2040 <__bss_end+0x772c0ab4>
    143c:	74000000 	strvc	r0, [r0], #-0
    1440:	0008e60a 	andeq	lr, r8, sl, lsl #12
    1444:	6bac0300 	blvs	feb0204c <__bss_end+0x77300ac0>
    1448:	78000000 	stmdavc	r0, {}	; <UNPREDICTABLE>
    144c:	000dcc0a 	andeq	ip, sp, sl, lsl #24
    1450:	6bad0300 	blvs	feb42058 <__bss_end+0x77340acc>
    1454:	7c000000 	stcvc	0, cr0, [r0], {-0}
    1458:	000af00a 	andeq	pc, sl, sl
    145c:	6bae0300 	blvs	feb82064 <__bss_end+0x77380ad8>
    1460:	80000000 	andhi	r0, r0, r0
    1464:	000eb00a 	andeq	fp, lr, sl
    1468:	6baf0300 	blvs	febc2070 <__bss_end+0x773c0ae4>
    146c:	84000000 	strhi	r0, [r0], #-0
    1470:	000abd0a 	andeq	fp, sl, sl, lsl #26
    1474:	6bb00300 	blvs	fec0207c <__bss_end+0x77400af0>
    1478:	88000000 	stmdahi	r0, {}	; <UNPREDICTABLE>
    147c:	000e540a 	andeq	r5, lr, sl, lsl #8
    1480:	6bb10300 	blvs	fec42088 <__bss_end+0x77440afc>
    1484:	8c000000 	stchi	0, cr0, [r0], {-0}
    1488:	000cf90a 	andeq	pc, ip, sl, lsl #18
    148c:	6bb20300 	blvs	fec82094 <__bss_end+0x77480b08>
    1490:	90000000 	andls	r0, r0, r0
    1494:	0009cc0a 	andeq	ip, r9, sl, lsl #24
    1498:	6bb30300 	blvs	fecc20a0 <__bss_end+0x774c0b14>
    149c:	94000000 	strls	r0, [r0], #-0
    14a0:	000f3b0a 	andeq	r3, pc, sl, lsl #22
    14a4:	6bb40300 	blvs	fed020ac <__bss_end+0x77500b20>
    14a8:	98000000 	stmdals	r0, {}	; <UNPREDICTABLE>
    14ac:	000e490a 	andeq	r4, lr, sl, lsl #18
    14b0:	6bb50300 	blvs	fed420b8 <__bss_end+0x77540b2c>
    14b4:	9c000000 	stcls	0, cr0, [r0], {-0}
    14b8:	000f080a 	andeq	r0, pc, sl, lsl #16
    14bc:	6bb60300 	blvs	fed820c4 <__bss_end+0x77580b38>
    14c0:	a0000000 	andge	r0, r0, r0
    14c4:	000c090a 	andeq	r0, ip, sl, lsl #18
    14c8:	6bb70300 	blvs	fedc20d0 <__bss_end+0x775c0b44>
    14cc:	a4000000 	strge	r0, [r0], #-0
    14d0:	000c160a 	andeq	r1, ip, sl, lsl #12
    14d4:	6bb80300 	blvs	fee020dc <__bss_end+0x77600b50>
    14d8:	a8000000 	stmdage	r0, {}	; <UNPREDICTABLE>
    14dc:	000c230a 	andeq	r2, ip, sl, lsl #6
    14e0:	6bb90300 	blvs	fee420e8 <__bss_end+0x77640b5c>
    14e4:	ac000000 	stcge	0, cr0, [r0], {-0}
    14e8:	000c300a 	andeq	r3, ip, sl
    14ec:	6bba0300 	blvs	fee820f4 <__bss_end+0x77680b68>
    14f0:	b0000000 	andlt	r0, r0, r0
    14f4:	000c3d0a 	andeq	r3, ip, sl, lsl #26
    14f8:	6bbb0300 	blvs	feec2100 <__bss_end+0x776c0b74>
    14fc:	b4000000 	strlt	r0, [r0], #-0
    1500:	000c4a0a 	andeq	r4, ip, sl, lsl #20
    1504:	6bbc0300 	blvs	fef0210c <__bss_end+0x77700b80>
    1508:	b8000000 	stmdalt	r0, {}	; <UNPREDICTABLE>
    150c:	000c570a 	andeq	r5, ip, sl, lsl #14
    1510:	6bbd0300 	blvs	fef42118 <__bss_end+0x77740b8c>
    1514:	bc000000 	stclt	0, cr0, [r0], {-0}
    1518:	000b980a 	andeq	r9, fp, sl, lsl #16
    151c:	6bbe0300 	blvs	fef82124 <__bss_end+0x77780b98>
    1520:	c0000000 	andgt	r0, r0, r0
    1524:	000bb10a 	andeq	fp, fp, sl, lsl #2
    1528:	6bbf0300 	blvs	fefc2130 <__bss_end+0x777c0ba4>
    152c:	c4000000 	strgt	r0, [r0], #-0
    1530:	000bbe0a 	andeq	fp, fp, sl, lsl #28
    1534:	6bc00300 	blvs	ff00213c <__bss_end+0x77800bb0>
    1538:	c8000000 	stmdagt	r0, {}	; <UNPREDICTABLE>
    153c:	000e990a 	andeq	r9, lr, sl, lsl #18
    1540:	6bc10300 	blvs	ff042148 <__bss_end+0x77840bbc>
    1544:	cc000000 	stcgt	0, cr0, [r0], {-0}
    1548:	000ee60a 	andeq	lr, lr, sl, lsl #12
    154c:	6bc20300 	blvs	ff082154 <__bss_end+0x77880bc8>
    1550:	d0000000 	andle	r0, r0, r0
    1554:	000a510a 	andeq	r5, sl, sl, lsl #2
    1558:	6bc30300 	blvs	ff0c2160 <__bss_end+0x778c0bd4>
    155c:	d4000000 	strle	r0, [r0], #-0
    1560:	0008c60a 	andeq	ip, r8, sl, lsl #12
    1564:	6bc40300 	blvs	ff10216c <__bss_end+0x77900be0>
    1568:	d8000000 	stmdale	r0, {}	; <UNPREDICTABLE>
    156c:	000f5f0a 	andeq	r5, pc, sl, lsl #30
    1570:	6bc50300 	blvs	ff142178 <__bss_end+0x77940bec>
    1574:	dc000000 	stcle	0, cr0, [r0], {-0}
    1578:	0008cf0a 	andeq	ip, r8, sl, lsl #30
    157c:	6bc60300 	blvs	ff182184 <__bss_end+0x77980bf8>
    1580:	e0000000 	and	r0, r0, r0
    1584:	000f710a 	andeq	r7, pc, sl, lsl #2
    1588:	6bc70300 	blvs	ff1c2190 <__bss_end+0x779c0c04>
    158c:	e4000000 	str	r0, [r0], #-0
    1590:	0007350a 	andeq	r3, r7, sl, lsl #10
    1594:	6bc80300 	blvs	ff20219c <__bss_end+0x77a00c10>
    1598:	e8000000 	stmda	r0, {}	; <UNPREDICTABLE>
    159c:	0007400a 	andeq	r4, r7, sl
    15a0:	6bc90300 	blvs	ff2421a8 <__bss_end+0x77a40c1c>
    15a4:	ec000000 	stc	0, cr0, [r0], {-0}
    15a8:	00074b0a 	andeq	r4, r7, sl, lsl #22
    15ac:	6bca0300 	blvs	ff2821b4 <__bss_end+0x77a80c28>
    15b0:	f0000000 			; <UNDEFINED> instruction: 0xf0000000
    15b4:	0007560a 	andeq	r5, r7, sl, lsl #12
    15b8:	6bcb0300 	blvs	ff2c21c0 <__bss_end+0x77ac0c34>
    15bc:	f4000000 	vst4.8	{d0-d3}, [r0], r0
    15c0:	0007610a 	andeq	r6, r7, sl, lsl #2
    15c4:	6bcc0300 	blvs	ff3021cc <__bss_end+0x77b00c40>
    15c8:	f8000000 			; <UNDEFINED> instruction: 0xf8000000
    15cc:	0009b70a 	andeq	fp, r9, sl, lsl #14
    15d0:	6bcd0300 	blvs	ff3421d8 <__bss_end+0x77b40c4c>
    15d4:	fc000000 	stc2	0, cr0, [r0], {-0}
    15d8:	0007780b 	andeq	r7, r7, fp, lsl #16
    15dc:	6bce0300 	blvs	ff3821e4 <__bss_end+0x77b80c58>
    15e0:	00000000 	andeq	r0, r0, r0
    15e4:	07830b01 	streq	r0, [r3, r1, lsl #22]
    15e8:	cf030000 	svcgt	0x00030000
    15ec:	0000006b 	andeq	r0, r0, fp, rrx
    15f0:	8e0b0104 	adfhie	f0, f3, f4
    15f4:	03000007 	movweq	r0, #7
    15f8:	00006bd0 	ldrdeq	r6, [r0], -r0
    15fc:	0b010800 	bleq	43604 <_start-0x877bc9fc>
    1600:	00000e2e 	andeq	r0, r0, lr, lsr #28
    1604:	006bd103 	rsbeq	sp, fp, r3, lsl #2
    1608:	010c0000 	mrseq	r0, (UNDEF: 12)
    160c:	000e0b0b 	andeq	r0, lr, fp, lsl #22
    1610:	6bd20300 	blvs	ff482218 <__bss_end+0x77c80c8c>
    1614:	10000000 	andne	r0, r0, r0
    1618:	0a990b01 	beq	fe644224 <__bss_end+0x76e42c98>
    161c:	d3030000 	movwle	r0, #12288	; 0x3000
    1620:	0000006b 	andeq	r0, r0, fp, rrx
    1624:	dd0b0114 	stfles	f0, [fp, #-80]	; 0xffffffb0
    1628:	0300000b 	movweq	r0, #11
    162c:	00006bd4 	ldrdeq	r6, [r0], -r4
    1630:	0b011800 	bleq	47638 <_start-0x877b89c8>
    1634:	00000efa 	strdeq	r0, [r0], -sl
    1638:	006bd503 	rsbeq	sp, fp, r3, lsl #10
    163c:	011c0000 	tsteq	ip, r0
    1640:	000ecd0b 	andeq	ip, lr, fp, lsl #26
    1644:	6bd60300 	blvs	ff58224c <__bss_end+0x77d80cc0>
    1648:	20000000 	andcs	r0, r0, r0
    164c:	0cff0b01 	fldmiaxeq	pc!, {d16-d15}	;@ Deprecated
    1650:	d7030000 	strle	r0, [r3, -r0]
    1654:	0000006b 	andeq	r0, r0, fp, rrx
    1658:	6c0b0124 	stfvss	f0, [fp], {36}	; 0x24
    165c:	03000007 	movweq	r0, #7
    1660:	00006bd8 	ldrdeq	r6, [r0], -r8
    1664:	0b012800 	bleq	4b66c <_start-0x877b4994>
    1668:	0000081e 	andeq	r0, r0, lr, lsl r8
    166c:	006bd903 	rsbeq	sp, fp, r3, lsl #18
    1670:	012c0000 	teqeq	ip, r0
    1674:	000ea20b 	andeq	sl, lr, fp, lsl #4
    1678:	6bda0300 	blvs	ff682280 <__bss_end+0x77e80cf4>
    167c:	30000000 	andcc	r0, r0, r0
    1680:	082c0b01 	stmdaeq	ip!, {r0, r8, r9, fp}
    1684:	db030000 	blle	c168c <_start-0x8773e974>
    1688:	0000006b 	andeq	r0, r0, fp, rrx
    168c:	fd0b0134 	stc2	1, cr0, [fp, #-208]	; 0xffffff30
    1690:	0300000b 	movweq	r0, #11
    1694:	00006bdc 	ldrdeq	r6, [r0], -ip
    1698:	0b013800 	bleq	4f6a0 <_start-0x877b0960>
    169c:	00000952 	andeq	r0, r0, r2, asr r9
    16a0:	006bdd03 	rsbeq	sp, fp, r3, lsl #26
    16a4:	013c0000 	teqeq	ip, r0
    16a8:	0008590b 	andeq	r5, r8, fp, lsl #18
    16ac:	6bde0300 	blvs	ff7822b4 <__bss_end+0x77f80d28>
    16b0:	40000000 	andmi	r0, r0, r0
    16b4:	0ad30b01 	beq	ff4c42c0 <__bss_end+0x77cc2d34>
    16b8:	df030000 	svcle	0x00030000
    16bc:	0000006b 	andeq	r0, r0, fp, rrx
    16c0:	080b0144 	stmdaeq	fp, {r2, r6, r8}
    16c4:	03000009 	movweq	r0, #9
    16c8:	00006be0 	andeq	r6, r0, r0, ror #23
    16cc:	0b014800 	bleq	536d4 <_start-0x877ac92c>
    16d0:	00000889 	andeq	r0, r0, r9, lsl #17
    16d4:	006be103 	rsbeq	lr, fp, r3, lsl #2
    16d8:	014c0000 	mrseq	r0, (UNDEF: 76)
    16dc:	000ae10b 	andeq	lr, sl, fp, lsl #2
    16e0:	6be20300 	blvs	ff8822e8 <__bss_end+0x78080d5c>
    16e4:	50000000 	andpl	r0, r0, r0
    16e8:	0d3c0b01 	fldmdbxeq	ip!, {d0-d-1}	;@ Deprecated
    16ec:	e3030000 	movw	r0, #12288	; 0x3000
    16f0:	0000006b 	andeq	r0, r0, fp, rrx
    16f4:	5a0b0154 	bpl	2c1c4c <_start-0x8753e3b4>
    16f8:	0300000e 	movweq	r0, #14
    16fc:	00006be4 	andeq	r6, r0, r4, ror #23
    1700:	0b015800 	bleq	57708 <_start-0x877a88f8>
    1704:	00000e69 	andeq	r0, r0, r9, ror #28
    1708:	006be503 	rsbeq	lr, fp, r3, lsl #10
    170c:	015c0000 	cmpeq	ip, r0
    1710:	000e780b 	andeq	r7, lr, fp, lsl #16
    1714:	6be60300 	blvs	ff98231c <__bss_end+0x78180d90>
    1718:	60000000 	andvs	r0, r0, r0
    171c:	0b800b01 	bleq	fe004328 <__bss_end+0x76802d9c>
    1720:	e7030000 	str	r0, [r3, -r0]
    1724:	0000006b 	andeq	r0, r0, fp, rrx
    1728:	480b0164 	stmdami	fp, {r2, r5, r6, r8}
    172c:	0300000d 	movweq	r0, #13
    1730:	00006be8 	andeq	r6, r0, r8, ror #23
    1734:	0b016800 	bleq	5b73c <_start-0x877a48c4>
    1738:	000008a0 	andeq	r0, r0, r0, lsr #17
    173c:	006be903 	rsbeq	lr, fp, r3, lsl #18
    1740:	016c0000 	cmneq	ip, r0
    1744:	0008af0b 	andeq	sl, r8, fp, lsl #30
    1748:	6bea0300 	blvs	ffa82350 <__bss_end+0x78280dc4>
    174c:	70000000 	andvc	r0, r0, r0
    1750:	08670b01 	stmdaeq	r7!, {r0, r8, r9, fp}^
    1754:	eb030000 	bl	c175c <_start-0x8773e8a4>
    1758:	0000006b 	andeq	r0, r0, fp, rrx
    175c:	6f0b0174 	svcvs	0x000b0174
    1760:	0300000c 	movweq	r0, #12
    1764:	00006bec 	andeq	r6, r0, ip, ror #23
    1768:	0b017800 	bleq	5f770 <_start-0x877a0890>
    176c:	00000c7e 	andeq	r0, r0, lr, ror ip
    1770:	006bed03 	rsbeq	lr, fp, r3, lsl #26
    1774:	017c0000 	cmneq	ip, r0
    1778:	000ac70b 	andeq	ip, sl, fp, lsl #14
    177c:	6bee0300 	blvs	ffb82384 <__bss_end+0x78380df8>
    1780:	80000000 	andhi	r0, r0, r0
    1784:	0e3c0b01 	vaddeq.f64	d0, d12, d1
    1788:	ef030000 	svc	0x00030000
    178c:	0000006b 	andeq	r0, r0, fp, rrx
    1790:	730b0184 	movwvc	r0, #45444	; 0xb184
    1794:	03000008 	movweq	r0, #8
    1798:	00006bf0 	strdeq	r6, [r0], -r0
    179c:	0b018800 	bleq	637a4 <_start-0x8779c85c>
    17a0:	000009af 	andeq	r0, r0, pc, lsr #19
    17a4:	006bf103 	rsbeq	pc, fp, r3, lsl #2
    17a8:	018c0000 	orreq	r0, ip, r0
    17ac:	000a5a0b 	andeq	r5, sl, fp, lsl #20
    17b0:	6bf20300 	blvs	ffc823b8 <__bss_end+0x78480e2c>
    17b4:	90000000 	andls	r0, r0, r0
    17b8:	0d660b01 	fstmdbxeq	r6!, {d16-d15}	;@ Deprecated
    17bc:	f3030000 	vhadd.u8	d0, d3, d0
    17c0:	0000006b 	andeq	r0, r0, fp, rrx
    17c4:	190b0194 	stmdbne	fp, {r2, r4, r7, r8}
    17c8:	0300000e 	movweq	r0, #14
    17cc:	00006bf4 	strdeq	r6, [r0], -r4
    17d0:	0b019800 	bleq	677d8 <_start-0x87798828>
    17d4:	00000afd 	strdeq	r0, [r0], -sp
    17d8:	006bf503 	rsbeq	pc, fp, r3, lsl #10
    17dc:	019c0000 	orrseq	r0, ip, r0
    17e0:	000b070b 	andeq	r0, fp, fp, lsl #14
    17e4:	6bf60300 	blvs	ffd823ec <__bss_end+0x78580e60>
    17e8:	a0000000 	andge	r0, r0, r0
    17ec:	0b120b01 	bleq	4843f8 <_start-0x8737bc08>
    17f0:	f7030000 			; <UNDEFINED> instruction: 0xf7030000
    17f4:	0000006b 	andeq	r0, r0, fp, rrx
    17f8:	230b01a4 	movwcs	r0, #45476	; 0xb1a4
    17fc:	0300000e 	movweq	r0, #14
    1800:	00006bf8 	strdeq	r6, [r0], -r8
    1804:	0b01a800 	bleq	6b80c <_start-0x877947f4>
    1808:	00000b29 	andeq	r0, r0, r9, lsr #22
    180c:	006bf903 	rsbeq	pc, fp, r3, lsl #18
    1810:	01ac0000 			; <UNDEFINED> instruction: 0x01ac0000
    1814:	000b340b 	andeq	r3, fp, fp, lsl #8
    1818:	6bfa0300 	blvs	ffe82420 <__bss_end+0x78680e94>
    181c:	b0000000 	andlt	r0, r0, r0
    1820:	0b3f0b01 	bleq	fc442c <_start-0x8683bbd4>
    1824:	fb030000 	blx	c182e <_start-0x8773e7d2>
    1828:	0000006b 	andeq	r0, r0, fp, rrx
    182c:	4a0b01b4 	bmi	2c1f04 <_start-0x8753e0fc>
    1830:	0300000b 	movweq	r0, #11
    1834:	00006bfc 	strdeq	r6, [r0], -ip
    1838:	0b01b800 	bleq	6f840 <_start-0x877907c0>
    183c:	00000b55 	andeq	r0, r0, r5, asr fp
    1840:	006bfd03 	rsbeq	pc, fp, r3, lsl #26
    1844:	01bc0000 			; <UNDEFINED> instruction: 0x01bc0000
    1848:	000b600b 	andeq	r6, fp, fp
    184c:	6bfe0300 	blvs	fff82454 <__bss_end+0x78780ec8>
    1850:	c0000000 	andgt	r0, r0, r0
    1854:	0b6b0b01 	bleq	1ac4460 <_start-0x85d3bba0>
    1858:	ff030000 			; <UNDEFINED> instruction: 0xff030000
    185c:	0000006b 	andeq	r0, r0, fp, rrx
    1860:	640d01c4 	strvs	r0, [sp], #-452	; 0x1c4
    1864:	0300000c 	movweq	r0, #12
    1868:	006b0100 	rsbeq	r0, fp, r0, lsl #2
    186c:	01c80000 	biceq	r0, r8, r0
    1870:	0007990d 	andeq	r9, r7, sp, lsl #18
    1874:	01010300 	mrseq	r0, SP_irq
    1878:	0000006b 	andeq	r0, r0, fp, rrx
    187c:	a40d01cc 	strge	r0, [sp], #-460	; 0x1cc
    1880:	03000007 	movweq	r0, #7
    1884:	006b0102 	rsbeq	r0, fp, r2, lsl #2
    1888:	01d00000 	bicseq	r0, r0, r0
    188c:	000c8d0d 	andeq	r8, ip, sp, lsl #26
    1890:	01030300 	mrseq	r0, SP_svc
    1894:	0000006b 	andeq	r0, r0, fp, rrx
    1898:	af0d01d4 	svcge	0x000d01d4
    189c:	03000007 	movweq	r0, #7
    18a0:	006b0104 	rsbeq	r0, fp, r4, lsl #2
    18a4:	01d80000 	bicseq	r0, r8, r0
    18a8:	000c980d 	andeq	r9, ip, sp, lsl #16
    18ac:	01050300 	mrseq	r0, SP_abt
    18b0:	0000006b 	andeq	r0, r0, fp, rrx
    18b4:	c20d01dc 	andgt	r0, sp, #220, 2	; 0x37
    18b8:	03000007 	movweq	r0, #7
    18bc:	006b0106 	rsbeq	r0, fp, r6, lsl #2
    18c0:	01e00000 	mvneq	r0, r0
    18c4:	0007cd0d 	andeq	ip, r7, sp, lsl #26
    18c8:	01070300 	mrseq	r0, SP_und
    18cc:	0000006b 	andeq	r0, r0, fp, rrx
    18d0:	d80d01e4 	stmdale	sp, {r2, r5, r6, r7, r8}
    18d4:	03000007 	movweq	r0, #7
    18d8:	006b0108 	rsbeq	r0, fp, r8, lsl #2
    18dc:	01e80000 	mvneq	r0, r0
    18e0:	0007ef0d 	andeq	lr, r7, sp, lsl #30
    18e4:	01090300 	mrseq	r0, (UNDEF: 57)
    18e8:	0000006b 	andeq	r0, r0, fp, rrx
    18ec:	870d01ec 	strhi	r0, [sp, -ip, ror #3]
    18f0:	0300000d 	movweq	r0, #13
    18f4:	006b010a 	rsbeq	r0, fp, sl, lsl #2
    18f8:	01f00000 	mvnseq	r0, r0
    18fc:	000d920d 	andeq	r9, sp, sp, lsl #4
    1900:	010b0300 	mrseq	r0, (UNDEF: 59)
    1904:	0000006b 	andeq	r0, r0, fp, rrx
    1908:	9d0d01f4 	stflss	f0, [sp, #-976]	; 0xfffffc30
    190c:	0300000d 	movweq	r0, #13
    1910:	006b010c 	rsbeq	r0, fp, ip, lsl #2
    1914:	01f80000 	mvnseq	r0, r0
    1918:	000da80d 	andeq	sl, sp, sp, lsl #16
    191c:	010d0300 	mrseq	r0, SP_mon
    1920:	0000006b 	andeq	r0, r0, fp, rrx
    1924:	150d01fc 	strne	r0, [sp, #-508]	; 0x1fc
    1928:	0300000d 	movweq	r0, #13
    192c:	006b010e 	rsbeq	r0, fp, lr, lsl #2
    1930:	02000000 	andeq	r0, r0, #0
    1934:	000e840d 	andeq	r8, lr, sp, lsl #8
    1938:	010f0300 	mrseq	r0, SP_hyp
    193c:	0000006b 	andeq	r0, r0, fp, rrx
    1940:	f10d0204 			; <UNDEFINED> instruction: 0xf10d0204
    1944:	03000009 	movweq	r0, #9
    1948:	006b0110 	rsbeq	r0, fp, r0, lsl r1
    194c:	02080000 	andeq	r0, r8, #0
    1950:	0009fd0d 	andeq	pc, r9, sp, lsl #26
    1954:	01110300 	tsteq	r1, r0, lsl #6
    1958:	0000006b 	andeq	r0, r0, fp, rrx
    195c:	090d020c 	stmdbeq	sp, {r2, r3, r9}
    1960:	0300000a 	movweq	r0, #10
    1964:	006b0112 	rsbeq	r0, fp, r2, lsl r1
    1968:	02100000 	andseq	r0, r0, #0
    196c:	000a150d 	andeq	r1, sl, sp, lsl #10
    1970:	01130300 	tsteq	r3, r0, lsl #6
    1974:	0000006b 	andeq	r0, r0, fp, rrx
    1978:	210d0214 	tstcs	sp, r4, lsl r2
    197c:	0300000a 	movweq	r0, #10
    1980:	006b0114 	rsbeq	r0, fp, r4, lsl r1
    1984:	02180000 	andseq	r0, r8, #0
    1988:	000a2d0d 	andeq	r2, sl, sp, lsl #26
    198c:	01150300 	tsteq	r5, r0, lsl #6
    1990:	0000006b 	andeq	r0, r0, fp, rrx
    1994:	120d021c 	andne	r0, sp, #28, 4	; 0xc0000001
    1998:	03000008 	movweq	r0, #8
    199c:	006b0116 	rsbeq	r0, fp, r6, lsl r1
    19a0:	02200000 	eoreq	r0, r0, #0
    19a4:	000a450d 	andeq	r4, sl, sp, lsl #10
    19a8:	01170300 	tsteq	r7, r0, lsl #6
    19ac:	0000006b 	andeq	r0, r0, fp, rrx
    19b0:	dd0d0224 	sfmle	f0, 4, [sp, #-144]	; 0xffffff70
    19b4:	03000009 	movweq	r0, #9
    19b8:	006b0118 	rsbeq	r0, fp, r8, lsl r1
    19bc:	02280000 	eoreq	r0, r8, #0
    19c0:	0008f40d 	andeq	pc, r8, sp, lsl #8
    19c4:	01190300 	tsteq	r9, r0, lsl #6
    19c8:	0000006b 	andeq	r0, r0, fp, rrx
    19cc:	700d022c 	andvc	r0, sp, ip, lsr #4
    19d0:	0300000d 	movweq	r0, #13
    19d4:	006b011a 	rsbeq	r0, fp, sl, lsl r1
    19d8:	02300000 	eorseq	r0, r0, #0
    19dc:	000bf20d 	andeq	pc, fp, sp, lsl #4
    19e0:	011b0300 	tsteq	fp, r0, lsl #6
    19e4:	0000006b 	andeq	r0, r0, fp, rrx
    19e8:	ef0d0234 	svc	0x000d0234
    19ec:	0300000e 	movweq	r0, #14
    19f0:	006b011c 	rsbeq	r0, fp, ip, lsl r1
    19f4:	02380000 	eorseq	r0, r8, #0
    19f8:	000ec40d 	andeq	ip, lr, sp, lsl #8
    19fc:	011d0300 	tsteq	sp, r0, lsl #6
    1a00:	0000006b 	andeq	r0, r0, fp, rrx
    1a04:	e90d023c 	stmdb	sp, {r2, r3, r4, r5, r9}
    1a08:	0300000b 	movweq	r0, #11
    1a0c:	006b011e 	rsbeq	r0, fp, lr, lsl r1
    1a10:	02400000 	subeq	r0, r0, #0
    1a14:	0008be0d 	andeq	fp, r8, sp, lsl #28
    1a18:	011f0300 	tsteq	pc, r0, lsl #6
    1a1c:	0000006b 	andeq	r0, r0, fp, rrx
    1a20:	ba0d0244 	blt	342338 <_start-0x874bdcc8>
    1a24:	03000007 	movweq	r0, #7
    1a28:	006b0120 	rsbeq	r0, fp, r0, lsr #2
    1a2c:	02480000 	subeq	r0, r8, #0
    1a30:	000d0b0d 	andeq	r0, sp, sp, lsl #22
    1a34:	01210300 	teqeq	r1, r0, lsl #6
    1a38:	0000006b 	andeq	r0, r0, fp, rrx
    1a3c:	130d024c 	movwne	r0, #53836	; 0xd24c
    1a40:	0300000f 	movweq	r0, #15
    1a44:	006b0122 	rsbeq	r0, fp, r2, lsr #2
    1a48:	02500000 	subseq	r0, r0, #0
    1a4c:	000f1d0d 	andeq	r1, pc, sp, lsl #26
    1a50:	01230300 	teqeq	r3, r0, lsl #6
    1a54:	0000006b 	andeq	r0, r0, fp, rrx
    1a58:	270d0254 	smlsdcs	sp, r4, r2, r0
    1a5c:	0300000f 	movweq	r0, #15
    1a60:	006b0124 	rsbeq	r0, fp, r4, lsr #2
    1a64:	02580000 	subseq	r0, r8, #0
    1a68:	000ccf0d 	andeq	ip, ip, sp, lsl #30
    1a6c:	01250300 	teqeq	r5, r0, lsl #6
    1a70:	0000006b 	andeq	r0, r0, fp, rrx
    1a74:	db0d025c 	blle	3423ec <_start-0x874bdc14>
    1a78:	03000008 	movweq	r0, #8
    1a7c:	006b0126 	rsbeq	r0, fp, r6, lsr #2
    1a80:	02600000 	rsbeq	r0, r0, #0
    1a84:	000b760d 	andeq	r7, fp, sp, lsl #12
    1a88:	01270300 	teqeq	r7, r0, lsl #6
    1a8c:	0000006b 	andeq	r0, r0, fp, rrx
    1a90:	310d0264 	tstcc	sp, r4, ror #4
    1a94:	0300000f 	movweq	r0, #15
    1a98:	006b0128 	rsbeq	r0, fp, r8, lsr #2
    1a9c:	02680000 	rsbeq	r0, r8, #0
    1aa0:	000ca30d 	andeq	sl, ip, sp, lsl #6
    1aa4:	01290300 	teqeq	r9, r0, lsl #6
    1aa8:	0000006b 	andeq	r0, r0, fp, rrx
    1aac:	ae0d026c 	cdpge	2, 0, cr0, cr13, cr12, {3}
    1ab0:	0300000c 	movweq	r0, #12
    1ab4:	006b012a 	rsbeq	r0, fp, sl, lsr #2
    1ab8:	02700000 	rsbseq	r0, r0, #0
    1abc:	000cb90d 	andeq	fp, ip, sp, lsl #18
    1ac0:	012b0300 	teqeq	fp, r0, lsl #6
    1ac4:	0000006b 	andeq	r0, r0, fp, rrx
    1ac8:	c40d0274 	strgt	r0, [sp], #-628	; 0x274
    1acc:	0300000c 	movweq	r0, #12
    1ad0:	006b012c 	rsbeq	r0, fp, ip, lsr #2
    1ad4:	02780000 	rsbseq	r0, r8, #0
    1ad8:	000e8e0d 	andeq	r8, lr, sp, lsl #28
    1adc:	012d0300 	teqeq	sp, r0, lsl #6
    1ae0:	0000006b 	andeq	r0, r0, fp, rrx
    1ae4:	d80d027c 	stmdale	sp, {r2, r3, r4, r5, r6, r9}
    1ae8:	0300000c 	movweq	r0, #12
    1aec:	006b012e 	rsbeq	r0, fp, lr, lsr #2
    1af0:	02800000 	addeq	r0, r0, #0
    1af4:	000ce30d 	andeq	lr, ip, sp, lsl #6
    1af8:	012f0300 	teqeq	pc, r0, lsl #6
    1afc:	0000006b 	andeq	r0, r0, fp, rrx
    1b00:	ee0d0284 	cdp	2, 0, cr0, cr13, cr4, {4}
    1b04:	0300000c 	movweq	r0, #12
    1b08:	006b0130 	rsbeq	r0, fp, r0, lsr r1
    1b0c:	02880000 	addeq	r0, r8, #0
    1b10:	0008fe0d 	andeq	pc, r8, sp, lsl #28
    1b14:	01310300 	teqeq	r1, r0, lsl #6
    1b18:	0000006b 	andeq	r0, r0, fp, rrx
    1b1c:	b30d028c 	movwlt	r0, #53900	; 0xd28c
    1b20:	0300000d 	movweq	r0, #13
    1b24:	006b0132 	rsbeq	r0, fp, r2, lsr r1
    1b28:	02900000 	addseq	r0, r0, #0
    1b2c:	000ebb0d 	andeq	fp, lr, sp, lsl #22
    1b30:	01330300 	teqeq	r3, r0, lsl #6
    1b34:	0000006b 	andeq	r0, r0, fp, rrx
    1b38:	7f0d0294 	svcvc	0x000d0294
    1b3c:	03000008 	movweq	r0, #8
    1b40:	006b0134 	rsbeq	r0, fp, r4, lsr r1
    1b44:	02980000 	addseq	r0, r8, #0
    1b48:	0009c20d 	andeq	ip, r9, sp, lsl #4
    1b4c:	01350300 	teqeq	r5, r0, lsl #6
    1b50:	0000006b 	andeq	r0, r0, fp, rrx
    1b54:	e40d029c 	str	r0, [sp], #-668	; 0x29c
    1b58:	0300000d 	movweq	r0, #13
    1b5c:	006b0136 	rsbeq	r0, fp, r6, lsr r1
    1b60:	02a00000 	adceq	r0, r0, #0
    1b64:	000edb0d 	andeq	sp, lr, sp, lsl #22
    1b68:	01370300 	teqeq	r7, r0, lsl #6
    1b6c:	0000006b 	andeq	r0, r0, fp, rrx
    1b70:	1f0d02a4 	svcne	0x000d02a4
    1b74:	0300000d 	movweq	r0, #13
    1b78:	006b0138 	rsbeq	r0, fp, r8, lsr r1
    1b7c:	02a80000 	adceq	r0, r8, #0
    1b80:	000ba50d 	andeq	sl, fp, sp, lsl #10
    1b84:	01390300 	teqeq	r9, r0, lsl #6
    1b88:	0000006b 	andeq	r0, r0, fp, rrx
    1b8c:	900d02ac 	andls	r0, sp, ip, lsr #5
    1b90:	03000009 	movweq	r0, #9
    1b94:	006b013a 	rsbeq	r0, fp, sl, lsr r1
    1b98:	02b00000 	adcseq	r0, r0, #0
    1b9c:	0d2a0800 	stceq	8, cr0, [sl, #-0]
    1ba0:	3b030000 	blcc	c1ba8 <_start-0x8773e458>
    1ba4:	00067201 	andeq	r7, r6, r1, lsl #4
    1ba8:	029a0e00 	addseq	r0, sl, #0, 28
    1bac:	04040000 	streq	r0, [r4], #-0
    1bb0:	000f7d07 	andeq	r7, pc, r7, lsl #26
    1bb4:	02290f00 	eoreq	r0, r9, #0, 30
    1bb8:	0f000000 	svceq	0x00000000
    1bbc:	00000139 	andeq	r0, r0, r9, lsr r1
    1bc0:	02160f01 	andseq	r0, r6, #1, 30
    1bc4:	0f020000 	svceq	0x00020000
    1bc8:	00000100 	andeq	r0, r0, r0, lsl #2
    1bcc:	019a0f03 	orrseq	r0, sl, r3, lsl #30
    1bd0:	0f040000 	svceq	0x00040000
    1bd4:	00000118 	andeq	r0, r0, r8, lsl r1
    1bd8:	9b0c0005 	blls	301bf4 <_start-0x874fe40c>
    1bdc:	04000002 	streq	r0, [r0], #-2
    1be0:	000f4c0f 	andeq	r4, pc, pc, lsl #24
    1be4:	014a0e00 	cmpeq	sl, r0, lsl #28
    1be8:	04040000 	streq	r0, [r4], #-0
    1bec:	000fa112 	andeq	sl, pc, r2, lsl r1	; <UNPREDICTABLE>
    1bf0:	02870f00 	addeq	r0, r7, #0, 30
    1bf4:	0f000000 	svceq	0x00000000
    1bf8:	000001b2 			; <UNDEFINED> instruction: 0x000001b2
    1bfc:	4b0c0001 	blmi	301c08 <_start-0x874fe3f8>
    1c00:	04000001 	streq	r0, [r0], #-1
    1c04:	000f8816 	andeq	r8, pc, r6, lsl r8	; <UNPREDICTABLE>
    1c08:	02561000 	subseq	r1, r6, #0
    1c0c:	040c0000 	streq	r0, [ip], #-0
    1c10:	000fdd18 	andeq	sp, pc, r8, lsl sp	; <UNPREDICTABLE>
    1c14:	01e30a00 	mvneq	r0, r0, lsl #20
    1c18:	1a040000 	bne	101c20 <_start-0x876fe3e0>
    1c1c:	00000041 	andeq	r0, r0, r1, asr #32
    1c20:	01540a00 	cmpeq	r4, r0, lsl #20
    1c24:	1b040000 	blne	101c2c <_start-0x876fe3d4>
    1c28:	00000fa1 	andeq	r0, r0, r1, lsr #31
    1c2c:	01910a04 	orrseq	r0, r1, r4, lsl #20
    1c30:	1c040000 	stcne	0, cr0, [r4], {-0}
    1c34:	00000f7d 	andeq	r0, r0, sp, ror pc
    1c38:	570c0008 	strpl	r0, [ip, -r8]
    1c3c:	04000002 	streq	r0, [r0], #-2
    1c40:	000fac1d 	andeq	sl, pc, sp, lsl ip	; <UNPREDICTABLE>
    1c44:	0f681100 	svceq	0x00681100
    1c48:	08010000 	stmdaeq	r1, {}	; <UNPREDICTABLE>
    1c4c:	87800a0c 	strhi	r0, [r0, ip, lsl #20]
    1c50:	00000040 	andeq	r0, r0, r0, asr #32
    1c54:	100c9c01 	andne	r9, ip, r1, lsl #24
    1c58:	4d120000 	ldcmi	0, cr0, [r2, #-0]
    1c5c:	0100000f 	tsteq	r0, pc
    1c60:	000fdd20 	andeq	sp, pc, r0, lsr #26
    1c64:	6c910200 	lfmvs	f0, 4, [r1], {0}
    1c68:	0d5f1300 	ldcleq	3, cr1, [pc, #-0]	; 1c70 <_start-0x877fe390>
    1c6c:	30010000 	andcc	r0, r1, r0
    1c70:	87800a4c 	strhi	r0, [r0, ip, asr #20]
    1c74:	00000016 	andeq	r0, r0, r6, lsl r0
    1c78:	98139c01 	ldmdals	r3, {r0, sl, fp, ip, pc}
    1c7c:	01000008 	tsteq	r0, r8
    1c80:	800a643f 	andhi	r6, sl, pc, lsr r4
    1c84:	00001687 	andeq	r1, r0, r7, lsl #13
    1c88:	119c0100 	orrsne	r0, ip, r0, lsl #2
    1c8c:	00000dc3 	andeq	r0, r0, r3, asr #27
    1c90:	0a7c4a01 	beq	1f1449c <_start-0x858ebb64>
    1c94:	00388780 	eorseq	r8, r8, r0, lsl #15
    1c98:	9c010000 	stcls	0, cr0, [r1], {-0}
    1c9c:	00001052 	andeq	r1, r0, r2, asr r0
    1ca0:	000a6e12 	andeq	r6, sl, r2, lsl lr
    1ca4:	334c0100 	movtcc	r0, #49408	; 0xc100
    1ca8:	02000000 	andeq	r0, r0, #0
    1cac:	14007491 	strne	r7, [r0], #-1169	; 0x491
    1cb0:	00000a65 	andeq	r0, r0, r5, ror #20
    1cb4:	0ab45a01 	beq	fed184c0 <__bss_end+0x77516f34>
    1cb8:	00208780 	eoreq	r8, r0, r0, lsl #15
    1cbc:	9c010000 	stcls	0, cr0, [r1], {-0}
    1cc0:	000a6e15 	andeq	r6, sl, r5, lsl lr
    1cc4:	415a0100 	cmpmi	sl, r0, lsl #2
    1cc8:	02000000 	andeq	r0, r0, #0
    1ccc:	00007791 	muleq	r0, r1, r7
    1cd0:	0000022e 	andeq	r0, r0, lr, lsr #4
    1cd4:	04c00004 	strbeq	r0, [r0], #4
    1cd8:	01040000 	mrseq	r0, (UNDEF: 4)
    1cdc:	0000000e 	andeq	r0, r0, lr
    1ce0:	000fab01 	andeq	sl, pc, r1, lsl #22
    1ce4:	0000b100 	andeq	fp, r0, r0, lsl #2
    1ce8:	800ad400 	andhi	sp, sl, r0, lsl #8
    1cec:	0000ca87 	andeq	ip, r0, r7, lsl #21
    1cf0:	0002cf00 	andeq	ip, r2, r0, lsl #30
    1cf4:	06010200 	streq	r0, [r1], -r0, lsl #4
    1cf8:	000000a0 	andeq	r0, r0, r0, lsr #1
    1cfc:	ed050202 	sfm	f0, 4, [r5, #-8]
    1d00:	03000000 	movweq	r0, #0
    1d04:	6e690504 	cdpvs	5, 6, cr0, cr9, cr4, {0}
    1d08:	08020074 	stmdaeq	r2, {r2, r4, r5, r6}
    1d0c:	00000005 	andeq	r0, r0, r5
    1d10:	08010200 	stmdaeq	r1, {r9}
    1d14:	0000009e 	muleq	r0, lr, r0
    1d18:	da070202 	ble	1c2528 <_start-0x8763dad8>
    1d1c:	02000000 	andeq	r0, r0, #0
    1d20:	00910704 	addseq	r0, r1, r4, lsl #14
    1d24:	08020000 	stmdaeq	r2, {}	; <UNPREDICTABLE>
    1d28:	00008707 	andeq	r8, r0, r7, lsl #14
    1d2c:	07040200 	streq	r0, [r4, -r0, lsl #4]
    1d30:	000000f7 	strdeq	r0, [r0], -r7
    1d34:	a7080102 	strge	r0, [r8, -r2, lsl #2]
    1d38:	04000000 	streq	r0, [r0], #-0
    1d3c:	0000004f 	andeq	r0, r0, pc, asr #32
    1d40:	ac022005 	stcge	0, cr2, [r2], {5}
    1d44:	0000e134 	andeq	lr, r0, r4, lsr r1
    1d48:	52440600 	subpl	r0, r4, #0, 12
    1d4c:	34ad0200 	strtcc	r0, [sp], #512	; 0x200
    1d50:	0000006b 	andeq	r0, r0, fp, rrx
    1d54:	015e0700 	cmpeq	lr, r0, lsl #14
    1d58:	ae020000 	cdpge	0, 0, cr0, cr2, cr0, {0}
    1d5c:	00006b34 	andeq	r6, r0, r4, lsr fp
    1d60:	50060400 	andpl	r0, r6, r0, lsl #8
    1d64:	02005253 	andeq	r5, r0, #805306373	; 0x30000005
    1d68:	006b34af 	rsbeq	r3, fp, pc, lsr #9
    1d6c:	07080000 	streq	r0, [r8, -r0]
    1d70:	0000024c 	andeq	r0, r0, ip, asr #4
    1d74:	6b34b002 	blvs	d2dd84 <_start-0x86ad227c>
    1d78:	0c000000 	stceq	0, cr0, [r0], {-0}
    1d7c:	00025107 	andeq	r5, r2, r7, lsl #2
    1d80:	34b10200 	ldrtcc	r0, [r1], #512	; 0x200
    1d84:	0000006b 	andeq	r0, r0, fp, rrx
    1d88:	4d490610 	stclmi	6, cr0, [r9, #-64]	; 0xffffffc0
    1d8c:	b2020052 	andlt	r0, r2, #82	; 0x52
    1d90:	00006b34 	andeq	r6, r0, r4, lsr fp
    1d94:	49061400 	stmdbmi	r6, {sl, ip}
    1d98:	02005253 	andeq	r5, r0, #805306373	; 0x30000005
    1d9c:	006b34b3 	strhteq	r3, [fp], #-67	; 0xffffffbd
    1da0:	07180000 	ldreq	r0, [r8, -r0]
    1da4:	00000243 	andeq	r0, r0, r3, asr #4
    1da8:	6b34b402 	blvs	d2edb8 <_start-0x86ad1248>
    1dac:	1c000000 	stcne	0, cr0, [r0], {-0}
    1db0:	01d90800 	bicseq	r0, r9, r0, lsl #16
    1db4:	b5020000 	strlt	r0, [r2, #-0]
    1db8:	00007034 	andeq	r7, r0, r4, lsr r0
    1dbc:	029a0900 	addseq	r0, sl, #0, 18
    1dc0:	03040000 	movweq	r0, #16384	; 0x4000
    1dc4:	00011e07 	andeq	r1, r1, r7, lsl #28
    1dc8:	02290a00 	eoreq	r0, r9, #0, 20
    1dcc:	0a000000 	beq	1dd4 <_start-0x877fe22c>
    1dd0:	00000139 	andeq	r0, r0, r9, lsr r1
    1dd4:	02160a01 	andseq	r0, r6, #4096	; 0x1000
    1dd8:	0a020000 	beq	81de0 <_start-0x8777e220>
    1ddc:	00000100 	andeq	r0, r0, r0, lsl #2
    1de0:	019a0a03 	orrseq	r0, sl, r3, lsl #20
    1de4:	0a040000 	beq	101dec <_start-0x876fe214>
    1de8:	00000118 	andeq	r0, r0, r8, lsl r1
    1dec:	9b0b0005 	blls	2c1e08 <_start-0x8753e1f8>
    1df0:	03000002 	movweq	r0, #2
    1df4:	0000ed0f 	andeq	lr, r0, pc, lsl #26
    1df8:	014a0900 	cmpeq	sl, r0, lsl #18
    1dfc:	03040000 	movweq	r0, #16384	; 0x4000
    1e00:	00014212 	andeq	r4, r1, r2, lsl r2
    1e04:	02870a00 	addeq	r0, r7, #0, 20
    1e08:	0a000000 	beq	1e10 <_start-0x877fe1f0>
    1e0c:	000001b2 			; <UNDEFINED> instruction: 0x000001b2
    1e10:	4b0b0001 	blmi	2c1e1c <_start-0x8753e1e4>
    1e14:	03000001 	movweq	r0, #1
    1e18:	00012916 	andeq	r2, r1, r6, lsl r9
    1e1c:	02560c00 	subseq	r0, r6, #0, 24
    1e20:	030c0000 	movweq	r0, #49152	; 0xc000
    1e24:	00017e18 	andeq	r7, r1, r8, lsl lr
    1e28:	01e30d00 	mvneq	r0, r0, lsl #26
    1e2c:	1a030000 	bne	c1e34 <_start-0x8773e1cc>
    1e30:	00000041 	andeq	r0, r0, r1, asr #32
    1e34:	01540d00 	cmpeq	r4, r0, lsl #26
    1e38:	1b030000 	blne	c1e40 <_start-0x8773e1c0>
    1e3c:	00000142 	andeq	r0, r0, r2, asr #2
    1e40:	01910d04 	orrseq	r0, r1, r4, lsl #26
    1e44:	1c030000 	stcne	0, cr0, [r3], {-0}
    1e48:	0000011e 	andeq	r0, r0, lr, lsl r1
    1e4c:	570b0008 	strpl	r0, [fp, -r8]
    1e50:	03000002 	movweq	r0, #2
    1e54:	00014d1d 	andeq	r4, r1, sp, lsl sp
    1e58:	0f7c0900 	svceq	0x007c0900
    1e5c:	04040000 	streq	r0, [r4], #-0
    1e60:	0001a20e 	andeq	sl, r1, lr, lsl #4
    1e64:	0f850a00 	svceq	0x00850a00
    1e68:	0a000000 	beq	1e70 <_start-0x877fe190>
    1e6c:	00000fa0 	andeq	r0, r0, r0, lsr #31
    1e70:	04020001 	streq	r0, [r2], #-1
    1e74:	00008c07 	andeq	r8, r0, r7, lsl #24
    1e78:	05040200 	streq	r0, [r4, #-512]	; 0x200
    1e7c:	00000005 	andeq	r0, r0, r5
    1e80:	000f970e 	andeq	r9, pc, lr, lsl #14
    1e84:	d4040100 	strle	r0, [r4], #-256	; 0x100
    1e88:	3c87800a 	stccc	0, cr8, [r7], {10}
    1e8c:	01000000 	mrseq	r0, (UNDEF: 0)
    1e90:	0001d49c 	muleq	r1, ip, r4
    1e94:	0f4d0f00 	svceq	0x004d0f00
    1e98:	06010000 	streq	r0, [r1], -r0
    1e9c:	0000017e 	andeq	r0, r0, lr, ror r1
    1ea0:	006c9102 	rsbeq	r9, ip, r2, lsl #2
    1ea4:	000f8e10 	andeq	r8, pc, r0, lsl lr	; <UNPREDICTABLE>
    1ea8:	33210100 	teqcc	r1, #0, 2
    1eac:	10000000 	andne	r0, r0, r0
    1eb0:	2487800b 	strcs	r8, [r7], #11
    1eb4:	01000000 	mrseq	r0, (UNDEF: 0)
    1eb8:	0001fc9c 	muleq	r1, ip, ip
    1ebc:	65721100 	ldrbvs	r1, [r2, #-256]!	; 0x100
    1ec0:	23010074 	movwcs	r0, #4212	; 0x1074
    1ec4:	00000033 	andeq	r0, r0, r3, lsr r0
    1ec8:	00749102 	rsbseq	r9, r4, r2, lsl #2
    1ecc:	000fc212 	andeq	ip, pc, r2, lsl r2	; <UNPREDICTABLE>
    1ed0:	332d0100 	teqcc	sp, #0, 2
    1ed4:	34000000 	strcc	r0, [r0], #-0
    1ed8:	6a87800b 	bvs	fe1e1f0c <__bss_end+0x769e0980>
    1edc:	01000000 	mrseq	r0, (UNDEF: 0)
    1ee0:	6572119c 	ldrbvs	r1, [r2, #-412]!	; 0x19c
    1ee4:	2f010074 	svccs	0x00010074
    1ee8:	00000033 	andeq	r0, r0, r3, lsr r0
    1eec:	0f749102 	svceq	0x00749102
    1ef0:	00000fcf 	andeq	r0, r0, pc, asr #31
    1ef4:	00413001 	subeq	r3, r1, r1
    1ef8:	03050000 	movweq	r0, #20480	; 0x5000
    1efc:	87801080 	strhi	r1, [r0, r0, lsl #1]
    1f00:	013d0000 	teqeq	sp, r0
    1f04:	00040000 	andeq	r0, r4, r0
    1f08:	000005da 	ldrdeq	r0, [r0], -sl
    1f0c:	000e0104 	andeq	r0, lr, r4, lsl #2
    1f10:	d7010000 	strle	r0, [r1, -r0]
    1f14:	b100000f 	tstlt	r0, pc
    1f18:	a0000000 	andge	r0, r0, r0
    1f1c:	ba87800b 	blt	fe1e1f50 <__bss_end+0x769e09c4>
    1f20:	6d000000 	stcvs	0, cr0, [r0, #-0]
    1f24:	02000003 	andeq	r0, r0, #3
    1f28:	00a00601 	adceq	r0, r0, r1, lsl #12
    1f2c:	02020000 	andeq	r0, r2, #0
    1f30:	0000ed05 	andeq	lr, r0, r5, lsl #26
    1f34:	05040300 	streq	r0, [r4, #-768]	; 0x300
    1f38:	00746e69 	rsbseq	r6, r4, r9, ror #28
    1f3c:	00050802 	andeq	r0, r5, r2, lsl #16
    1f40:	02000000 	andeq	r0, r0, #0
    1f44:	009e0801 	addseq	r0, lr, r1, lsl #16
    1f48:	02020000 	andeq	r0, r2, #0
    1f4c:	0000da07 	andeq	sp, r0, r7, lsl #20
    1f50:	07040200 	streq	r0, [r4, -r0, lsl #4]
    1f54:	00000091 	muleq	r0, r1, r0
    1f58:	87070802 	strhi	r0, [r7, -r2, lsl #16]
    1f5c:	02000000 	andeq	r0, r0, #0
    1f60:	00f70704 	rscseq	r0, r7, r4, lsl #14
    1f64:	01020000 	mrseq	r0, (UNDEF: 2)
    1f68:	0000a708 	andeq	sl, r0, r8, lsl #14
    1f6c:	004f0400 	subeq	r0, pc, r0, lsl #8
    1f70:	20050000 	andcs	r0, r5, r0
    1f74:	e134ac02 	teq	r4, r2, lsl #24
    1f78:	06000000 	streq	r0, [r0], -r0
    1f7c:	02005244 	andeq	r5, r0, #68, 4	; 0x40000004
    1f80:	006b34ad 	rsbeq	r3, fp, sp, lsr #9
    1f84:	07000000 	streq	r0, [r0, -r0]
    1f88:	0000015e 	andeq	r0, r0, lr, asr r1
    1f8c:	6b34ae02 	blvs	d2d79c <_start-0x86ad2864>
    1f90:	04000000 	streq	r0, [r0], #-0
    1f94:	52535006 	subspl	r5, r3, #6
    1f98:	34af0200 	strtcc	r0, [pc], #512	; 1fa0 <_start-0x877fe060>
    1f9c:	0000006b 	andeq	r0, r0, fp, rrx
    1fa0:	024c0708 	subeq	r0, ip, #8, 14	; 0x200000
    1fa4:	b0020000 	andlt	r0, r2, r0
    1fa8:	00006b34 	andeq	r6, r0, r4, lsr fp
    1fac:	51070c00 	tstpl	r7, r0, lsl #24
    1fb0:	02000002 	andeq	r0, r0, #2
    1fb4:	006b34b1 	strhteq	r3, [fp], #-65	; 0xffffffbf
    1fb8:	06100000 	ldreq	r0, [r0], -r0
    1fbc:	00524d49 	subseq	r4, r2, r9, asr #26
    1fc0:	6b34b202 	blvs	d2e7d0 <_start-0x86ad1830>
    1fc4:	14000000 	strne	r0, [r0], #-0
    1fc8:	52534906 	subspl	r4, r3, #98304	; 0x18000
    1fcc:	34b30200 	ldrtcc	r0, [r3], #512	; 0x200
    1fd0:	0000006b 	andeq	r0, r0, fp, rrx
    1fd4:	02430718 	subeq	r0, r3, #24, 14	; 0x600000
    1fd8:	b4020000 	strlt	r0, [r2], #-0
    1fdc:	00006b34 	andeq	r6, r0, r4, lsr fp
    1fe0:	08001c00 	stmdaeq	r0, {sl, fp, ip}
    1fe4:	000001d9 	ldrdeq	r0, [r0], -r9
    1fe8:	7034b502 	eorsvc	fp, r4, r2, lsl #10
    1fec:	09000000 	stmdbeq	r0, {}	; <UNPREDICTABLE>
    1ff0:	00000ff5 	strdeq	r0, [r0], -r5
    1ff4:	0ba00301 	bleq	fe802c00 <__bss_end+0x77001674>
    1ff8:	00528780 	subseq	r8, r2, r0, lsl #15
    1ffc:	9c010000 	stcls	0, cr0, [r1], {-0}
    2000:	000fff09 	andeq	pc, pc, r9, lsl #30
    2004:	f4190100 			; <UNDEFINED> instruction: 0xf4190100
    2008:	2487800b 	strcs	r8, [r7], #11
    200c:	01000000 	mrseq	r0, (UNDEF: 0)
    2010:	1007099c 	mulne	r7, ip, r9
    2014:	1e010000 	cdpne	0, 0, cr0, cr1, cr0, {0}
    2018:	87800c18 	usada8hi	r0, r8, ip, r0
    201c:	00000024 	andeq	r0, r0, r4, lsr #32
    2020:	eb0a9c01 	bl	2a902c <_start-0x87556fd4>
    2024:	0100000f 	tsteq	r0, pc
    2028:	800c3c23 	andhi	r3, ip, r3, lsr #24
    202c:	00001e87 	andeq	r1, r0, r7, lsl #29
    2030:	0b9c0100 	bleq	fe702438 <__bss_end+0x76f00eac>
    2034:	00000a6e 	andeq	r0, r0, lr, ror #20
    2038:	00332301 	eorseq	r2, r3, r1, lsl #6
    203c:	91020000 	mrsls	r0, (UNDEF: 2)
    2040:	64000074 	strvs	r0, [r0], #-116	; 0x74
    2044:	0400000b 	streq	r0, [r0], #-11
    2048:	00068200 	andeq	r8, r6, r0, lsl #4
    204c:	0e010400 	cfcpyseq	mvf0, mvf1
    2050:	01000000 	mrseq	r0, (UNDEF: 0)
    2054:	0000138e 	andeq	r1, r0, lr, lsl #7
    2058:	000000b1 	strheq	r0, [r0], -r1
    205c:	87800c5c 			; <UNDEFINED> instruction: 0x87800c5c
    2060:	000000d2 	ldrdeq	r0, [r0], -r2
    2064:	000003d5 	ldrdeq	r0, [r0], -r5
    2068:	a0060102 	andge	r0, r6, r2, lsl #2
    206c:	02000000 	andeq	r0, r0, #0
    2070:	00ed0502 	rsceq	r0, sp, r2, lsl #10
    2074:	04030000 	streq	r0, [r3], #-0
    2078:	746e6905 	strbtvc	r6, [lr], #-2309	; 0x905
    207c:	05080200 	streq	r0, [r8, #-512]	; 0x200
    2080:	00000000 	andeq	r0, r0, r0
    2084:	9e080102 	adflse	f0, f0, f2
    2088:	02000000 	andeq	r0, r0, #0
    208c:	00da0702 	sbcseq	r0, sl, r2, lsl #14
    2090:	04020000 	streq	r0, [r2], #-0
    2094:	00009107 	andeq	r9, r0, r7, lsl #2
    2098:	07080200 	streq	r0, [r8, -r0, lsl #4]
    209c:	00000087 	andeq	r0, r0, r7, lsl #1
    20a0:	f7070402 			; <UNDEFINED> instruction: 0xf7070402
    20a4:	02000000 	andeq	r0, r0, #0
    20a8:	00a70801 	adceq	r0, r7, r1, lsl #16
    20ac:	4f040000 	svcmi	0x00040000
    20b0:	04000019 	streq	r0, [r0], #-25
    20b4:	04692703 	strbteq	r2, [r9], #-1795	; 0x703
    20b8:	7c050000 	stcvc	0, cr0, [r5], {-0}
    20bc:	80000012 	andhi	r0, r0, r2, lsl r0
    20c0:	11d3057f 	bicsne	r0, r3, pc, ror r5
    20c4:	05000000 	streq	r0, [r0, #-0]
    20c8:	0000181a 	andeq	r1, r0, sl, lsl r8
    20cc:	13530501 	cmpne	r3, #4194304	; 0x400000
    20d0:	05020000 	streq	r0, [r2, #-0]
    20d4:	00001b3b 	andeq	r1, r0, fp, lsr fp
    20d8:	15a50503 	strne	r0, [r5, #1283]!	; 0x503
    20dc:	05040000 	streq	r0, [r4, #-0]
    20e0:	0000118e 	andeq	r1, r0, lr, lsl #3
    20e4:	19120505 	ldmdbne	r2, {r0, r2, r8, sl}
    20e8:	05060000 	streq	r0, [r6, #-0]
    20ec:	0000130d 	andeq	r1, r0, sp, lsl #6
    20f0:	1af70507 	bne	ffdc3514 <__bss_end+0x785c1f88>
    20f4:	05080000 	streq	r0, [r8, #-0]
    20f8:	000016e9 	andeq	r1, r0, r9, ror #13
    20fc:	19950509 	ldmibne	r5, {r0, r3, r8, sl}
    2100:	050a0000 	streq	r0, [sl, #-0]
    2104:	00001a44 	andeq	r1, r0, r4, asr #20
    2108:	15b4050b 	ldrne	r0, [r4, #1291]!	; 0x50b
    210c:	050c0000 	streq	r0, [ip, #-0]
    2110:	0000119d 	muleq	r0, sp, r1
    2114:	17f0050d 	ldrbne	r0, [r0, sp, lsl #10]!
    2118:	050e0000 	streq	r0, [lr, #-0]
    211c:	0000131c 	andeq	r1, r0, ip, lsl r3
    2120:	1566050f 	strbne	r0, [r6, #-1295]!	; 0x50f
    2124:	05190000 	ldreq	r0, [r9, #-0]
    2128:	00001540 	andeq	r1, r0, r0, asr #10
    212c:	163a051a 			; <UNDEFINED> instruction: 0x163a051a
    2130:	051b0000 	ldreq	r0, [fp, #-0]
    2134:	00001456 	andeq	r1, r0, r6, asr r4
    2138:	10ff051c 	rscsne	r0, pc, ip, lsl r5	; <UNPREDICTABLE>
    213c:	051d0000 	ldreq	r0, [sp, #-0]
    2140:	000010fc 	strdeq	r1, [r0], -ip
    2144:	14f5051e 	ldrbtne	r0, [r5], #1310	; 0x51e
    2148:	051f0000 	ldreq	r0, [pc, #-0]	; 2150 <_start-0x877fdeb0>
    214c:	00001504 	andeq	r1, r0, r4, lsl #10
    2150:	18ed0520 	stmiane	sp!, {r5, r8, sl}^
    2154:	05210000 	streq	r0, [r1, #-0]!
    2158:	00001908 	andeq	r1, r0, r8, lsl #18
    215c:	15d10522 	ldrbne	r0, [r1, #1314]	; 0x522
    2160:	05230000 	streq	r0, [r3, #-0]!
    2164:	000013da 	ldrdeq	r1, [r0], -sl
    2168:	12cf0524 	sbcne	r0, pc, #36, 10	; 0x9000000
    216c:	05250000 	streq	r0, [r5, #-0]!
    2170:	000015da 	ldrdeq	r1, [r0], -sl
    2174:	11fd0526 	mvnsne	r0, r6, lsr #10
    2178:	05270000 	streq	r0, [r7, #-0]!
    217c:	00001498 	muleq	r0, r8, r4
    2180:	18400528 	stmdane	r0, {r3, r5, r8, sl}^
    2184:	05290000 	streq	r0, [r9, #-0]!
    2188:	000013fd 	strdeq	r1, [r0], -sp
    218c:	1535052a 	ldrne	r0, [r5, #-1322]!	; 0x52a
    2190:	052b0000 	streq	r0, [fp, #-0]!
    2194:	000014d1 	ldrdeq	r1, [r0], -r1	; <UNPREDICTABLE>
    2198:	10a7052c 	adcne	r0, r7, ip, lsr #10
    219c:	052d0000 	streq	r0, [sp, #-0]!
    21a0:	00001431 	andeq	r1, r0, r1, lsr r4
    21a4:	11b7052e 			; <UNDEFINED> instruction: 0x11b7052e
    21a8:	052f0000 	streq	r0, [pc, #-0]!	; 21b0 <_start-0x877fde50>
    21ac:	000018f6 	strdeq	r1, [r0], -r6
    21b0:	13400530 	movtne	r0, #1328	; 0x530
    21b4:	05310000 	ldreq	r0, [r1, #-0]!
    21b8:	00001099 	muleq	r0, r9, r0
    21bc:	13a20532 			; <UNDEFINED> instruction: 0x13a20532
    21c0:	05330000 	ldreq	r0, [r3, #-0]!
    21c4:	00001041 	andeq	r1, r0, r1, asr #32
    21c8:	16310534 			; <UNDEFINED> instruction: 0x16310534
    21cc:	05350000 	ldreq	r0, [r5, #-0]!
    21d0:	000015ef 	andeq	r1, r0, pc, ror #11
    21d4:	10780536 	rsbsne	r0, r8, r6, lsr r5
    21d8:	05370000 	ldreq	r0, [r7, #-0]!
    21dc:	000015c4 	andeq	r1, r0, r4, asr #11
    21e0:	17540538 	smmlarne	r4, r8, r5, r0
    21e4:	05390000 	ldreq	r0, [r9, #-0]!
    21e8:	00001383 	andeq	r1, r0, r3, lsl #7
    21ec:	1a54053a 	bne	15036dc <_start-0x862fc924>
    21f0:	053b0000 	ldreq	r0, [fp, #-0]!
    21f4:	00001010 	andeq	r1, r0, r0, lsl r0
    21f8:	11c8053c 	bicne	r0, r8, ip, lsr r5
    21fc:	053d0000 	ldreq	r0, [sp, #-0]!
    2200:	00001881 	andeq	r1, r0, r1, lsl #17
    2204:	1510053e 	ldrne	r0, [r0, #-1342]	; 0x53e
    2208:	053f0000 	ldreq	r0, [pc, #-0]!	; 2210 <_start-0x877fddf0>
    220c:	00001113 	andeq	r1, r0, r3, lsl r1
    2210:	610500c0 	smlabtvs	r5, r0, r0, r0
    2214:	c1000017 	tstgt	r0, r7, lsl r0
    2218:	12a70500 	adcne	r0, r7, #0, 10
    221c:	00c20000 	sbceq	r0, r2, r0
    2220:	0011ed05 	andseq	lr, r1, r5, lsl #26
    2224:	0500c300 	streq	ip, [r0, #-768]	; 0x300
    2228:	000011ad 	andeq	r1, r0, sp, lsr #3
    222c:	210500c4 	smlabtcs	r5, r4, r0, r0
    2230:	c5000019 	strgt	r0, [r0, #-25]
    2234:	132c0500 	teqne	ip, #0, 10
    2238:	00c60000 	sbceq	r0, r6, r0
    223c:	001b1e05 	andseq	r1, fp, r5, lsl #28
    2240:	0500c700 	streq	ip, [r0, #-1792]	; 0x700
    2244:	00001702 	andeq	r1, r0, r2, lsl #14
    2248:	7e0500c8 	cdpvc	0, 0, cr0, cr5, cr8, {6}
    224c:	c9000015 	stmdbgt	r0, {r0, r2, r4}
    2250:	17140500 	ldrne	r0, [r4, -r0, lsl #10]
    2254:	00ca0000 	sbceq	r0, sl, r0
    2258:	0010bd05 	andseq	fp, r0, r5, lsl #26
    225c:	0500cb00 	streq	ip, [r0, #-2816]	; 0xb00
    2260:	0000123d 	andeq	r1, r0, sp, lsr r2
    2264:	7a0500cc 	bvc	14259c <_start-0x876bda64>
    2268:	cd00001a 	stcgt	0, cr0, [r0, #-104]	; 0xffffff98
    226c:	18b50500 	ldmne	r5!, {r8, sl}
    2270:	00ce0000 	sbceq	r0, lr, r0
    2274:	00124b05 	andseq	r4, r2, r5, lsl #22
    2278:	0500cf00 	streq	ip, [r0, #-3840]	; 0xf00
    227c:	0000112f 	andeq	r1, r0, pc, lsr #2
    2280:	0d0500d0 	stceq	0, cr0, [r5, #-832]	; 0xfffffcc0
    2284:	d1000012 	tstle	r0, r2, lsl r0
    2288:	10230500 	eorne	r0, r3, r0, lsl #10
    228c:	00d20000 	sbcseq	r0, r2, r0
    2290:	00148305 	andseq	r8, r4, r5, lsl #6
    2294:	0500d300 	streq	sp, [r0, #-768]	; 0x300
    2298:	00001b30 	andeq	r1, r0, r0, lsr fp
    229c:	730500d4 	movwvc	r0, #20692	; 0x50d4
    22a0:	d5000013 	strle	r0, [r0, #-19]
    22a4:	12ff0500 	rscsne	r0, pc, #0, 10
    22a8:	00d60000 	sbcseq	r0, r6, r0
    22ac:	001a5f05 	andseq	r5, sl, r5, lsl #30
    22b0:	0500d700 	streq	sp, [r0, #-1792]	; 0x700
    22b4:	00001626 	andeq	r1, r0, r6, lsr #12
    22b8:	e20500d8 	and	r0, r5, #216	; 0xd8
    22bc:	d9000011 	stmdble	r0, {r0, r4}
    22c0:	15fb0500 	ldrbne	r0, [fp, #1280]!	; 0x500
    22c4:	00da0000 	sbcseq	r0, sl, r0
    22c8:	001a8e05 	andseq	r8, sl, r5, lsl #28
    22cc:	0500db00 	streq	sp, [r0, #-2816]	; 0xb00
    22d0:	000012bf 			; <UNDEFINED> instruction: 0x000012bf
    22d4:	710500dc 	ldrdvc	r0, [r5, -ip]
    22d8:	dd000018 	stcle	0, cr0, [r0, #-96]	; 0xffffffa0
    22dc:	111f0500 	tstne	pc, r0, lsl #10
    22e0:	00de0000 	sbcseq	r0, lr, r0
    22e4:	00152505 	andseq	r2, r5, r5, lsl #10
    22e8:	0500df00 	streq	sp, [r0, #-3840]	; 0xf00
    22ec:	00001ac1 	andeq	r1, r0, r1, asr #21
    22f0:	da0500e0 	ble	142678 <_start-0x876bd988>
    22f4:	e1000012 	tst	r0, r2, lsl r0
    22f8:	114a0500 	cmpne	sl, r0, lsl #10
    22fc:	00e20000 	rsceq	r0, r2, r0
    2300:	00117405 	andseq	r7, r1, r5, lsl #8
    2304:	0500e300 	streq	lr, [r0, #-768]	; 0x300
    2308:	000019c8 	andeq	r1, r0, r8, asr #19
    230c:	d30500e4 	movwle	r0, #20708	; 0x50e4
    2310:	e5000018 	str	r0, [r0, #-24]
    2314:	121a0500 	andsne	r0, sl, #0, 10
    2318:	00e60000 	rsceq	r0, r6, r0
    231c:	00146905 	andseq	r6, r4, r5, lsl #18
    2320:	0500e700 	streq	lr, [r0, #-1792]	; 0x700
    2324:	0000169f 	muleq	r0, pc, r6	; <UNPREDICTABLE>
    2328:	540500e8 	strpl	r0, [r5], #-232	; 0xe8
    232c:	e9000010 	stmdb	r0, {r4}
    2330:	1a9e0500 	bne	fe783738 <__bss_end+0x76f821ac>
    2334:	00ea0000 	rsceq	r0, sl, r0
    2338:	00180005 	andseq	r0, r8, r5
    233c:	0500eb00 	streq	lr, [r0, #-2816]	; 0xb00
    2340:	000010eb 	andeq	r1, r0, fp, ror #1
    2344:	220500ec 	andcs	r0, r5, #236	; 0xec
    2348:	ed000017 	stc	0, cr0, [r0, #-92]	; 0xffffffa4
    234c:	19430500 	stmdbne	r3, {r8, sl}^
    2350:	00ee0000 	rsceq	r0, lr, r0
    2354:	00143b05 	andseq	r3, r4, r5, lsl #22
    2358:	0500ef00 	streq	lr, [r0, #-3840]	; 0xf00
    235c:	000012ea 	andeq	r1, r0, sl, ror #5
    2360:	d10500f0 	strdle	r0, [r5, -r0]
    2364:	f100001a 	cps	#26
    2368:	188c0500 	stmne	ip, {r8, sl}
    236c:	00f20000 	rscseq	r0, r2, r0
    2370:	00108f05 	andseq	r8, r0, r5, lsl #30
    2374:	0500f300 	streq	pc, [r0, #-768]	; 0x300
    2378:	0000192b 	andeq	r1, r0, fp, lsr #18
    237c:	360500f4 			; <UNDEFINED> instruction: 0x360500f4
    2380:	f5000013 			; <UNDEFINED> instruction: 0xf5000013
    2384:	1b0d0500 	blne	34378c <_start-0x874bc874>
    2388:	00f60000 	rscseq	r0, r6, r0
    238c:	00193505 	andseq	r3, r9, r5, lsl #10
    2390:	0500f700 	streq	pc, [r0, #-1792]	; 0x700
    2394:	000014a6 	andeq	r1, r0, r6, lsr #9
    2398:	150500f8 	strne	r0, [r5, #-248]	; 0xf8
    239c:	f9000014 			; <UNDEFINED> instruction: 0xf9000014
    23a0:	15550500 	ldrbne	r0, [r5, #-1280]	; 0x500
    23a4:	00fa0000 	rscseq	r0, sl, r0
    23a8:	00102405 	andseq	r2, r0, r5, lsl #8
    23ac:	0500fb00 	streq	pc, [r0, #-2816]	; 0xb00
    23b0:	000018c2 	andeq	r1, r0, r2, asr #17
    23b4:	590500fc 	stmdbpl	r5, {r2, r3, r4, r5, r6, r7}
    23b8:	fd000018 	stc2	0, cr0, [r0, #-96]	; 0xffffffa0
    23bc:	13e40500 	mvnne	r0, #0, 10
    23c0:	00fe0000 	rscseq	r0, lr, r0
    23c4:	00195405 	andseq	r5, r9, r5, lsl #8
    23c8:	0500ff00 	streq	pc, [r0, #-3840]	; 0xf00
    23cc:	000016d7 	ldrdeq	r1, [r0], -r7
    23d0:	7a050180 	bvc	1429d8 <_start-0x876bd628>
    23d4:	81000019 	tsthi	r0, r9, lsl r0
    23d8:	14eb0501 	strbtne	r0, [fp], #1281	; 0x501
    23dc:	01820000 	orreq	r0, r2, r0
    23e0:	00160b05 	andseq	r0, r6, r5, lsl #22
    23e4:	05018300 	streq	r8, [r1, #-768]	; 0x300
    23e8:	00001427 	andeq	r1, r0, r7, lsr #8
    23ec:	6d050184 	stfvss	f0, [r5, #-528]	; 0xfffffdf0
    23f0:	85000017 	strhi	r0, [r0, #-23]
    23f4:	13620501 	cmnne	r2, #4194304	; 0x400000
    23f8:	01860000 	orreq	r0, r6, r0
    23fc:	00116305 	andseq	r6, r1, r5, lsl #6
    2400:	05018700 	streq	r8, [r1, #-1792]	; 0x700
    2404:	0000141e 	andeq	r1, r0, lr, lsl r4
    2408:	2d050188 	stfcss	f0, [r5, #-544]	; 0xfffffde0
    240c:	89000010 	stmdbhi	r0, {r4}
    2410:	177a0501 	ldrbne	r0, [sl, -r1, lsl #10]!
    2414:	018a0000 	orreq	r0, sl, r0
    2418:	00123305 	andseq	r3, r2, r5, lsl #6
    241c:	05018b00 	streq	r8, [r1, #-2816]	; 0xb00
    2420:	0000148d 	andeq	r1, r0, sp, lsl #9
    2424:	1c05018c 	stfnes	f0, [r5], {140}	; 0x8c
    2428:	8d000016 	stchi	0, cr0, [r0, #-88]	; 0xffffffa8
    242c:	106e0501 	rsbne	r0, lr, r1, lsl #10
    2430:	018e0000 	orreq	r0, lr, r0
    2434:	0016cd05 	andseq	ip, r6, r5, lsl #26
    2438:	05018f00 	streq	r8, [r1, #-3840]	; 0xf00
    243c:	00001a69 	andeq	r1, r0, r9, ror #20
    2440:	b4050190 	strlt	r0, [r5], #-400	; 0x190
    2444:	91000014 	tstls	r0, r4, lsl r0
    2448:	16f80501 	ldrbtne	r0, [r8], r1, lsl #10
    244c:	01920000 	orrseq	r0, r2, r0
    2450:	00114005 	andseq	r4, r1, r5
    2454:	05019300 	streq	r9, [r1, #-768]	; 0x300
    2458:	000018ab 	andeq	r1, r0, fp, lsr #17
    245c:	4c050194 	stfmis	f0, [r5], {148}	; 0x94
    2460:	95000014 	strls	r0, [r0, #-20]
    2464:	19a50501 	stmibne	r5!, {r0, r8, sl}
    2468:	01960000 	orrseq	r0, r6, r0
    246c:	00159505 	andseq	r9, r5, r5, lsl #10
    2470:	05019700 	streq	r9, [r1, #-1792]	; 0x700
    2474:	000015e4 	andeq	r1, r0, r4, ror #11
    2478:	ca050198 	bgt	142ae0 <_start-0x876bd520>
    247c:	99000013 	stmdbls	r0, {r0, r1, r4}
    2480:	13b90501 			; <UNDEFINED> instruction: 0x13b90501
    2484:	019a0000 	orrseq	r0, sl, r0
    2488:	001b5705 	andseq	r5, fp, r5, lsl #14
    248c:	05019b00 	streq	r9, [r1, #-2816]	; 0xb00
    2490:	0000173b 	andeq	r1, r0, fp, lsr r7
    2494:	9005019c 	mulls	r5, ip, r1
    2498:	9d000012 	stcls	0, cr0, [r0, #-72]	; 0xffffffb8
    249c:	19690501 	stmdbne	r9!, {r0, r8, sl}^
    24a0:	019e0000 	orrseq	r0, lr, r0
    24a4:	001ae905 	andseq	lr, sl, r5, lsl #18
    24a8:	00019f00 	andeq	r9, r1, r0, lsl #30
    24ac:	0012f506 	andseq	pc, r2, r6, lsl #10
    24b0:	6bc50300 	blvs	ff1430b8 <__bss_end+0x77941b2c>
    24b4:	07000000 	streq	r0, [r0, -r0]
    24b8:	0000004f 	andeq	r0, r0, pc, asr #32
    24bc:	00004f08 	andeq	r4, r0, r8, lsl #30
    24c0:	00048900 	andeq	r8, r4, r0, lsl #18
    24c4:	005d0900 	subseq	r0, sp, r0, lsl #18
    24c8:	00020000 	andeq	r0, r2, r0
    24cc:	00004108 	andeq	r4, r0, r8, lsl #2
    24d0:	00049900 	andeq	r9, r4, r0, lsl #18
    24d4:	005d0900 	subseq	r0, sp, r0, lsl #18
    24d8:	000f0000 	andeq	r0, pc, r0
    24dc:	00004f08 	andeq	r4, r0, r8, lsl #30
    24e0:	0004a900 	andeq	sl, r4, r0, lsl #18
    24e4:	005d0900 	subseq	r0, sp, r0, lsl #18
    24e8:	00050000 	andeq	r0, r5, r0
    24ec:	ac03200a 	stcge	0, cr2, [r3], {10}
    24f0:	00051a34 	andeq	r1, r5, r4, lsr sl
    24f4:	52440b00 	subpl	r0, r4, #0, 22
    24f8:	34ad0300 	strtcc	r0, [sp], #768	; 0x300
    24fc:	00000474 	andeq	r0, r0, r4, ror r4
    2500:	015e0c00 	cmpeq	lr, r0, lsl #24
    2504:	ae030000 	cdpge	0, 0, cr0, cr3, cr0, {0}
    2508:	00047434 	andeq	r7, r4, r4, lsr r4
    250c:	500b0400 	andpl	r0, fp, r0, lsl #8
    2510:	03005253 	movweq	r5, #595	; 0x253
    2514:	047434af 	ldrbteq	r3, [r4], #-1199	; 0x4af
    2518:	0c080000 	stceq	0, cr0, [r8], {-0}
    251c:	0000024c 	andeq	r0, r0, ip, asr #4
    2520:	7434b003 	ldrtvc	fp, [r4], #-3
    2524:	0c000004 	stceq	0, cr0, [r0], {4}
    2528:	0002510c 	andeq	r5, r2, ip, lsl #2
    252c:	34b10300 	ldrtcc	r0, [r1], #768	; 0x300
    2530:	00000474 	andeq	r0, r0, r4, ror r4
    2534:	4d490b10 	vstrmi	d16, [r9, #-64]	; 0xffffffc0
    2538:	b2030052 	andlt	r0, r3, #82	; 0x52
    253c:	00047434 	andeq	r7, r4, r4, lsr r4
    2540:	490b1400 	stmdbmi	fp, {sl, ip}
    2544:	03005253 	movweq	r5, #595	; 0x253
    2548:	047434b3 	ldrbteq	r3, [r4], #-1203	; 0x4b3
    254c:	0c180000 	ldceq	0, cr0, [r8], {-0}
    2550:	00000243 	andeq	r0, r0, r3, asr #4
    2554:	7434b403 	ldrtvc	fp, [r4], #-1027	; 0x403
    2558:	1c000004 	stcne	0, cr0, [r0], {4}
    255c:	01d90d00 	bicseq	r0, r9, r0, lsl #26
    2560:	b5030000 	strlt	r0, [r3, #-0]
    2564:	0004a934 	andeq	sl, r4, r4, lsr r9
    2568:	004f0800 	subeq	r0, pc, r0, lsl #16
    256c:	05360000 	ldreq	r0, [r6, #-0]!
    2570:	5d090000 	stcpl	0, cr0, [r9, #-0]
    2574:	6f000000 	svcvs	0x00000000
    2578:	004f0800 	subeq	r0, pc, r0, lsl #16
    257c:	05460000 	strbeq	r0, [r6, #-0]
    2580:	5d090000 	stcpl	0, cr0, [r9, #-0]
    2584:	1f000000 	svcne	0x00000000
    2588:	004f0800 	subeq	r0, pc, r0, lsl #16
    258c:	05560000 	ldrbeq	r0, [r6, #-0]
    2590:	5d090000 	stcpl	0, cr0, [r9, #-0]
    2594:	0f000000 	svceq	0x00000000
    2598:	30040e00 	andcc	r0, r4, r0, lsl #28
    259c:	e0022102 	and	r2, r2, r2, lsl #2
    25a0:	0c000008 	stceq	0, cr0, [r0], {8}
    25a4:	0000178e 	andeq	r1, r0, lr, lsl #15
    25a8:	e0022302 	and	r2, r2, r2, lsl #6
    25ac:	00000008 	andeq	r0, r0, r8
    25b0:	001b290f 	andseq	r2, fp, pc, lsl #18
    25b4:	02240200 	eoreq	r0, r4, #0, 4
    25b8:	00000474 	andeq	r0, r0, r4, ror r4
    25bc:	4b0f1000 	blmi	3c65c4 <_start-0x87439a3c>
    25c0:	02000013 	andeq	r0, r0, #19
    25c4:	08f10225 	ldmeq	r1!, {r0, r2, r5, r9}^
    25c8:	10040000 	andne	r0, r4, r0
    25cc:	0012060f 	andseq	r0, r2, pc, lsl #12
    25d0:	02260200 	eoreq	r0, r6, #0, 4
    25d4:	000008f1 	strdeq	r0, [r0], -r1
    25d8:	980f1008 	stmdals	pc, {r3, ip}	; <UNPREDICTABLE>
    25dc:	02000017 	andeq	r0, r0, #23
    25e0:	08f60227 	ldmeq	r6!, {r0, r1, r2, r5, r9}^
    25e4:	100c0000 	andne	r0, ip, r0
    25e8:	00184f0f 	andseq	r4, r8, pc, lsl #30
    25ec:	02280200 	eoreq	r0, r8, #0, 4
    25f0:	00000906 	andeq	r0, r0, r6, lsl #18
    25f4:	a20f1080 	andge	r1, pc, #128	; 0x80
    25f8:	02000017 	andeq	r0, r0, #23
    25fc:	05460229 	strbeq	r0, [r6, #-553]	; 0x229
    2600:	10c00000 	sbcne	r0, r0, r0
    2604:	00164c0f 	andseq	r4, r6, pc, lsl #24
    2608:	022a0200 	eoreq	r0, sl, #0, 4
    260c:	0000090b 	andeq	r0, r0, fp, lsl #18
    2610:	ac0f1100 	stfges	f1, [pc], {-0}
    2614:	02000017 	andeq	r0, r0, #23
    2618:	0546022b 	strbeq	r0, [r6, #-555]	; 0x22b
    261c:	11400000 	mrsne	r0, (UNDEF: 64)
    2620:	0018950f 	andseq	r9, r8, pc, lsl #10
    2624:	022c0200 	eoreq	r0, ip, #0, 4
    2628:	00000910 	andeq	r0, r0, r0, lsl r9
    262c:	b60f1180 	strlt	r1, [pc], -r0, lsl #3
    2630:	02000017 	andeq	r0, r0, #23
    2634:	0546022d 	strbeq	r0, [r6, #-557]	; 0x22d
    2638:	11c00000 	bicne	r0, r0, r0
    263c:	0014e10f 	andseq	lr, r4, pc, lsl #2
    2640:	022e0200 	eoreq	r0, lr, #0, 4
    2644:	00000915 	andeq	r0, r0, r5, lsl r9
    2648:	c00f1200 	andgt	r1, pc, r0, lsl #4
    264c:	02000017 	andeq	r0, r0, #23
    2650:	0546022f 	strbeq	r0, [r6, #-559]	; 0x22f
    2654:	12400000 	subne	r0, r0, #0
    2658:	0018a10f 	andseq	sl, r8, pc, lsl #2
    265c:	02300200 	eorseq	r0, r0, #0, 4
    2660:	0000091a 	andeq	r0, r0, sl, lsl r9
    2664:	ca0f1280 	bgt	3c706c <_start-0x87438f94>
    2668:	02000017 	andeq	r0, r0, #23
    266c:	05460231 	strbeq	r0, [r6, #-561]	; 0x231
    2670:	12c00000 	sbcne	r0, r0, #0
    2674:	0010b10f 	andseq	fp, r0, pc, lsl #2
    2678:	02320200 	eorseq	r0, r2, #0, 4
    267c:	0000091f 	andeq	r0, r0, pc, lsl r9
    2680:	d40f1300 	strle	r1, [pc], #-768	; 2688 <_start-0x877fd978>
    2684:	02000017 	andeq	r0, r0, #23
    2688:	05460233 	strbeq	r0, [r6, #-563]	; 0x233
    268c:	13400000 	movtne	r0, #0
    2690:	0012b30f 	andseq	fp, r2, pc, lsl #6
    2694:	02340200 	eorseq	r0, r4, #0, 4
    2698:	00000924 	andeq	r0, r0, r4, lsr #18
    269c:	5c0f1380 	stcpl	3, cr1, [pc], {128}	; 0x80
    26a0:	02000012 	andeq	r0, r0, #18
    26a4:	05460235 	strbeq	r0, [r6, #-565]	; 0x235
    26a8:	13c00000 	bicne	r0, r0, #0
    26ac:	001adc0f 	andseq	sp, sl, pc, lsl #24
    26b0:	02360200 	eorseq	r0, r6, #0, 4
    26b4:	0000093a 	andeq	r0, r0, sl, lsr r9
    26b8:	e60f1400 	str	r1, [pc], -r0, lsl #8
    26bc:	02000017 	andeq	r0, r0, #23
    26c0:	093f0237 	ldmdbeq	pc!, {r0, r1, r2, r4, r5, r9}	; <UNPREDICTABLE>
    26c4:	16000000 	strne	r0, [r0], -r0
    26c8:	0019b00f 	andseq	fp, r9, pc
    26cc:	02380200 	eorseq	r0, r8, #0, 4
    26d0:	0000094f 	andeq	r0, r0, pc, asr #18
    26d4:	e10f1800 	tst	pc, r0, lsl #16
    26d8:	02000019 	andeq	r0, r0, #25
    26dc:	093f0239 	ldmdbeq	pc!, {r0, r3, r4, r5, r9}	; <UNPREDICTABLE>
    26e0:	1a000000 	bne	26e8 <_start-0x877fd918>
    26e4:	00174c0f 	andseq	r4, r7, pc, lsl #24
    26e8:	023a0200 	eorseq	r0, sl, #0, 4
    26ec:	00000954 	andeq	r0, r0, r4, asr r9
    26f0:	ec0f1c00 	stc	12, cr1, [pc], {-0}
    26f4:	02000019 	andeq	r0, r0, #25
    26f8:	0536023b 	ldreq	r0, [r6, #-571]!	; 0x23b
    26fc:	1c800000 	stcne	0, cr0, [r0], {0}
    2700:	0017de0f 	andseq	sp, r7, pc, lsl #28
    2704:	023c0200 	eorseq	r0, ip, #0, 4
    2708:	000008f1 	strdeq	r0, [r0], -r1
    270c:	330f1d00 	movwcc	r1, #64768	; 0xfd00
    2710:	02000017 	andeq	r0, r0, #23
    2714:	0969023d 	stmdbeq	r9!, {r0, r2, r3, r4, r5, r9}^
    2718:	1d040000 	stcne	0, cr0, [r4, #-0]
    271c:	0019f70f 	andseq	pc, r9, pc, lsl #14
    2720:	023e0200 	eorseq	r0, lr, #0, 4
    2724:	00000526 	andeq	r0, r0, r6, lsr #10
    2728:	8e0f1d40 	cdphi	13, 0, cr1, cr15, cr0, {2}
    272c:	02000015 	andeq	r0, r0, #21
    2730:	0474023f 	ldrbteq	r0, [r4], #-575	; 0x23f
    2734:	1f000000 	svcne	0x00000000
    2738:	001a020f 	andseq	r0, sl, pc, lsl #4
    273c:	02400200 	subeq	r0, r0, #0, 4
    2740:	00000479 	andeq	r0, r0, r9, ror r4
    2744:	bc0f1f04 	stclt	15, cr1, [pc], {4}
    2748:	02000019 	andeq	r0, r0, #25
    274c:	09730241 	ldmdbeq	r3!, {r0, r6, r9}^
    2750:	1f100000 	svcne	0x00100000
    2754:	0014c50f 	andseq	ip, r4, pc, lsl #10
    2758:	02420200 	subeq	r0, r2, #0, 4
    275c:	00000978 	andeq	r0, r0, r8, ror r9
    2760:	0d0f1f20 	stceq	15, cr1, [pc, #-128]	; 26e8 <_start-0x877fd918>
    2764:	0200001a 	andeq	r0, r0, #26
    2768:	097d0243 	ldmdbeq	sp!, {r0, r1, r6, r9}^
    276c:	1f300000 	svcne	0x00300000
    2770:	0016780f 	andseq	r7, r6, pc, lsl #16
    2774:	02440200 	subeq	r0, r4, #0, 4
    2778:	000008f1 	strdeq	r0, [r0], -r1
    277c:	800f1fd0 	ldrdhi	r1, [pc], -r0
    2780:	02000016 	andeq	r0, r0, #22
    2784:	08f10245 	ldmeq	r1!, {r0, r2, r6, r9}^
    2788:	1fd40000 	svcne	0x00d40000
    278c:	0016880f 	andseq	r8, r6, pc, lsl #16
    2790:	02460200 	subeq	r0, r6, #0, 4
    2794:	000008f1 	strdeq	r0, [r0], -r1
    2798:	900f1fd8 	ldrdls	r1, [pc], -r8
    279c:	02000016 	andeq	r0, r0, #22
    27a0:	08f10247 	ldmeq	r1!, {r0, r1, r2, r6, r9}^
    27a4:	1fdc0000 	svcne	0x00dc0000
    27a8:	0016580f 	andseq	r5, r6, pc, lsl #16
    27ac:	02480200 	subeq	r0, r8, #0, 4
    27b0:	000008f1 	strdeq	r0, [r0], -r1
    27b4:	600f1fe0 	andvs	r1, pc, r0, ror #31
    27b8:	02000016 	andeq	r0, r0, #22
    27bc:	08f10249 	ldmeq	r1!, {r0, r3, r6, r9}^
    27c0:	1fe40000 	svcne	0x00e40000
    27c4:	0016680f 	andseq	r6, r6, pc, lsl #16
    27c8:	024a0200 	subeq	r0, sl, #0, 4
    27cc:	000008f1 	strdeq	r0, [r0], -r1
    27d0:	700f1fe8 	andvc	r1, pc, r8, ror #31
    27d4:	02000016 	andeq	r0, r0, #22
    27d8:	08f1024b 	ldmeq	r1!, {r0, r1, r3, r6, r9}^
    27dc:	1fec0000 	svcne	0x00ec0000
    27e0:	0010cb0f 	andseq	ip, r0, pc, lsl #22
    27e4:	024c0200 	subeq	r0, ip, #0, 4
    27e8:	000008f1 	strdeq	r0, [r0], -r1
    27ec:	d30f1ff0 	movwle	r1, #65520	; 0xfff0
    27f0:	02000010 	andeq	r0, r0, #16
    27f4:	08f1024d 	ldmeq	r1!, {r0, r2, r3, r6, r9}^
    27f8:	1ff40000 	svcne	0x00f40000
    27fc:	0010db0f 	andseq	sp, r0, pc, lsl #22
    2800:	024e0200 	subeq	r0, lr, #0, 4
    2804:	000008f1 	strdeq	r0, [r0], -r1
    2808:	e30f1ff8 	movw	r1, #65528	; 0xfff8
    280c:	02000010 	andeq	r0, r0, #16
    2810:	08f1024f 	ldmeq	r1!, {r0, r1, r2, r3, r6, r9}^
    2814:	1ffc0000 	svcne	0x00fc0000
    2818:	001b500f 	andseq	r5, fp, pc
    281c:	02510200 	subseq	r0, r1, #0, 4
    2820:	00000474 	andeq	r0, r0, r4, ror r4
    2824:	a10f2000 	mrsge	r2, CPSR
    2828:	02000012 	andeq	r0, r0, #18
    282c:	04740252 	ldrbteq	r0, [r4], #-594	; 0x252
    2830:	20040000 	andcs	r0, r4, r0
    2834:	001a880f 	andseq	r8, sl, pc, lsl #16
    2838:	02530200 	subseq	r0, r3, #0, 4
    283c:	00000474 	andeq	r0, r0, r4, ror r4
    2840:	290f2008 	stmdbcs	pc, {r3, sp}	; <UNPREDICTABLE>
    2844:	02000018 	andeq	r0, r0, #24
    2848:	08f10254 	ldmeq	r1!, {r2, r4, r6, r9}^
    284c:	200c0000 	andcs	r0, ip, r0
    2850:	001b170f 	andseq	r1, fp, pc, lsl #14
    2854:	02550200 	subseq	r0, r5, #0, 4
    2858:	00000474 	andeq	r0, r0, r4, ror r4
    285c:	8a0f2010 	bhi	3ca8a4 <_start-0x8743575c>
    2860:	02000012 	andeq	r0, r0, #18
    2864:	08f10256 	ldmeq	r1!, {r1, r2, r4, r6, r9}^
    2868:	20140000 	andscs	r0, r4, r0
    286c:	00101b0f 	andseq	r1, r0, pc, lsl #22
    2870:	02570200 	subseq	r0, r7, #0, 4
    2874:	000008f1 	strdeq	r0, [r0], -r1
    2878:	060f2018 			; <UNDEFINED> instruction: 0x060f2018
    287c:	0200001b 	andeq	r0, r0, #27
    2880:	04740258 	ldrbteq	r0, [r4], #-600	; 0x258
    2884:	201c0000 	andscs	r0, ip, r0
    2888:	00186a0f 	andseq	r6, r8, pc, lsl #20
    288c:	02590200 	subseq	r0, r9, #0, 4
    2890:	000008f1 	strdeq	r0, [r0], -r1
    2894:	2f0f2020 	svccs	0x000f2020
    2898:	02000018 	andeq	r0, r0, #24
    289c:	0474025a 	ldrbteq	r0, [r4], #-602	; 0x25a
    28a0:	20240000 	eorcs	r0, r4, r0
    28a4:	00151c0f 	andseq	r1, r5, pc, lsl #24
    28a8:	025b0200 	subseq	r0, fp, #0, 4
    28ac:	000008f1 	strdeq	r0, [r0], -r1
    28b0:	180f2028 	stmdane	pc, {r3, r5, sp}	; <UNPREDICTABLE>
    28b4:	0200001a 	andeq	r0, r0, #26
    28b8:	098d025c 	stmibeq	sp, {r2, r3, r4, r6, r9}
    28bc:	202c0000 	eorcs	r0, ip, r0
    28c0:	00170d0f 	andseq	r0, r7, pc, lsl #26
    28c4:	025d0200 	subseq	r0, sp, #0, 4
    28c8:	00000474 	andeq	r0, r0, r4, ror r4
    28cc:	230f20d0 	movwcs	r2, #61648	; 0xf0d0
    28d0:	0200001a 	andeq	r0, r0, #26
    28d4:	0479025e 	ldrbteq	r0, [r9], #-606	; 0x25e
    28d8:	20d40000 	sbcscs	r0, r4, r0
    28dc:	0018370f 	andseq	r3, r8, pc, lsl #14
    28e0:	025f0200 	subseq	r0, pc, #0, 4
    28e4:	00000474 	andeq	r0, r0, r4, ror r4
    28e8:	2e0f20e0 	cdpcs	0, 0, cr2, cr15, cr0, {7}
    28ec:	0200001a 	andeq	r0, r0, #26
    28f0:	04990260 	ldreq	r0, [r9], #608	; 0x260
    28f4:	20e40000 	rsccs	r0, r4, r0
    28f8:	0016980f 	andseq	r9, r6, pc, lsl #16
    28fc:	02610200 	rsbeq	r0, r1, #0, 4
    2900:	000008f1 	strdeq	r0, [r0], -r1
    2904:	390f20fc 	stmdbcc	pc, {r2, r3, r4, r5, r6, r7, sp}	; <UNPREDICTABLE>
    2908:	0200001a 	andeq	r0, r0, #26
    290c:	099d0262 	ldmibeq	sp, {r1, r5, r6, r9}
    2910:	21000000 	mrscs	r0, (UNDEF: 0)
    2914:	0011f70f 	andseq	pc, r1, pc, lsl #14
    2918:	02630200 	rsbeq	r0, r3, #0, 4
    291c:	00000474 	andeq	r0, r0, r4, ror r4
    2920:	08003000 	stmdaeq	r0, {ip, sp}
    2924:	0000004f 	andeq	r0, r0, pc, asr #32
    2928:	000008f1 	strdeq	r0, [r0], -r1
    292c:	00005d10 	andeq	r5, r0, r0, lsl sp
    2930:	0003ff00 	andeq	pc, r3, r0, lsl #30
    2934:	00047411 	andeq	r7, r4, r1, lsl r4
    2938:	004f0800 	subeq	r0, pc, r0, lsl #16
    293c:	09060000 	stmdbeq	r6, {}	; <UNPREDICTABLE>
    2940:	5d090000 	stcpl	0, cr0, [r9, #-0]
    2944:	1c000000 	stcne	0, cr0, [r0], {-0}
    2948:	05460700 	strbeq	r0, [r6, #-1792]	; 0x700
    294c:	46070000 	strmi	r0, [r7], -r0
    2950:	07000005 	streq	r0, [r0, -r5]
    2954:	00000546 	andeq	r0, r0, r6, asr #10
    2958:	00054607 	andeq	r4, r5, r7, lsl #12
    295c:	05460700 	strbeq	r0, [r6, #-1792]	; 0x700
    2960:	46070000 	strmi	r0, [r7], -r0
    2964:	07000005 	streq	r0, [r0, -r5]
    2968:	00000546 	andeq	r0, r0, r6, asr #10
    296c:	00004108 	andeq	r4, r0, r8, lsl #2
    2970:	00093a00 	andeq	r3, r9, r0, lsl #20
    2974:	005d1000 	subseq	r1, sp, r0
    2978:	01ff0000 	mvnseq	r0, r0
    297c:	09290700 	stmdbeq	r9!, {r8, r9, sl}
    2980:	4f080000 	svcmi	0x00080000
    2984:	4f000000 	svcmi	0x00000000
    2988:	09000009 	stmdbeq	r0, {r0, r3}
    298c:	0000005d 	andeq	r0, r0, sp, asr r0
    2990:	2907007f 	stmdbcs	r7, {r0, r1, r2, r3, r4, r5, r6}
    2994:	07000009 	streq	r0, [r0, -r9]
    2998:	00000536 	andeq	r0, r0, r6, lsr r5
    299c:	00004f08 	andeq	r4, r0, r8, lsl #30
    29a0:	00096900 	andeq	r6, r9, r0, lsl #18
    29a4:	005d0900 	subseq	r0, sp, r0, lsl #18
    29a8:	000e0000 	andeq	r0, lr, r0
    29ac:	00096e11 	andeq	r6, r9, r1, lsl lr
    29b0:	09590700 	ldmdbeq	r9, {r8, r9, sl}^
    29b4:	89070000 	stmdbhi	r7, {}	; <UNPREDICTABLE>
    29b8:	07000004 	streq	r0, [r0, -r4]
    29bc:	00000489 	andeq	r0, r0, r9, lsl #9
    29c0:	00004f08 	andeq	r4, r0, r8, lsl #30
    29c4:	00098d00 	andeq	r8, r9, r0, lsl #26
    29c8:	005d0900 	subseq	r0, sp, r0, lsl #18
    29cc:	00270000 	eoreq	r0, r7, r0
    29d0:	00004f08 	andeq	r4, r0, r8, lsl #30
    29d4:	00099d00 	andeq	r9, r9, r0, lsl #26
    29d8:	005d0900 	subseq	r0, sp, r0, lsl #18
    29dc:	00280000 	eoreq	r0, r8, r0
    29e0:	00004f08 	andeq	r4, r0, r8, lsl #30
    29e4:	0009ae00 	andeq	sl, r9, r0, lsl #28
    29e8:	005d1000 	subseq	r1, sp, r0
    29ec:	03bf0000 			; <UNDEFINED> instruction: 0x03bf0000
    29f0:	140c0d00 	strne	r0, [ip], #-3328	; 0xd00
    29f4:	64020000 	strvs	r0, [r2], #-0
    29f8:	00055602 	andeq	r5, r5, r2, lsl #12
    29fc:	029a0400 	addseq	r0, sl, #0, 8
    2a00:	04040000 	streq	r0, [r4], #-0
    2a04:	0009eb07 	andeq	lr, r9, r7, lsl #22
    2a08:	02290500 	eoreq	r0, r9, #0, 10
    2a0c:	05000000 	streq	r0, [r0, #-0]
    2a10:	00000139 	andeq	r0, r0, r9, lsr r1
    2a14:	02160501 	andseq	r0, r6, #4194304	; 0x400000
    2a18:	05020000 	streq	r0, [r2, #-0]
    2a1c:	00000100 	andeq	r0, r0, r0, lsl #2
    2a20:	019a0503 	orrseq	r0, sl, r3, lsl #10
    2a24:	05040000 	streq	r0, [r4, #-0]
    2a28:	00000118 	andeq	r0, r0, r8, lsl r1
    2a2c:	9b060005 	blls	182a48 <_start-0x8767d5b8>
    2a30:	04000002 	streq	r0, [r0], #-2
    2a34:	0009ba0f 	andeq	fp, r9, pc, lsl #20
    2a38:	014a0400 	cmpeq	sl, r0, lsl #8
    2a3c:	04040000 	streq	r0, [r4], #-0
    2a40:	000a0f12 	andeq	r0, sl, r2, lsl pc
    2a44:	02870500 	addeq	r0, r7, #0, 10
    2a48:	05000000 	streq	r0, [r0, #-0]
    2a4c:	000001b2 			; <UNDEFINED> instruction: 0x000001b2
    2a50:	4b060001 	blmi	182a5c <_start-0x8767d5a4>
    2a54:	04000001 	streq	r0, [r0], #-1
    2a58:	0009f616 	andeq	pc, r9, r6, lsl r6	; <UNPREDICTABLE>
    2a5c:	02561200 	subseq	r1, r6, #0, 4
    2a60:	040c0000 	streq	r0, [ip], #-0
    2a64:	000a4b18 	andeq	r4, sl, r8, lsl fp
    2a68:	01e31300 	mvneq	r1, r0, lsl #6
    2a6c:	1a040000 	bne	102a74 <_start-0x876fd58c>
    2a70:	00000041 	andeq	r0, r0, r1, asr #32
    2a74:	01541300 	cmpeq	r4, r0, lsl #6
    2a78:	1b040000 	blne	102a80 <_start-0x876fd580>
    2a7c:	00000a0f 	andeq	r0, r0, pc, lsl #20
    2a80:	01911304 	orrseq	r1, r1, r4, lsl #6
    2a84:	1c040000 	stcne	0, cr0, [r4], {-0}
    2a88:	000009eb 	andeq	r0, r0, fp, ror #19
    2a8c:	57060008 	strpl	r0, [r6, -r8]
    2a90:	04000002 	streq	r0, [r0], #-2
    2a94:	000a1a1d 	andeq	r1, sl, sp, lsl sl
    2a98:	15041400 	strne	r1, [r4, #-1024]	; 0x400
    2a9c:	00001084 	andeq	r1, r0, r4, lsl #1
    2aa0:	4f021302 	svcmi	0x00021302
    2aa4:	03000000 	movweq	r0, #0
    2aa8:	00000a78 	andeq	r0, r0, r8, ror sl
    2aac:	1b4a1716 	blne	128870c <_start-0x865778f4>
    2ab0:	15020000 	strne	r0, [r2, #-0]
    2ab4:	00004f02 	andeq	r4, r0, r2, lsl #30
    2ab8:	18000000 	stmdane	r0, {}	; <UNPREDICTABLE>
    2abc:	0000126e 	andeq	r1, r0, lr, ror #4
    2ac0:	03028902 	movweq	r8, #10498	; 0x2902
    2ac4:	00000a9e 	muleq	r0, lr, sl
    2ac8:	00194f19 	andseq	r4, r9, r9, lsl pc
    2acc:	02890200 	addeq	r0, r9, #0, 4
    2ad0:	00000469 	andeq	r0, r0, r9, ror #8
    2ad4:	6369671a 	cmnvs	r9, #6815744	; 0x680000
    2ad8:	028b0200 	addeq	r0, fp, #0, 4
    2adc:	00000a9e 	muleq	r0, lr, sl
    2ae0:	ae041b00 	vmlage.f64	d1, d4, d0
    2ae4:	1c000009 	stcne	0, cr0, [r0], {9}
    2ae8:	00001ab7 			; <UNDEFINED> instruction: 0x00001ab7
    2aec:	0c5c0401 	cfldrdeq	mvd0, [ip], {1}
    2af0:	00948780 	addseq	r8, r4, r0, lsl #15
    2af4:	9c010000 	stcls	0, cr0, [r1], {-0}
    2af8:	00000b15 	andeq	r0, r0, r5, lsl fp
    2afc:	000f4d1d 	andeq	r4, pc, sp, lsl sp	; <UNPREDICTABLE>
    2b00:	4b170100 	blmi	5c2f08 <_start-0x8723d0f8>
    2b04:	0200000a 	andeq	r0, r0, #10
    2b08:	781e6091 	ldmdavc	lr, {r0, r4, r7, sp, lr}
    2b0c:	9e00000a 	cdpls	0, 0, cr0, cr0, cr10, {0}
    2b10:	2687800c 	strcs	r8, [r7], ip
    2b14:	01000000 	mrseq	r0, (UNDEF: 0)
    2b18:	0a851f1e 	beq	fe14a798 <__bss_end+0x7694920c>
    2b1c:	91020000 	mrsls	r0, (UNDEF: 2)
    2b20:	0c9e2074 	ldceq	0, cr2, [lr], {116}	; 0x74
    2b24:	00268780 	eoreq	r8, r6, r0, lsl #15
    2b28:	91210000 	teqls	r1, r0
    2b2c:	0200000a 	andeq	r0, r0, #10
    2b30:	58226c91 	stmdapl	r2!, {r0, r4, r7, sl, fp, sp, lr}
    2b34:	9e00000a 	cdpls	0, 0, cr0, cr0, cr10, {0}
    2b38:	0887800c 	stmeq	r7, {r2, r3, pc}
    2b3c:	02000000 	andeq	r0, r0, #0
    2b40:	9e20028b 	cdpls	2, 2, cr0, cr0, cr11, {4}
    2b44:	0887800c 	stmeq	r7, {r2, r3, pc}
    2b48:	21000000 	mrscs	r0, (UNDEF: 0)
    2b4c:	00000a6a 	andeq	r0, r0, sl, ror #20
    2b50:	00709102 	rsbseq	r9, r0, r2, lsl #2
    2b54:	00000000 	andeq	r0, r0, r0
    2b58:	0019841c 	andseq	r8, r9, ip, lsl r4
    2b5c:	f02d0100 			; <UNDEFINED> instruction: 0xf02d0100
    2b60:	1687800c 	strne	r8, [r7], ip
    2b64:	01000000 	mrseq	r0, (UNDEF: 0)
    2b68:	000b399c 	muleq	fp, ip, r9
    2b6c:	0fc92300 	svceq	0x00c92300
    2b70:	2d010000 	stccs	0, cr0, [r1, #-0]
    2b74:	0000004f 	andeq	r0, r0, pc, asr #32
    2b78:	00749102 	rsbseq	r9, r4, r2, lsl #2
    2b7c:	0016b824 	andseq	fp, r6, r4, lsr #16
    2b80:	08330100 	ldmdaeq	r3!, {r8}
    2b84:	2687800d 	strcs	r8, [r7], sp
    2b88:	01000000 	mrseq	r0, (UNDEF: 0)
    2b8c:	1266239c 	rsbne	r2, r6, #156, 6	; 0x70000002
    2b90:	33010000 	movwcc	r0, #4096	; 0x1000
    2b94:	0000004f 	andeq	r0, r0, pc, asr #32
    2b98:	23749102 	cmncs	r4, #-2147483648	; 0x80000000
    2b9c:	00001d89 	andeq	r1, r0, r9, lsl #27
    2ba0:	0a563301 	beq	158f7ac <_start-0x86270854>
    2ba4:	91020000 	mrsls	r0, (UNDEF: 2)
    2ba8:	4c000070 	stcmi	0, cr0, [r0], {112}	; 0x70
    2bac:	0400000b 	streq	r0, [r0], #-11
    2bb0:	00085500 	andeq	r5, r8, r0, lsl #10
    2bb4:	0e010400 	cfcpyseq	mvf0, mvf1
    2bb8:	01000000 	mrseq	r0, (UNDEF: 0)
    2bbc:	00001ba4 	andeq	r1, r0, r4, lsr #23
    2bc0:	000000b1 	strheq	r0, [r0], -r1
    2bc4:	87800d30 			; <UNDEFINED> instruction: 0x87800d30
    2bc8:	000001a8 	andeq	r0, r0, r8, lsr #3
    2bcc:	00000471 	andeq	r0, r0, r1, ror r4
    2bd0:	a0060102 	andge	r0, r6, r2, lsl #2
    2bd4:	02000000 	andeq	r0, r0, #0
    2bd8:	00ed0502 	rsceq	r0, sp, r2, lsl #10
    2bdc:	04030000 	streq	r0, [r3], #-0
    2be0:	746e6905 	strbtvc	r6, [lr], #-2309	; 0x905
    2be4:	05080200 	streq	r0, [r8, #-512]	; 0x200
    2be8:	00000000 	andeq	r0, r0, r0
    2bec:	9e080102 	adflse	f0, f0, f2
    2bf0:	02000000 	andeq	r0, r0, #0
    2bf4:	00da0702 	sbcseq	r0, sl, r2, lsl #14
    2bf8:	04020000 	streq	r0, [r2], #-0
    2bfc:	00009107 	andeq	r9, r0, r7, lsl #2
    2c00:	07080200 	streq	r0, [r8, -r0, lsl #4]
    2c04:	00000087 	andeq	r0, r0, r7, lsl #1
    2c08:	f7070402 			; <UNDEFINED> instruction: 0xf7070402
    2c0c:	02000000 	andeq	r0, r0, #0
    2c10:	00a70801 	adceq	r0, r7, r1, lsl #16
    2c14:	4f040000 	svcmi	0x00040000
    2c18:	04000019 	streq	r0, [r0], #-25
    2c1c:	04692703 	strbteq	r2, [r9], #-1795	; 0x703
    2c20:	7c050000 	stcvc	0, cr0, [r5], {-0}
    2c24:	80000012 	andhi	r0, r0, r2, lsl r0
    2c28:	11d3057f 	bicsne	r0, r3, pc, ror r5
    2c2c:	05000000 	streq	r0, [r0, #-0]
    2c30:	0000181a 	andeq	r1, r0, sl, lsl r8
    2c34:	13530501 	cmpne	r3, #4194304	; 0x400000
    2c38:	05020000 	streq	r0, [r2, #-0]
    2c3c:	00001b3b 	andeq	r1, r0, fp, lsr fp
    2c40:	15a50503 	strne	r0, [r5, #1283]!	; 0x503
    2c44:	05040000 	streq	r0, [r4, #-0]
    2c48:	0000118e 	andeq	r1, r0, lr, lsl #3
    2c4c:	19120505 	ldmdbne	r2, {r0, r2, r8, sl}
    2c50:	05060000 	streq	r0, [r6, #-0]
    2c54:	0000130d 	andeq	r1, r0, sp, lsl #6
    2c58:	1af70507 	bne	ffdc407c <__bss_end+0x785c2af0>
    2c5c:	05080000 	streq	r0, [r8, #-0]
    2c60:	000016e9 	andeq	r1, r0, r9, ror #13
    2c64:	19950509 	ldmibne	r5, {r0, r3, r8, sl}
    2c68:	050a0000 	streq	r0, [sl, #-0]
    2c6c:	00001a44 	andeq	r1, r0, r4, asr #20
    2c70:	15b4050b 	ldrne	r0, [r4, #1291]!	; 0x50b
    2c74:	050c0000 	streq	r0, [ip, #-0]
    2c78:	0000119d 	muleq	r0, sp, r1
    2c7c:	17f0050d 	ldrbne	r0, [r0, sp, lsl #10]!
    2c80:	050e0000 	streq	r0, [lr, #-0]
    2c84:	0000131c 	andeq	r1, r0, ip, lsl r3
    2c88:	1566050f 	strbne	r0, [r6, #-1295]!	; 0x50f
    2c8c:	05190000 	ldreq	r0, [r9, #-0]
    2c90:	00001540 	andeq	r1, r0, r0, asr #10
    2c94:	163a051a 			; <UNDEFINED> instruction: 0x163a051a
    2c98:	051b0000 	ldreq	r0, [fp, #-0]
    2c9c:	00001456 	andeq	r1, r0, r6, asr r4
    2ca0:	10ff051c 	rscsne	r0, pc, ip, lsl r5	; <UNPREDICTABLE>
    2ca4:	051d0000 	ldreq	r0, [sp, #-0]
    2ca8:	000010fc 	strdeq	r1, [r0], -ip
    2cac:	14f5051e 	ldrbtne	r0, [r5], #1310	; 0x51e
    2cb0:	051f0000 	ldreq	r0, [pc, #-0]	; 2cb8 <_start-0x877fd348>
    2cb4:	00001504 	andeq	r1, r0, r4, lsl #10
    2cb8:	18ed0520 	stmiane	sp!, {r5, r8, sl}^
    2cbc:	05210000 	streq	r0, [r1, #-0]!
    2cc0:	00001908 	andeq	r1, r0, r8, lsl #18
    2cc4:	15d10522 	ldrbne	r0, [r1, #1314]	; 0x522
    2cc8:	05230000 	streq	r0, [r3, #-0]!
    2ccc:	000013da 	ldrdeq	r1, [r0], -sl
    2cd0:	12cf0524 	sbcne	r0, pc, #36, 10	; 0x9000000
    2cd4:	05250000 	streq	r0, [r5, #-0]!
    2cd8:	000015da 	ldrdeq	r1, [r0], -sl
    2cdc:	11fd0526 	mvnsne	r0, r6, lsr #10
    2ce0:	05270000 	streq	r0, [r7, #-0]!
    2ce4:	00001498 	muleq	r0, r8, r4
    2ce8:	18400528 	stmdane	r0, {r3, r5, r8, sl}^
    2cec:	05290000 	streq	r0, [r9, #-0]!
    2cf0:	000013fd 	strdeq	r1, [r0], -sp
    2cf4:	1535052a 	ldrne	r0, [r5, #-1322]!	; 0x52a
    2cf8:	052b0000 	streq	r0, [fp, #-0]!
    2cfc:	000014d1 	ldrdeq	r1, [r0], -r1	; <UNPREDICTABLE>
    2d00:	10a7052c 	adcne	r0, r7, ip, lsr #10
    2d04:	052d0000 	streq	r0, [sp, #-0]!
    2d08:	00001431 	andeq	r1, r0, r1, lsr r4
    2d0c:	11b7052e 			; <UNDEFINED> instruction: 0x11b7052e
    2d10:	052f0000 	streq	r0, [pc, #-0]!	; 2d18 <_start-0x877fd2e8>
    2d14:	000018f6 	strdeq	r1, [r0], -r6
    2d18:	13400530 	movtne	r0, #1328	; 0x530
    2d1c:	05310000 	ldreq	r0, [r1, #-0]!
    2d20:	00001099 	muleq	r0, r9, r0
    2d24:	13a20532 			; <UNDEFINED> instruction: 0x13a20532
    2d28:	05330000 	ldreq	r0, [r3, #-0]!
    2d2c:	00001041 	andeq	r1, r0, r1, asr #32
    2d30:	16310534 			; <UNDEFINED> instruction: 0x16310534
    2d34:	05350000 	ldreq	r0, [r5, #-0]!
    2d38:	000015ef 	andeq	r1, r0, pc, ror #11
    2d3c:	10780536 	rsbsne	r0, r8, r6, lsr r5
    2d40:	05370000 	ldreq	r0, [r7, #-0]!
    2d44:	000015c4 	andeq	r1, r0, r4, asr #11
    2d48:	17540538 	smmlarne	r4, r8, r5, r0
    2d4c:	05390000 	ldreq	r0, [r9, #-0]!
    2d50:	00001383 	andeq	r1, r0, r3, lsl #7
    2d54:	1a54053a 	bne	1504244 <_start-0x862fbdbc>
    2d58:	053b0000 	ldreq	r0, [fp, #-0]!
    2d5c:	00001010 	andeq	r1, r0, r0, lsl r0
    2d60:	11c8053c 	bicne	r0, r8, ip, lsr r5
    2d64:	053d0000 	ldreq	r0, [sp, #-0]!
    2d68:	00001881 	andeq	r1, r0, r1, lsl #17
    2d6c:	1510053e 	ldrne	r0, [r0, #-1342]	; 0x53e
    2d70:	053f0000 	ldreq	r0, [pc, #-0]!	; 2d78 <_start-0x877fd288>
    2d74:	00001113 	andeq	r1, r0, r3, lsl r1
    2d78:	610500c0 	smlabtvs	r5, r0, r0, r0
    2d7c:	c1000017 	tstgt	r0, r7, lsl r0
    2d80:	12a70500 	adcne	r0, r7, #0, 10
    2d84:	00c20000 	sbceq	r0, r2, r0
    2d88:	0011ed05 	andseq	lr, r1, r5, lsl #26
    2d8c:	0500c300 	streq	ip, [r0, #-768]	; 0x300
    2d90:	000011ad 	andeq	r1, r0, sp, lsr #3
    2d94:	210500c4 	smlabtcs	r5, r4, r0, r0
    2d98:	c5000019 	strgt	r0, [r0, #-25]
    2d9c:	132c0500 	teqne	ip, #0, 10
    2da0:	00c60000 	sbceq	r0, r6, r0
    2da4:	001b1e05 	andseq	r1, fp, r5, lsl #28
    2da8:	0500c700 	streq	ip, [r0, #-1792]	; 0x700
    2dac:	00001702 	andeq	r1, r0, r2, lsl #14
    2db0:	7e0500c8 	cdpvc	0, 0, cr0, cr5, cr8, {6}
    2db4:	c9000015 	stmdbgt	r0, {r0, r2, r4}
    2db8:	17140500 	ldrne	r0, [r4, -r0, lsl #10]
    2dbc:	00ca0000 	sbceq	r0, sl, r0
    2dc0:	0010bd05 	andseq	fp, r0, r5, lsl #26
    2dc4:	0500cb00 	streq	ip, [r0, #-2816]	; 0xb00
    2dc8:	0000123d 	andeq	r1, r0, sp, lsr r2
    2dcc:	7a0500cc 	bvc	143104 <_start-0x876bcefc>
    2dd0:	cd00001a 	stcgt	0, cr0, [r0, #-104]	; 0xffffff98
    2dd4:	18b50500 	ldmne	r5!, {r8, sl}
    2dd8:	00ce0000 	sbceq	r0, lr, r0
    2ddc:	00124b05 	andseq	r4, r2, r5, lsl #22
    2de0:	0500cf00 	streq	ip, [r0, #-3840]	; 0xf00
    2de4:	0000112f 	andeq	r1, r0, pc, lsr #2
    2de8:	0d0500d0 	stceq	0, cr0, [r5, #-832]	; 0xfffffcc0
    2dec:	d1000012 	tstle	r0, r2, lsl r0
    2df0:	10230500 	eorne	r0, r3, r0, lsl #10
    2df4:	00d20000 	sbcseq	r0, r2, r0
    2df8:	00148305 	andseq	r8, r4, r5, lsl #6
    2dfc:	0500d300 	streq	sp, [r0, #-768]	; 0x300
    2e00:	00001b30 	andeq	r1, r0, r0, lsr fp
    2e04:	730500d4 	movwvc	r0, #20692	; 0x50d4
    2e08:	d5000013 	strle	r0, [r0, #-19]
    2e0c:	12ff0500 	rscsne	r0, pc, #0, 10
    2e10:	00d60000 	sbcseq	r0, r6, r0
    2e14:	001a5f05 	andseq	r5, sl, r5, lsl #30
    2e18:	0500d700 	streq	sp, [r0, #-1792]	; 0x700
    2e1c:	00001626 	andeq	r1, r0, r6, lsr #12
    2e20:	e20500d8 	and	r0, r5, #216	; 0xd8
    2e24:	d9000011 	stmdble	r0, {r0, r4}
    2e28:	15fb0500 	ldrbne	r0, [fp, #1280]!	; 0x500
    2e2c:	00da0000 	sbcseq	r0, sl, r0
    2e30:	001a8e05 	andseq	r8, sl, r5, lsl #28
    2e34:	0500db00 	streq	sp, [r0, #-2816]	; 0xb00
    2e38:	000012bf 			; <UNDEFINED> instruction: 0x000012bf
    2e3c:	710500dc 	ldrdvc	r0, [r5, -ip]
    2e40:	dd000018 	stcle	0, cr0, [r0, #-96]	; 0xffffffa0
    2e44:	111f0500 	tstne	pc, r0, lsl #10
    2e48:	00de0000 	sbcseq	r0, lr, r0
    2e4c:	00152505 	andseq	r2, r5, r5, lsl #10
    2e50:	0500df00 	streq	sp, [r0, #-3840]	; 0xf00
    2e54:	00001ac1 	andeq	r1, r0, r1, asr #21
    2e58:	da0500e0 	ble	1431e0 <_start-0x876bce20>
    2e5c:	e1000012 	tst	r0, r2, lsl r0
    2e60:	114a0500 	cmpne	sl, r0, lsl #10
    2e64:	00e20000 	rsceq	r0, r2, r0
    2e68:	00117405 	andseq	r7, r1, r5, lsl #8
    2e6c:	0500e300 	streq	lr, [r0, #-768]	; 0x300
    2e70:	000019c8 	andeq	r1, r0, r8, asr #19
    2e74:	d30500e4 	movwle	r0, #20708	; 0x50e4
    2e78:	e5000018 	str	r0, [r0, #-24]
    2e7c:	121a0500 	andsne	r0, sl, #0, 10
    2e80:	00e60000 	rsceq	r0, r6, r0
    2e84:	00146905 	andseq	r6, r4, r5, lsl #18
    2e88:	0500e700 	streq	lr, [r0, #-1792]	; 0x700
    2e8c:	0000169f 	muleq	r0, pc, r6	; <UNPREDICTABLE>
    2e90:	540500e8 	strpl	r0, [r5], #-232	; 0xe8
    2e94:	e9000010 	stmdb	r0, {r4}
    2e98:	1a9e0500 	bne	fe7842a0 <__bss_end+0x76f82d14>
    2e9c:	00ea0000 	rsceq	r0, sl, r0
    2ea0:	00180005 	andseq	r0, r8, r5
    2ea4:	0500eb00 	streq	lr, [r0, #-2816]	; 0xb00
    2ea8:	000010eb 	andeq	r1, r0, fp, ror #1
    2eac:	220500ec 	andcs	r0, r5, #236	; 0xec
    2eb0:	ed000017 	stc	0, cr0, [r0, #-92]	; 0xffffffa4
    2eb4:	19430500 	stmdbne	r3, {r8, sl}^
    2eb8:	00ee0000 	rsceq	r0, lr, r0
    2ebc:	00143b05 	andseq	r3, r4, r5, lsl #22
    2ec0:	0500ef00 	streq	lr, [r0, #-3840]	; 0xf00
    2ec4:	000012ea 	andeq	r1, r0, sl, ror #5
    2ec8:	d10500f0 	strdle	r0, [r5, -r0]
    2ecc:	f100001a 	cps	#26
    2ed0:	188c0500 	stmne	ip, {r8, sl}
    2ed4:	00f20000 	rscseq	r0, r2, r0
    2ed8:	00108f05 	andseq	r8, r0, r5, lsl #30
    2edc:	0500f300 	streq	pc, [r0, #-768]	; 0x300
    2ee0:	0000192b 	andeq	r1, r0, fp, lsr #18
    2ee4:	360500f4 			; <UNDEFINED> instruction: 0x360500f4
    2ee8:	f5000013 			; <UNDEFINED> instruction: 0xf5000013
    2eec:	1b0d0500 	blne	3442f4 <_start-0x874bbd0c>
    2ef0:	00f60000 	rscseq	r0, r6, r0
    2ef4:	00193505 	andseq	r3, r9, r5, lsl #10
    2ef8:	0500f700 	streq	pc, [r0, #-1792]	; 0x700
    2efc:	000014a6 	andeq	r1, r0, r6, lsr #9
    2f00:	150500f8 	strne	r0, [r5, #-248]	; 0xf8
    2f04:	f9000014 			; <UNDEFINED> instruction: 0xf9000014
    2f08:	15550500 	ldrbne	r0, [r5, #-1280]	; 0x500
    2f0c:	00fa0000 	rscseq	r0, sl, r0
    2f10:	00102405 	andseq	r2, r0, r5, lsl #8
    2f14:	0500fb00 	streq	pc, [r0, #-2816]	; 0xb00
    2f18:	000018c2 	andeq	r1, r0, r2, asr #17
    2f1c:	590500fc 	stmdbpl	r5, {r2, r3, r4, r5, r6, r7}
    2f20:	fd000018 	stc2	0, cr0, [r0, #-96]	; 0xffffffa0
    2f24:	13e40500 	mvnne	r0, #0, 10
    2f28:	00fe0000 	rscseq	r0, lr, r0
    2f2c:	00195405 	andseq	r5, r9, r5, lsl #8
    2f30:	0500ff00 	streq	pc, [r0, #-3840]	; 0xf00
    2f34:	000016d7 	ldrdeq	r1, [r0], -r7
    2f38:	7a050180 	bvc	143540 <_start-0x876bcac0>
    2f3c:	81000019 	tsthi	r0, r9, lsl r0
    2f40:	14eb0501 	strbtne	r0, [fp], #1281	; 0x501
    2f44:	01820000 	orreq	r0, r2, r0
    2f48:	00160b05 	andseq	r0, r6, r5, lsl #22
    2f4c:	05018300 	streq	r8, [r1, #-768]	; 0x300
    2f50:	00001427 	andeq	r1, r0, r7, lsr #8
    2f54:	6d050184 	stfvss	f0, [r5, #-528]	; 0xfffffdf0
    2f58:	85000017 	strhi	r0, [r0, #-23]
    2f5c:	13620501 	cmnne	r2, #4194304	; 0x400000
    2f60:	01860000 	orreq	r0, r6, r0
    2f64:	00116305 	andseq	r6, r1, r5, lsl #6
    2f68:	05018700 	streq	r8, [r1, #-1792]	; 0x700
    2f6c:	0000141e 	andeq	r1, r0, lr, lsl r4
    2f70:	2d050188 	stfcss	f0, [r5, #-544]	; 0xfffffde0
    2f74:	89000010 	stmdbhi	r0, {r4}
    2f78:	177a0501 	ldrbne	r0, [sl, -r1, lsl #10]!
    2f7c:	018a0000 	orreq	r0, sl, r0
    2f80:	00123305 	andseq	r3, r2, r5, lsl #6
    2f84:	05018b00 	streq	r8, [r1, #-2816]	; 0xb00
    2f88:	0000148d 	andeq	r1, r0, sp, lsl #9
    2f8c:	1c05018c 	stfnes	f0, [r5], {140}	; 0x8c
    2f90:	8d000016 	stchi	0, cr0, [r0, #-88]	; 0xffffffa8
    2f94:	106e0501 	rsbne	r0, lr, r1, lsl #10
    2f98:	018e0000 	orreq	r0, lr, r0
    2f9c:	0016cd05 	andseq	ip, r6, r5, lsl #26
    2fa0:	05018f00 	streq	r8, [r1, #-3840]	; 0xf00
    2fa4:	00001a69 	andeq	r1, r0, r9, ror #20
    2fa8:	b4050190 	strlt	r0, [r5], #-400	; 0x190
    2fac:	91000014 	tstls	r0, r4, lsl r0
    2fb0:	16f80501 	ldrbtne	r0, [r8], r1, lsl #10
    2fb4:	01920000 	orrseq	r0, r2, r0
    2fb8:	00114005 	andseq	r4, r1, r5
    2fbc:	05019300 	streq	r9, [r1, #-768]	; 0x300
    2fc0:	000018ab 	andeq	r1, r0, fp, lsr #17
    2fc4:	4c050194 	stfmis	f0, [r5], {148}	; 0x94
    2fc8:	95000014 	strls	r0, [r0, #-20]
    2fcc:	19a50501 	stmibne	r5!, {r0, r8, sl}
    2fd0:	01960000 	orrseq	r0, r6, r0
    2fd4:	00159505 	andseq	r9, r5, r5, lsl #10
    2fd8:	05019700 	streq	r9, [r1, #-1792]	; 0x700
    2fdc:	000015e4 	andeq	r1, r0, r4, ror #11
    2fe0:	ca050198 	bgt	143648 <_start-0x876bc9b8>
    2fe4:	99000013 	stmdbls	r0, {r0, r1, r4}
    2fe8:	13b90501 			; <UNDEFINED> instruction: 0x13b90501
    2fec:	019a0000 	orrseq	r0, sl, r0
    2ff0:	001b5705 	andseq	r5, fp, r5, lsl #14
    2ff4:	05019b00 	streq	r9, [r1, #-2816]	; 0xb00
    2ff8:	0000173b 	andeq	r1, r0, fp, lsr r7
    2ffc:	9005019c 	mulls	r5, ip, r1
    3000:	9d000012 	stcls	0, cr0, [r0, #-72]	; 0xffffffb8
    3004:	19690501 	stmdbne	r9!, {r0, r8, sl}^
    3008:	019e0000 	orrseq	r0, lr, r0
    300c:	001ae905 	andseq	lr, sl, r5, lsl #18
    3010:	00019f00 	andeq	r9, r1, r0, lsl #30
    3014:	0012f506 	andseq	pc, r2, r6, lsl #10
    3018:	6bc50300 	blvs	ff143c20 <__bss_end+0x77942694>
    301c:	07000000 	streq	r0, [r0, -r0]
    3020:	0000004f 	andeq	r0, r0, pc, asr #32
    3024:	00004f08 	andeq	r4, r0, r8, lsl #30
    3028:	00048900 	andeq	r8, r4, r0, lsl #18
    302c:	005d0900 	subseq	r0, sp, r0, lsl #18
    3030:	00020000 	andeq	r0, r2, r0
    3034:	00004108 	andeq	r4, r0, r8, lsl #2
    3038:	00049900 	andeq	r9, r4, r0, lsl #18
    303c:	005d0900 	subseq	r0, sp, r0, lsl #18
    3040:	000f0000 	andeq	r0, pc, r0
    3044:	c803140a 	stmdagt	r3, {r1, r3, sl, ip}
    3048:	0004e131 	andeq	lr, r4, r1, lsr r1
    304c:	52430b00 	subpl	r0, r3, #0, 22
    3050:	31c90300 	biccc	r0, r9, r0, lsl #6
    3054:	00000474 	andeq	r0, r0, r4, ror r4
    3058:	52530b00 	subspl	r0, r3, #0, 22
    305c:	31ca0300 	biccc	r0, sl, r0, lsl #6
    3060:	00000474 	andeq	r0, r0, r4, ror r4
    3064:	524c0b04 	subpl	r0, ip, #4, 22	; 0x1000
    3068:	31cb0300 	biccc	r0, fp, r0, lsl #6
    306c:	00000474 	andeq	r0, r0, r4, ror r4
    3070:	1b8f0c08 	blne	fe3c6098 <__bss_end+0x76bc4b0c>
    3074:	cc030000 	stcgt	0, cr0, [r3], {-0}
    3078:	00047431 	andeq	r7, r4, r1, lsr r4
    307c:	430b0c00 	movwmi	r0, #48128	; 0xbc00
    3080:	0300524e 	movweq	r5, #590	; 0x24e
    3084:	047431cd 	ldrbteq	r3, [r4], #-461	; 0x1cd
    3088:	00100000 	andseq	r0, r0, r0
    308c:	001b6d0d 	andseq	r6, fp, sp, lsl #26
    3090:	31ce0300 	biccc	r0, lr, r0, lsl #6
    3094:	00000499 	muleq	r0, r9, r4
    3098:	00004f08 	andeq	r4, r0, r8, lsl #30
    309c:	0004fd00 	andeq	pc, r4, r0, lsl #26
    30a0:	005d0900 	subseq	r0, sp, r0, lsl #18
    30a4:	00050000 	andeq	r0, r5, r0
    30a8:	ac03200a 	stcge	0, cr2, [r3], {10}
    30ac:	00056e34 	andeq	r6, r5, r4, lsr lr
    30b0:	52440b00 	subpl	r0, r4, #0, 22
    30b4:	34ad0300 	strtcc	r0, [sp], #768	; 0x300
    30b8:	00000474 	andeq	r0, r0, r4, ror r4
    30bc:	015e0c00 	cmpeq	lr, r0, lsl #24
    30c0:	ae030000 	cdpge	0, 0, cr0, cr3, cr0, {0}
    30c4:	00047434 	andeq	r7, r4, r4, lsr r4
    30c8:	500b0400 	andpl	r0, fp, r0, lsl #8
    30cc:	03005253 	movweq	r5, #595	; 0x253
    30d0:	047434af 	ldrbteq	r3, [r4], #-1199	; 0x4af
    30d4:	0c080000 	stceq	0, cr0, [r8], {-0}
    30d8:	0000024c 	andeq	r0, r0, ip, asr #4
    30dc:	7434b003 	ldrtvc	fp, [r4], #-3
    30e0:	0c000004 	stceq	0, cr0, [r0], {4}
    30e4:	0002510c 	andeq	r5, r2, ip, lsl #2
    30e8:	34b10300 	ldrtcc	r0, [r1], #768	; 0x300
    30ec:	00000474 	andeq	r0, r0, r4, ror r4
    30f0:	4d490b10 	vstrmi	d16, [r9, #-64]	; 0xffffffc0
    30f4:	b2030052 	andlt	r0, r3, #82	; 0x52
    30f8:	00047434 	andeq	r7, r4, r4, lsr r4
    30fc:	490b1400 	stmdbmi	fp, {sl, ip}
    3100:	03005253 	movweq	r5, #595	; 0x253
    3104:	047434b3 	ldrbteq	r3, [r4], #-1203	; 0x4b3
    3108:	0c180000 	ldceq	0, cr0, [r8], {-0}
    310c:	00000243 	andeq	r0, r0, r3, asr #4
    3110:	7434b403 	ldrtvc	fp, [r4], #-1027	; 0x403
    3114:	1c000004 	stcne	0, cr0, [r0], {4}
    3118:	01d90d00 	bicseq	r0, r9, r0, lsl #26
    311c:	b5030000 	strlt	r0, [r3, #-0]
    3120:	0004fd34 	andeq	pc, r4, r4, lsr sp	; <UNPREDICTABLE>
    3124:	004f0800 	subeq	r0, pc, r0, lsl #16
    3128:	058a0000 	streq	r0, [sl]
    312c:	5d090000 	stcpl	0, cr0, [r9, #-0]
    3130:	6f000000 	svcvs	0x00000000
    3134:	004f0800 	subeq	r0, pc, r0, lsl #16
    3138:	059a0000 	ldreq	r0, [sl]
    313c:	5d090000 	stcpl	0, cr0, [r9, #-0]
    3140:	1f000000 	svcne	0x00000000
    3144:	004f0800 	subeq	r0, pc, r0, lsl #16
    3148:	05aa0000 	streq	r0, [sl, #0]!
    314c:	5d090000 	stcpl	0, cr0, [r9, #-0]
    3150:	0f000000 	svceq	0x00000000
    3154:	30040e00 	andcc	r0, r4, r0, lsl #28
    3158:	34022102 	strcc	r2, [r2], #-258	; 0x102
    315c:	0c000009 	stceq	0, cr0, [r0], {9}
    3160:	0000178e 	andeq	r1, r0, lr, lsl #15
    3164:	34022302 	strcc	r2, [r2], #-770	; 0x302
    3168:	00000009 	andeq	r0, r0, r9
    316c:	001b290f 	andseq	r2, fp, pc, lsl #18
    3170:	02240200 	eoreq	r0, r4, #0, 4
    3174:	00000474 	andeq	r0, r0, r4, ror r4
    3178:	4b0f1000 	blmi	3c7180 <_start-0x87438e80>
    317c:	02000013 	andeq	r0, r0, #19
    3180:	09450225 	stmdbeq	r5, {r0, r2, r5, r9}^
    3184:	10040000 	andne	r0, r4, r0
    3188:	0012060f 	andseq	r0, r2, pc, lsl #12
    318c:	02260200 	eoreq	r0, r6, #0, 4
    3190:	00000945 	andeq	r0, r0, r5, asr #18
    3194:	980f1008 	stmdals	pc, {r3, ip}	; <UNPREDICTABLE>
    3198:	02000017 	andeq	r0, r0, #23
    319c:	094a0227 	stmdbeq	sl, {r0, r1, r2, r5, r9}^
    31a0:	100c0000 	andne	r0, ip, r0
    31a4:	00184f0f 	andseq	r4, r8, pc, lsl #30
    31a8:	02280200 	eoreq	r0, r8, #0, 4
    31ac:	0000095a 	andeq	r0, r0, sl, asr r9
    31b0:	a20f1080 	andge	r1, pc, #128	; 0x80
    31b4:	02000017 	andeq	r0, r0, #23
    31b8:	059a0229 	ldreq	r0, [sl, #553]	; 0x229
    31bc:	10c00000 	sbcne	r0, r0, r0
    31c0:	00164c0f 	andseq	r4, r6, pc, lsl #24
    31c4:	022a0200 	eoreq	r0, sl, #0, 4
    31c8:	0000095f 	andeq	r0, r0, pc, asr r9
    31cc:	ac0f1100 	stfges	f1, [pc], {-0}
    31d0:	02000017 	andeq	r0, r0, #23
    31d4:	059a022b 	ldreq	r0, [sl, #555]	; 0x22b
    31d8:	11400000 	mrsne	r0, (UNDEF: 64)
    31dc:	0018950f 	andseq	r9, r8, pc, lsl #10
    31e0:	022c0200 	eoreq	r0, ip, #0, 4
    31e4:	00000964 	andeq	r0, r0, r4, ror #18
    31e8:	b60f1180 	strlt	r1, [pc], -r0, lsl #3
    31ec:	02000017 	andeq	r0, r0, #23
    31f0:	059a022d 	ldreq	r0, [sl, #557]	; 0x22d
    31f4:	11c00000 	bicne	r0, r0, r0
    31f8:	0014e10f 	andseq	lr, r4, pc, lsl #2
    31fc:	022e0200 	eoreq	r0, lr, #0, 4
    3200:	00000969 	andeq	r0, r0, r9, ror #18
    3204:	c00f1200 	andgt	r1, pc, r0, lsl #4
    3208:	02000017 	andeq	r0, r0, #23
    320c:	059a022f 	ldreq	r0, [sl, #559]	; 0x22f
    3210:	12400000 	subne	r0, r0, #0
    3214:	0018a10f 	andseq	sl, r8, pc, lsl #2
    3218:	02300200 	eorseq	r0, r0, #0, 4
    321c:	0000096e 	andeq	r0, r0, lr, ror #18
    3220:	ca0f1280 	bgt	3c7c28 <_start-0x874383d8>
    3224:	02000017 	andeq	r0, r0, #23
    3228:	059a0231 	ldreq	r0, [sl, #561]	; 0x231
    322c:	12c00000 	sbcne	r0, r0, #0
    3230:	0010b10f 	andseq	fp, r0, pc, lsl #2
    3234:	02320200 	eorseq	r0, r2, #0, 4
    3238:	00000973 	andeq	r0, r0, r3, ror r9
    323c:	d40f1300 	strle	r1, [pc], #-768	; 3244 <_start-0x877fcdbc>
    3240:	02000017 	andeq	r0, r0, #23
    3244:	059a0233 	ldreq	r0, [sl, #563]	; 0x233
    3248:	13400000 	movtne	r0, #0
    324c:	0012b30f 	andseq	fp, r2, pc, lsl #6
    3250:	02340200 	eorseq	r0, r4, #0, 4
    3254:	00000978 	andeq	r0, r0, r8, ror r9
    3258:	5c0f1380 	stcpl	3, cr1, [pc], {128}	; 0x80
    325c:	02000012 	andeq	r0, r0, #18
    3260:	059a0235 	ldreq	r0, [sl, #565]	; 0x235
    3264:	13c00000 	bicne	r0, r0, #0
    3268:	001adc0f 	andseq	sp, sl, pc, lsl #24
    326c:	02360200 	eorseq	r0, r6, #0, 4
    3270:	0000098e 	andeq	r0, r0, lr, lsl #19
    3274:	e60f1400 	str	r1, [pc], -r0, lsl #8
    3278:	02000017 	andeq	r0, r0, #23
    327c:	09930237 	ldmibeq	r3, {r0, r1, r2, r4, r5, r9}
    3280:	16000000 	strne	r0, [r0], -r0
    3284:	0019b00f 	andseq	fp, r9, pc
    3288:	02380200 	eorseq	r0, r8, #0, 4
    328c:	000009a3 	andeq	r0, r0, r3, lsr #19
    3290:	e10f1800 	tst	pc, r0, lsl #16
    3294:	02000019 	andeq	r0, r0, #25
    3298:	09930239 	ldmibeq	r3, {r0, r3, r4, r5, r9}
    329c:	1a000000 	bne	32a4 <_start-0x877fcd5c>
    32a0:	00174c0f 	andseq	r4, r7, pc, lsl #24
    32a4:	023a0200 	eorseq	r0, sl, #0, 4
    32a8:	000009a8 	andeq	r0, r0, r8, lsr #19
    32ac:	ec0f1c00 	stc	12, cr1, [pc], {-0}
    32b0:	02000019 	andeq	r0, r0, #25
    32b4:	058a023b 	streq	r0, [sl, #571]	; 0x23b
    32b8:	1c800000 	stcne	0, cr0, [r0], {0}
    32bc:	0017de0f 	andseq	sp, r7, pc, lsl #28
    32c0:	023c0200 	eorseq	r0, ip, #0, 4
    32c4:	00000945 	andeq	r0, r0, r5, asr #18
    32c8:	330f1d00 	movwcc	r1, #64768	; 0xfd00
    32cc:	02000017 	andeq	r0, r0, #23
    32d0:	09bd023d 	ldmibeq	sp!, {r0, r2, r3, r4, r5, r9}
    32d4:	1d040000 	stcne	0, cr0, [r4, #-0]
    32d8:	0019f70f 	andseq	pc, r9, pc, lsl #14
    32dc:	023e0200 	eorseq	r0, lr, #0, 4
    32e0:	0000057a 	andeq	r0, r0, sl, ror r5
    32e4:	8e0f1d40 	cdphi	13, 0, cr1, cr15, cr0, {2}
    32e8:	02000015 	andeq	r0, r0, #21
    32ec:	0474023f 	ldrbteq	r0, [r4], #-575	; 0x23f
    32f0:	1f000000 	svcne	0x00000000
    32f4:	001a020f 	andseq	r0, sl, pc, lsl #4
    32f8:	02400200 	subeq	r0, r0, #0, 4
    32fc:	00000479 	andeq	r0, r0, r9, ror r4
    3300:	bc0f1f04 	stclt	15, cr1, [pc], {4}
    3304:	02000019 	andeq	r0, r0, #25
    3308:	09c70241 	stmibeq	r7, {r0, r6, r9}^
    330c:	1f100000 	svcne	0x00100000
    3310:	0014c50f 	andseq	ip, r4, pc, lsl #10
    3314:	02420200 	subeq	r0, r2, #0, 4
    3318:	000009cc 	andeq	r0, r0, ip, asr #19
    331c:	0d0f1f20 	stceq	15, cr1, [pc, #-128]	; 32a4 <_start-0x877fcd5c>
    3320:	0200001a 	andeq	r0, r0, #26
    3324:	09d10243 	ldmibeq	r1, {r0, r1, r6, r9}^
    3328:	1f300000 	svcne	0x00300000
    332c:	0016780f 	andseq	r7, r6, pc, lsl #16
    3330:	02440200 	subeq	r0, r4, #0, 4
    3334:	00000945 	andeq	r0, r0, r5, asr #18
    3338:	800f1fd0 	ldrdhi	r1, [pc], -r0
    333c:	02000016 	andeq	r0, r0, #22
    3340:	09450245 	stmdbeq	r5, {r0, r2, r6, r9}^
    3344:	1fd40000 	svcne	0x00d40000
    3348:	0016880f 	andseq	r8, r6, pc, lsl #16
    334c:	02460200 	subeq	r0, r6, #0, 4
    3350:	00000945 	andeq	r0, r0, r5, asr #18
    3354:	900f1fd8 	ldrdls	r1, [pc], -r8
    3358:	02000016 	andeq	r0, r0, #22
    335c:	09450247 	stmdbeq	r5, {r0, r1, r2, r6, r9}^
    3360:	1fdc0000 	svcne	0x00dc0000
    3364:	0016580f 	andseq	r5, r6, pc, lsl #16
    3368:	02480200 	subeq	r0, r8, #0, 4
    336c:	00000945 	andeq	r0, r0, r5, asr #18
    3370:	600f1fe0 	andvs	r1, pc, r0, ror #31
    3374:	02000016 	andeq	r0, r0, #22
    3378:	09450249 	stmdbeq	r5, {r0, r3, r6, r9}^
    337c:	1fe40000 	svcne	0x00e40000
    3380:	0016680f 	andseq	r6, r6, pc, lsl #16
    3384:	024a0200 	subeq	r0, sl, #0, 4
    3388:	00000945 	andeq	r0, r0, r5, asr #18
    338c:	700f1fe8 	andvc	r1, pc, r8, ror #31
    3390:	02000016 	andeq	r0, r0, #22
    3394:	0945024b 	stmdbeq	r5, {r0, r1, r3, r6, r9}^
    3398:	1fec0000 	svcne	0x00ec0000
    339c:	0010cb0f 	andseq	ip, r0, pc, lsl #22
    33a0:	024c0200 	subeq	r0, ip, #0, 4
    33a4:	00000945 	andeq	r0, r0, r5, asr #18
    33a8:	d30f1ff0 	movwle	r1, #65520	; 0xfff0
    33ac:	02000010 	andeq	r0, r0, #16
    33b0:	0945024d 	stmdbeq	r5, {r0, r2, r3, r6, r9}^
    33b4:	1ff40000 	svcne	0x00f40000
    33b8:	0010db0f 	andseq	sp, r0, pc, lsl #22
    33bc:	024e0200 	subeq	r0, lr, #0, 4
    33c0:	00000945 	andeq	r0, r0, r5, asr #18
    33c4:	e30f1ff8 	movw	r1, #65528	; 0xfff8
    33c8:	02000010 	andeq	r0, r0, #16
    33cc:	0945024f 	stmdbeq	r5, {r0, r1, r2, r3, r6, r9}^
    33d0:	1ffc0000 	svcne	0x00fc0000
    33d4:	001b500f 	andseq	r5, fp, pc
    33d8:	02510200 	subseq	r0, r1, #0, 4
    33dc:	00000474 	andeq	r0, r0, r4, ror r4
    33e0:	a10f2000 	mrsge	r2, CPSR
    33e4:	02000012 	andeq	r0, r0, #18
    33e8:	04740252 	ldrbteq	r0, [r4], #-594	; 0x252
    33ec:	20040000 	andcs	r0, r4, r0
    33f0:	001a880f 	andseq	r8, sl, pc, lsl #16
    33f4:	02530200 	subseq	r0, r3, #0, 4
    33f8:	00000474 	andeq	r0, r0, r4, ror r4
    33fc:	290f2008 	stmdbcs	pc, {r3, sp}	; <UNPREDICTABLE>
    3400:	02000018 	andeq	r0, r0, #24
    3404:	09450254 	stmdbeq	r5, {r2, r4, r6, r9}^
    3408:	200c0000 	andcs	r0, ip, r0
    340c:	001b170f 	andseq	r1, fp, pc, lsl #14
    3410:	02550200 	subseq	r0, r5, #0, 4
    3414:	00000474 	andeq	r0, r0, r4, ror r4
    3418:	8a0f2010 	bhi	3cb460 <_start-0x87434ba0>
    341c:	02000012 	andeq	r0, r0, #18
    3420:	09450256 	stmdbeq	r5, {r1, r2, r4, r6, r9}^
    3424:	20140000 	andscs	r0, r4, r0
    3428:	00101b0f 	andseq	r1, r0, pc, lsl #22
    342c:	02570200 	subseq	r0, r7, #0, 4
    3430:	00000945 	andeq	r0, r0, r5, asr #18
    3434:	060f2018 			; <UNDEFINED> instruction: 0x060f2018
    3438:	0200001b 	andeq	r0, r0, #27
    343c:	04740258 	ldrbteq	r0, [r4], #-600	; 0x258
    3440:	201c0000 	andscs	r0, ip, r0
    3444:	00186a0f 	andseq	r6, r8, pc, lsl #20
    3448:	02590200 	subseq	r0, r9, #0, 4
    344c:	00000945 	andeq	r0, r0, r5, asr #18
    3450:	2f0f2020 	svccs	0x000f2020
    3454:	02000018 	andeq	r0, r0, #24
    3458:	0474025a 	ldrbteq	r0, [r4], #-602	; 0x25a
    345c:	20240000 	eorcs	r0, r4, r0
    3460:	00151c0f 	andseq	r1, r5, pc, lsl #24
    3464:	025b0200 	subseq	r0, fp, #0, 4
    3468:	00000945 	andeq	r0, r0, r5, asr #18
    346c:	180f2028 	stmdane	pc, {r3, r5, sp}	; <UNPREDICTABLE>
    3470:	0200001a 	andeq	r0, r0, #26
    3474:	09e1025c 	stmibeq	r1!, {r2, r3, r4, r6, r9}^
    3478:	202c0000 	eorcs	r0, ip, r0
    347c:	00170d0f 	andseq	r0, r7, pc, lsl #26
    3480:	025d0200 	subseq	r0, sp, #0, 4
    3484:	00000474 	andeq	r0, r0, r4, ror r4
    3488:	230f20d0 	movwcs	r2, #61648	; 0xf0d0
    348c:	0200001a 	andeq	r0, r0, #26
    3490:	0479025e 	ldrbteq	r0, [r9], #-606	; 0x25e
    3494:	20d40000 	sbcscs	r0, r4, r0
    3498:	0018370f 	andseq	r3, r8, pc, lsl #14
    349c:	025f0200 	subseq	r0, pc, #0, 4
    34a0:	00000474 	andeq	r0, r0, r4, ror r4
    34a4:	2e0f20e0 	cdpcs	0, 0, cr2, cr15, cr0, {7}
    34a8:	0200001a 	andeq	r0, r0, #26
    34ac:	04ed0260 	strbteq	r0, [sp], #608	; 0x260
    34b0:	20e40000 	rsccs	r0, r4, r0
    34b4:	0016980f 	andseq	r9, r6, pc, lsl #16
    34b8:	02610200 	rsbeq	r0, r1, #0, 4
    34bc:	00000945 	andeq	r0, r0, r5, asr #18
    34c0:	390f20fc 	stmdbcc	pc, {r2, r3, r4, r5, r6, r7, sp}	; <UNPREDICTABLE>
    34c4:	0200001a 	andeq	r0, r0, #26
    34c8:	09f10262 	ldmibeq	r1!, {r1, r5, r6, r9}^
    34cc:	21000000 	mrscs	r0, (UNDEF: 0)
    34d0:	0011f70f 	andseq	pc, r1, pc, lsl #14
    34d4:	02630200 	rsbeq	r0, r3, #0, 4
    34d8:	00000474 	andeq	r0, r0, r4, ror r4
    34dc:	08003000 	stmdaeq	r0, {ip, sp}
    34e0:	0000004f 	andeq	r0, r0, pc, asr #32
    34e4:	00000945 	andeq	r0, r0, r5, asr #18
    34e8:	00005d10 	andeq	r5, r0, r0, lsl sp
    34ec:	0003ff00 	andeq	pc, r3, r0, lsl #30
    34f0:	00047411 	andeq	r7, r4, r1, lsl r4
    34f4:	004f0800 	subeq	r0, pc, r0, lsl #16
    34f8:	095a0000 	ldmdbeq	sl, {}^	; <UNPREDICTABLE>
    34fc:	5d090000 	stcpl	0, cr0, [r9, #-0]
    3500:	1c000000 	stcne	0, cr0, [r0], {-0}
    3504:	059a0700 	ldreq	r0, [sl, #1792]	; 0x700
    3508:	9a070000 	bls	1c3510 <_start-0x8763caf0>
    350c:	07000005 	streq	r0, [r0, -r5]
    3510:	0000059a 	muleq	r0, sl, r5
    3514:	00059a07 	andeq	r9, r5, r7, lsl #20
    3518:	059a0700 	ldreq	r0, [sl, #1792]	; 0x700
    351c:	9a070000 	bls	1c3524 <_start-0x8763cadc>
    3520:	07000005 	streq	r0, [r0, -r5]
    3524:	0000059a 	muleq	r0, sl, r5
    3528:	00004108 	andeq	r4, r0, r8, lsl #2
    352c:	00098e00 	andeq	r8, r9, r0, lsl #28
    3530:	005d1000 	subseq	r1, sp, r0
    3534:	01ff0000 	mvnseq	r0, r0
    3538:	097d0700 	ldmdbeq	sp!, {r8, r9, sl}^
    353c:	4f080000 	svcmi	0x00080000
    3540:	a3000000 	movwge	r0, #0
    3544:	09000009 	stmdbeq	r0, {r0, r3}
    3548:	0000005d 	andeq	r0, r0, sp, asr r0
    354c:	7d07007f 	stcvc	0, cr0, [r7, #-508]	; 0xfffffe04
    3550:	07000009 	streq	r0, [r0, -r9]
    3554:	0000058a 	andeq	r0, r0, sl, lsl #11
    3558:	00004f08 	andeq	r4, r0, r8, lsl #30
    355c:	0009bd00 	andeq	fp, r9, r0, lsl #26
    3560:	005d0900 	subseq	r0, sp, r0, lsl #18
    3564:	000e0000 	andeq	r0, lr, r0
    3568:	0009c211 	andeq	ip, r9, r1, lsl r2
    356c:	09ad0700 	stmibeq	sp!, {r8, r9, sl}
    3570:	89070000 	stmdbhi	r7, {}	; <UNPREDICTABLE>
    3574:	07000004 	streq	r0, [r0, -r4]
    3578:	00000489 	andeq	r0, r0, r9, lsl #9
    357c:	00004f08 	andeq	r4, r0, r8, lsl #30
    3580:	0009e100 	andeq	lr, r9, r0, lsl #2
    3584:	005d0900 	subseq	r0, sp, r0, lsl #18
    3588:	00270000 	eoreq	r0, r7, r0
    358c:	00004f08 	andeq	r4, r0, r8, lsl #30
    3590:	0009f100 	andeq	pc, r9, r0, lsl #2
    3594:	005d0900 	subseq	r0, sp, r0, lsl #18
    3598:	00280000 	eoreq	r0, r8, r0
    359c:	00004f08 	andeq	r4, r0, r8, lsl #30
    35a0:	000a0200 	andeq	r0, sl, r0, lsl #4
    35a4:	005d1000 	subseq	r1, sp, r0
    35a8:	03bf0000 			; <UNDEFINED> instruction: 0x03bf0000
    35ac:	140c0d00 	strne	r0, [ip], #-3328	; 0xd00
    35b0:	64020000 	strvs	r0, [r2], #-0
    35b4:	0005aa02 	andeq	sl, r5, r2, lsl #20
    35b8:	13041200 	movwne	r1, #16896	; 0x4200
    35bc:	00001084 	andeq	r1, r0, r4, lsl #1
    35c0:	4f021302 	svcmi	0x00021302
    35c4:	03000000 	movweq	r0, #0
    35c8:	00000a30 	andeq	r0, r0, r0, lsr sl
    35cc:	1b4a1514 	blne	1288a24 <_start-0x865775dc>
    35d0:	15020000 	strne	r0, [r2, #-0]
    35d4:	00004f02 	andeq	r4, r0, r2, lsl #30
    35d8:	16000000 	strne	r0, [r0], -r0
    35dc:	0000126e 	andeq	r1, r0, lr, ror #4
    35e0:	03028902 	movweq	r8, #10498	; 0x2902
    35e4:	00000a56 	andeq	r0, r0, r6, asr sl
    35e8:	00194f17 	andseq	r4, r9, r7, lsl pc
    35ec:	02890200 	addeq	r0, r9, #0, 4
    35f0:	00000469 	andeq	r0, r0, r9, ror #8
    35f4:	63696718 	cmnvs	r9, #24, 14	; 0x600000
    35f8:	028b0200 	addeq	r0, fp, #0, 4
    35fc:	00000a56 	andeq	r0, r0, r6, asr sl
    3600:	02041900 	andeq	r1, r4, #0, 18
    3604:	1a00000a 	bne	3634 <_start-0x877fc9cc>
    3608:	00001b85 	andeq	r1, r0, r5, lsl #23
    360c:	0d300401 	cfldrseq	mvf0, [r0, #-4]!
    3610:	00dc8780 	sbcseq	r8, ip, r0, lsl #15
    3614:	9c010000 	stcls	0, cr0, [r1], {-0}
    3618:	00000adb 	ldrdeq	r0, [r0], -fp
    361c:	001b681b 	andseq	r6, fp, fp, lsl r8
    3620:	4f040100 	svcmi	0x00040100
    3624:	02000000 	andeq	r0, r0, #0
    3628:	c91b6491 	ldmdbgt	fp, {r0, r4, r7, sl, sp, lr}
    362c:	0100000f 	tsteq	r0, pc
    3630:	00004f04 	andeq	r4, r0, r4, lsl #30
    3634:	60910200 	addsvs	r0, r1, r0, lsl #4
    3638:	000a301c 	andeq	r3, sl, ip, lsl r0
    363c:	800dd000 	andhi	sp, sp, r0
    3640:	00002687 	andeq	r2, r0, r7, lsl #13
    3644:	1d160100 	ldfnes	f0, [r6, #-0]
    3648:	00000a3d 	andeq	r0, r0, sp, lsr sl
    364c:	1e749102 	expnes	f1, f2
    3650:	87800dd0 			; <UNDEFINED> instruction: 0x87800dd0
    3654:	00000026 	andeq	r0, r0, r6, lsr #32
    3658:	000a491f 	andeq	r4, sl, pc, lsl r9
    365c:	6c910200 	lfmvs	f0, 4, [r1], {0}
    3660:	000a1020 	andeq	r1, sl, r0, lsr #32
    3664:	800dd000 	andhi	sp, sp, r0
    3668:	00000887 	andeq	r0, r0, r7, lsl #17
    366c:	028b0200 	addeq	r0, fp, #0, 4
    3670:	800dd01e 	andhi	sp, sp, lr, lsl r0
    3674:	00000887 	andeq	r0, r0, r7, lsl #17
    3678:	0a221f00 	beq	88b280 <_start-0x86f74d80>
    367c:	91020000 	mrsls	r0, (UNDEF: 2)
    3680:	00000070 	andeq	r0, r0, r0, ror r0
    3684:	941a0000 	ldrls	r0, [sl], #-0
    3688:	0100001b 	tsteq	r0, fp, lsl r0
    368c:	800e0c22 	andhi	r0, lr, r2, lsr #24
    3690:	00007c87 	andeq	r7, r0, r7, lsl #25
    3694:	1e9c0100 	fmlnee	f0, f4, f0
    3698:	1b00000b 	blne	36cc <_start-0x877fc934>
    369c:	00001266 	andeq	r1, r0, r6, ror #4
    36a0:	004f2201 	subeq	r2, pc, r1, lsl #4
    36a4:	91020000 	mrsls	r0, (UNDEF: 2)
    36a8:	1d891b74 	vstrne	d1, [r9, #464]	; 0x1d0
    36ac:	22010000 	andcs	r0, r1, #0
    36b0:	00000a0e 	andeq	r0, r0, lr, lsl #20
    36b4:	21709102 	cmncs	r0, r2, lsl #2
    36b8:	00000a6e 	andeq	r0, r0, lr, ror #20
    36bc:	00412501 	subeq	r2, r1, r1, lsl #10
    36c0:	03050000 	movweq	r0, #20480	; 0x5000
    36c4:	87801084 	strhi	r1, [r0, r4, lsl #1]
    36c8:	1b772200 	blne	1dcbed0 <_start-0x85a34130>
    36cc:	41010000 	mrsmi	r0, (UNDEF: 1)
    36d0:	87800e88 	strhi	r0, [r0, r8, lsl #29]
    36d4:	00000020 	andeq	r0, r0, r0, lsr #32
    36d8:	b8239c01 	stmdalt	r3!, {r0, sl, fp, ip, pc}
    36dc:	0100001b 	tsteq	r0, fp, lsl r0
    36e0:	800ea847 	andhi	sl, lr, r7, asr #16
    36e4:	00003087 	andeq	r3, r0, r7, lsl #1
    36e8:	1b9c0100 	blne	fe703af0 <__bss_end+0x76f02564>
    36ec:	00000fc9 	andeq	r0, r0, r9, asr #31
    36f0:	004f4701 	subeq	r4, pc, r1, lsl #14
    36f4:	91020000 	mrsls	r0, (UNDEF: 2)
    36f8:	02000074 	andeq	r0, r0, #116	; 0x74
    36fc:	0400000d 	streq	r0, [r0], #-13
    3700:	000a2200 	andeq	r2, sl, r0, lsl #4
    3704:	0e010400 	cfcpyseq	mvf0, mvf1
    3708:	01000000 	mrseq	r0, (UNDEF: 0)
    370c:	00001c41 	andeq	r1, r0, r1, asr #24
    3710:	000000b1 	strheq	r0, [r0], -r1
    3714:	87800ed8 			; <UNDEFINED> instruction: 0x87800ed8
    3718:	0000019e 	muleq	r0, lr, r1
    371c:	00000509 	andeq	r0, r0, r9, lsl #10
    3720:	a0060102 	andge	r0, r6, r2, lsl #2
    3724:	02000000 	andeq	r0, r0, #0
    3728:	00ed0502 	rsceq	r0, sp, r2, lsl #10
    372c:	04030000 	streq	r0, [r3], #-0
    3730:	746e6905 	strbtvc	r6, [lr], #-2309	; 0x905
    3734:	05080200 	streq	r0, [r8, #-512]	; 0x200
    3738:	00000000 	andeq	r0, r0, r0
    373c:	9e080102 	adflse	f0, f0, f2
    3740:	02000000 	andeq	r0, r0, #0
    3744:	00da0702 	sbcseq	r0, sl, r2, lsl #14
    3748:	04020000 	streq	r0, [r2], #-0
    374c:	00009107 	andeq	r9, r0, r7, lsl #2
    3750:	07080200 	streq	r0, [r8, -r0, lsl #4]
    3754:	00000087 	andeq	r0, r0, r7, lsl #1
    3758:	f7070402 			; <UNDEFINED> instruction: 0xf7070402
    375c:	02000000 	andeq	r0, r0, #0
    3760:	00a70801 	adceq	r0, r7, r1, lsl #16
    3764:	4f040000 	svcmi	0x00040000
    3768:	04000019 	streq	r0, [r0], #-25
    376c:	04692703 	strbteq	r2, [r9], #-1795	; 0x703
    3770:	7c050000 	stcvc	0, cr0, [r5], {-0}
    3774:	80000012 	andhi	r0, r0, r2, lsl r0
    3778:	11d3057f 	bicsne	r0, r3, pc, ror r5
    377c:	05000000 	streq	r0, [r0, #-0]
    3780:	0000181a 	andeq	r1, r0, sl, lsl r8
    3784:	13530501 	cmpne	r3, #4194304	; 0x400000
    3788:	05020000 	streq	r0, [r2, #-0]
    378c:	00001b3b 	andeq	r1, r0, fp, lsr fp
    3790:	15a50503 	strne	r0, [r5, #1283]!	; 0x503
    3794:	05040000 	streq	r0, [r4, #-0]
    3798:	0000118e 	andeq	r1, r0, lr, lsl #3
    379c:	19120505 	ldmdbne	r2, {r0, r2, r8, sl}
    37a0:	05060000 	streq	r0, [r6, #-0]
    37a4:	0000130d 	andeq	r1, r0, sp, lsl #6
    37a8:	1af70507 	bne	ffdc4bcc <__bss_end+0x785c3640>
    37ac:	05080000 	streq	r0, [r8, #-0]
    37b0:	000016e9 	andeq	r1, r0, r9, ror #13
    37b4:	19950509 	ldmibne	r5, {r0, r3, r8, sl}
    37b8:	050a0000 	streq	r0, [sl, #-0]
    37bc:	00001a44 	andeq	r1, r0, r4, asr #20
    37c0:	15b4050b 	ldrne	r0, [r4, #1291]!	; 0x50b
    37c4:	050c0000 	streq	r0, [ip, #-0]
    37c8:	0000119d 	muleq	r0, sp, r1
    37cc:	17f0050d 	ldrbne	r0, [r0, sp, lsl #10]!
    37d0:	050e0000 	streq	r0, [lr, #-0]
    37d4:	0000131c 	andeq	r1, r0, ip, lsl r3
    37d8:	1566050f 	strbne	r0, [r6, #-1295]!	; 0x50f
    37dc:	05190000 	ldreq	r0, [r9, #-0]
    37e0:	00001540 	andeq	r1, r0, r0, asr #10
    37e4:	163a051a 			; <UNDEFINED> instruction: 0x163a051a
    37e8:	051b0000 	ldreq	r0, [fp, #-0]
    37ec:	00001456 	andeq	r1, r0, r6, asr r4
    37f0:	10ff051c 	rscsne	r0, pc, ip, lsl r5	; <UNPREDICTABLE>
    37f4:	051d0000 	ldreq	r0, [sp, #-0]
    37f8:	000010fc 	strdeq	r1, [r0], -ip
    37fc:	14f5051e 	ldrbtne	r0, [r5], #1310	; 0x51e
    3800:	051f0000 	ldreq	r0, [pc, #-0]	; 3808 <_start-0x877fc7f8>
    3804:	00001504 	andeq	r1, r0, r4, lsl #10
    3808:	18ed0520 	stmiane	sp!, {r5, r8, sl}^
    380c:	05210000 	streq	r0, [r1, #-0]!
    3810:	00001908 	andeq	r1, r0, r8, lsl #18
    3814:	15d10522 	ldrbne	r0, [r1, #1314]	; 0x522
    3818:	05230000 	streq	r0, [r3, #-0]!
    381c:	000013da 	ldrdeq	r1, [r0], -sl
    3820:	12cf0524 	sbcne	r0, pc, #36, 10	; 0x9000000
    3824:	05250000 	streq	r0, [r5, #-0]!
    3828:	000015da 	ldrdeq	r1, [r0], -sl
    382c:	11fd0526 	mvnsne	r0, r6, lsr #10
    3830:	05270000 	streq	r0, [r7, #-0]!
    3834:	00001498 	muleq	r0, r8, r4
    3838:	18400528 	stmdane	r0, {r3, r5, r8, sl}^
    383c:	05290000 	streq	r0, [r9, #-0]!
    3840:	000013fd 	strdeq	r1, [r0], -sp
    3844:	1535052a 	ldrne	r0, [r5, #-1322]!	; 0x52a
    3848:	052b0000 	streq	r0, [fp, #-0]!
    384c:	000014d1 	ldrdeq	r1, [r0], -r1	; <UNPREDICTABLE>
    3850:	10a7052c 	adcne	r0, r7, ip, lsr #10
    3854:	052d0000 	streq	r0, [sp, #-0]!
    3858:	00001431 	andeq	r1, r0, r1, lsr r4
    385c:	11b7052e 			; <UNDEFINED> instruction: 0x11b7052e
    3860:	052f0000 	streq	r0, [pc, #-0]!	; 3868 <_start-0x877fc798>
    3864:	000018f6 	strdeq	r1, [r0], -r6
    3868:	13400530 	movtne	r0, #1328	; 0x530
    386c:	05310000 	ldreq	r0, [r1, #-0]!
    3870:	00001099 	muleq	r0, r9, r0
    3874:	13a20532 			; <UNDEFINED> instruction: 0x13a20532
    3878:	05330000 	ldreq	r0, [r3, #-0]!
    387c:	00001041 	andeq	r1, r0, r1, asr #32
    3880:	16310534 			; <UNDEFINED> instruction: 0x16310534
    3884:	05350000 	ldreq	r0, [r5, #-0]!
    3888:	000015ef 	andeq	r1, r0, pc, ror #11
    388c:	10780536 	rsbsne	r0, r8, r6, lsr r5
    3890:	05370000 	ldreq	r0, [r7, #-0]!
    3894:	000015c4 	andeq	r1, r0, r4, asr #11
    3898:	17540538 	smmlarne	r4, r8, r5, r0
    389c:	05390000 	ldreq	r0, [r9, #-0]!
    38a0:	00001383 	andeq	r1, r0, r3, lsl #7
    38a4:	1a54053a 	bne	1504d94 <_start-0x862fb26c>
    38a8:	053b0000 	ldreq	r0, [fp, #-0]!
    38ac:	00001010 	andeq	r1, r0, r0, lsl r0
    38b0:	11c8053c 	bicne	r0, r8, ip, lsr r5
    38b4:	053d0000 	ldreq	r0, [sp, #-0]!
    38b8:	00001881 	andeq	r1, r0, r1, lsl #17
    38bc:	1510053e 	ldrne	r0, [r0, #-1342]	; 0x53e
    38c0:	053f0000 	ldreq	r0, [pc, #-0]!	; 38c8 <_start-0x877fc738>
    38c4:	00001113 	andeq	r1, r0, r3, lsl r1
    38c8:	610500c0 	smlabtvs	r5, r0, r0, r0
    38cc:	c1000017 	tstgt	r0, r7, lsl r0
    38d0:	12a70500 	adcne	r0, r7, #0, 10
    38d4:	00c20000 	sbceq	r0, r2, r0
    38d8:	0011ed05 	andseq	lr, r1, r5, lsl #26
    38dc:	0500c300 	streq	ip, [r0, #-768]	; 0x300
    38e0:	000011ad 	andeq	r1, r0, sp, lsr #3
    38e4:	210500c4 	smlabtcs	r5, r4, r0, r0
    38e8:	c5000019 	strgt	r0, [r0, #-25]
    38ec:	132c0500 	teqne	ip, #0, 10
    38f0:	00c60000 	sbceq	r0, r6, r0
    38f4:	001b1e05 	andseq	r1, fp, r5, lsl #28
    38f8:	0500c700 	streq	ip, [r0, #-1792]	; 0x700
    38fc:	00001702 	andeq	r1, r0, r2, lsl #14
    3900:	7e0500c8 	cdpvc	0, 0, cr0, cr5, cr8, {6}
    3904:	c9000015 	stmdbgt	r0, {r0, r2, r4}
    3908:	17140500 	ldrne	r0, [r4, -r0, lsl #10]
    390c:	00ca0000 	sbceq	r0, sl, r0
    3910:	0010bd05 	andseq	fp, r0, r5, lsl #26
    3914:	0500cb00 	streq	ip, [r0, #-2816]	; 0xb00
    3918:	0000123d 	andeq	r1, r0, sp, lsr r2
    391c:	7a0500cc 	bvc	143c54 <_start-0x876bc3ac>
    3920:	cd00001a 	stcgt	0, cr0, [r0, #-104]	; 0xffffff98
    3924:	18b50500 	ldmne	r5!, {r8, sl}
    3928:	00ce0000 	sbceq	r0, lr, r0
    392c:	00124b05 	andseq	r4, r2, r5, lsl #22
    3930:	0500cf00 	streq	ip, [r0, #-3840]	; 0xf00
    3934:	0000112f 	andeq	r1, r0, pc, lsr #2
    3938:	0d0500d0 	stceq	0, cr0, [r5, #-832]	; 0xfffffcc0
    393c:	d1000012 	tstle	r0, r2, lsl r0
    3940:	10230500 	eorne	r0, r3, r0, lsl #10
    3944:	00d20000 	sbcseq	r0, r2, r0
    3948:	00148305 	andseq	r8, r4, r5, lsl #6
    394c:	0500d300 	streq	sp, [r0, #-768]	; 0x300
    3950:	00001b30 	andeq	r1, r0, r0, lsr fp
    3954:	730500d4 	movwvc	r0, #20692	; 0x50d4
    3958:	d5000013 	strle	r0, [r0, #-19]
    395c:	12ff0500 	rscsne	r0, pc, #0, 10
    3960:	00d60000 	sbcseq	r0, r6, r0
    3964:	001a5f05 	andseq	r5, sl, r5, lsl #30
    3968:	0500d700 	streq	sp, [r0, #-1792]	; 0x700
    396c:	00001626 	andeq	r1, r0, r6, lsr #12
    3970:	e20500d8 	and	r0, r5, #216	; 0xd8
    3974:	d9000011 	stmdble	r0, {r0, r4}
    3978:	15fb0500 	ldrbne	r0, [fp, #1280]!	; 0x500
    397c:	00da0000 	sbcseq	r0, sl, r0
    3980:	001a8e05 	andseq	r8, sl, r5, lsl #28
    3984:	0500db00 	streq	sp, [r0, #-2816]	; 0xb00
    3988:	000012bf 			; <UNDEFINED> instruction: 0x000012bf
    398c:	710500dc 	ldrdvc	r0, [r5, -ip]
    3990:	dd000018 	stcle	0, cr0, [r0, #-96]	; 0xffffffa0
    3994:	111f0500 	tstne	pc, r0, lsl #10
    3998:	00de0000 	sbcseq	r0, lr, r0
    399c:	00152505 	andseq	r2, r5, r5, lsl #10
    39a0:	0500df00 	streq	sp, [r0, #-3840]	; 0xf00
    39a4:	00001ac1 	andeq	r1, r0, r1, asr #21
    39a8:	da0500e0 	ble	143d30 <_start-0x876bc2d0>
    39ac:	e1000012 	tst	r0, r2, lsl r0
    39b0:	114a0500 	cmpne	sl, r0, lsl #10
    39b4:	00e20000 	rsceq	r0, r2, r0
    39b8:	00117405 	andseq	r7, r1, r5, lsl #8
    39bc:	0500e300 	streq	lr, [r0, #-768]	; 0x300
    39c0:	000019c8 	andeq	r1, r0, r8, asr #19
    39c4:	d30500e4 	movwle	r0, #20708	; 0x50e4
    39c8:	e5000018 	str	r0, [r0, #-24]
    39cc:	121a0500 	andsne	r0, sl, #0, 10
    39d0:	00e60000 	rsceq	r0, r6, r0
    39d4:	00146905 	andseq	r6, r4, r5, lsl #18
    39d8:	0500e700 	streq	lr, [r0, #-1792]	; 0x700
    39dc:	0000169f 	muleq	r0, pc, r6	; <UNPREDICTABLE>
    39e0:	540500e8 	strpl	r0, [r5], #-232	; 0xe8
    39e4:	e9000010 	stmdb	r0, {r4}
    39e8:	1a9e0500 	bne	fe784df0 <__bss_end+0x76f83864>
    39ec:	00ea0000 	rsceq	r0, sl, r0
    39f0:	00180005 	andseq	r0, r8, r5
    39f4:	0500eb00 	streq	lr, [r0, #-2816]	; 0xb00
    39f8:	000010eb 	andeq	r1, r0, fp, ror #1
    39fc:	220500ec 	andcs	r0, r5, #236	; 0xec
    3a00:	ed000017 	stc	0, cr0, [r0, #-92]	; 0xffffffa4
    3a04:	19430500 	stmdbne	r3, {r8, sl}^
    3a08:	00ee0000 	rsceq	r0, lr, r0
    3a0c:	00143b05 	andseq	r3, r4, r5, lsl #22
    3a10:	0500ef00 	streq	lr, [r0, #-3840]	; 0xf00
    3a14:	000012ea 	andeq	r1, r0, sl, ror #5
    3a18:	d10500f0 	strdle	r0, [r5, -r0]
    3a1c:	f100001a 	cps	#26
    3a20:	188c0500 	stmne	ip, {r8, sl}
    3a24:	00f20000 	rscseq	r0, r2, r0
    3a28:	00108f05 	andseq	r8, r0, r5, lsl #30
    3a2c:	0500f300 	streq	pc, [r0, #-768]	; 0x300
    3a30:	0000192b 	andeq	r1, r0, fp, lsr #18
    3a34:	360500f4 			; <UNDEFINED> instruction: 0x360500f4
    3a38:	f5000013 			; <UNDEFINED> instruction: 0xf5000013
    3a3c:	1b0d0500 	blne	344e44 <_start-0x874bb1bc>
    3a40:	00f60000 	rscseq	r0, r6, r0
    3a44:	00193505 	andseq	r3, r9, r5, lsl #10
    3a48:	0500f700 	streq	pc, [r0, #-1792]	; 0x700
    3a4c:	000014a6 	andeq	r1, r0, r6, lsr #9
    3a50:	150500f8 	strne	r0, [r5, #-248]	; 0xf8
    3a54:	f9000014 			; <UNDEFINED> instruction: 0xf9000014
    3a58:	15550500 	ldrbne	r0, [r5, #-1280]	; 0x500
    3a5c:	00fa0000 	rscseq	r0, sl, r0
    3a60:	00102405 	andseq	r2, r0, r5, lsl #8
    3a64:	0500fb00 	streq	pc, [r0, #-2816]	; 0xb00
    3a68:	000018c2 	andeq	r1, r0, r2, asr #17
    3a6c:	590500fc 	stmdbpl	r5, {r2, r3, r4, r5, r6, r7}
    3a70:	fd000018 	stc2	0, cr0, [r0, #-96]	; 0xffffffa0
    3a74:	13e40500 	mvnne	r0, #0, 10
    3a78:	00fe0000 	rscseq	r0, lr, r0
    3a7c:	00195405 	andseq	r5, r9, r5, lsl #8
    3a80:	0500ff00 	streq	pc, [r0, #-3840]	; 0xf00
    3a84:	000016d7 	ldrdeq	r1, [r0], -r7
    3a88:	7a050180 	bvc	144090 <_start-0x876bbf70>
    3a8c:	81000019 	tsthi	r0, r9, lsl r0
    3a90:	14eb0501 	strbtne	r0, [fp], #1281	; 0x501
    3a94:	01820000 	orreq	r0, r2, r0
    3a98:	00160b05 	andseq	r0, r6, r5, lsl #22
    3a9c:	05018300 	streq	r8, [r1, #-768]	; 0x300
    3aa0:	00001427 	andeq	r1, r0, r7, lsr #8
    3aa4:	6d050184 	stfvss	f0, [r5, #-528]	; 0xfffffdf0
    3aa8:	85000017 	strhi	r0, [r0, #-23]
    3aac:	13620501 	cmnne	r2, #4194304	; 0x400000
    3ab0:	01860000 	orreq	r0, r6, r0
    3ab4:	00116305 	andseq	r6, r1, r5, lsl #6
    3ab8:	05018700 	streq	r8, [r1, #-1792]	; 0x700
    3abc:	0000141e 	andeq	r1, r0, lr, lsl r4
    3ac0:	2d050188 	stfcss	f0, [r5, #-544]	; 0xfffffde0
    3ac4:	89000010 	stmdbhi	r0, {r4}
    3ac8:	177a0501 	ldrbne	r0, [sl, -r1, lsl #10]!
    3acc:	018a0000 	orreq	r0, sl, r0
    3ad0:	00123305 	andseq	r3, r2, r5, lsl #6
    3ad4:	05018b00 	streq	r8, [r1, #-2816]	; 0xb00
    3ad8:	0000148d 	andeq	r1, r0, sp, lsl #9
    3adc:	1c05018c 	stfnes	f0, [r5], {140}	; 0x8c
    3ae0:	8d000016 	stchi	0, cr0, [r0, #-88]	; 0xffffffa8
    3ae4:	106e0501 	rsbne	r0, lr, r1, lsl #10
    3ae8:	018e0000 	orreq	r0, lr, r0
    3aec:	0016cd05 	andseq	ip, r6, r5, lsl #26
    3af0:	05018f00 	streq	r8, [r1, #-3840]	; 0xf00
    3af4:	00001a69 	andeq	r1, r0, r9, ror #20
    3af8:	b4050190 	strlt	r0, [r5], #-400	; 0x190
    3afc:	91000014 	tstls	r0, r4, lsl r0
    3b00:	16f80501 	ldrbtne	r0, [r8], r1, lsl #10
    3b04:	01920000 	orrseq	r0, r2, r0
    3b08:	00114005 	andseq	r4, r1, r5
    3b0c:	05019300 	streq	r9, [r1, #-768]	; 0x300
    3b10:	000018ab 	andeq	r1, r0, fp, lsr #17
    3b14:	4c050194 	stfmis	f0, [r5], {148}	; 0x94
    3b18:	95000014 	strls	r0, [r0, #-20]
    3b1c:	19a50501 	stmibne	r5!, {r0, r8, sl}
    3b20:	01960000 	orrseq	r0, r6, r0
    3b24:	00159505 	andseq	r9, r5, r5, lsl #10
    3b28:	05019700 	streq	r9, [r1, #-1792]	; 0x700
    3b2c:	000015e4 	andeq	r1, r0, r4, ror #11
    3b30:	ca050198 	bgt	144198 <_start-0x876bbe68>
    3b34:	99000013 	stmdbls	r0, {r0, r1, r4}
    3b38:	13b90501 			; <UNDEFINED> instruction: 0x13b90501
    3b3c:	019a0000 	orrseq	r0, sl, r0
    3b40:	001b5705 	andseq	r5, fp, r5, lsl #14
    3b44:	05019b00 	streq	r9, [r1, #-2816]	; 0xb00
    3b48:	0000173b 	andeq	r1, r0, fp, lsr r7
    3b4c:	9005019c 	mulls	r5, ip, r1
    3b50:	9d000012 	stcls	0, cr0, [r0, #-72]	; 0xffffffb8
    3b54:	19690501 	stmdbne	r9!, {r0, r8, sl}^
    3b58:	019e0000 	orrseq	r0, lr, r0
    3b5c:	001ae905 	andseq	lr, sl, r5, lsl #18
    3b60:	00019f00 	andeq	r9, r1, r0, lsl #30
    3b64:	0012f506 	andseq	pc, r2, r6, lsl #10
    3b68:	6bc50300 	blvs	ff144770 <__bss_end+0x779431e4>
    3b6c:	07000000 	streq	r0, [r0, -r0]
    3b70:	0000004f 	andeq	r0, r0, pc, asr #32
    3b74:	00004f08 	andeq	r4, r0, r8, lsl #30
    3b78:	00048900 	andeq	r8, r4, r0, lsl #18
    3b7c:	005d0900 	subseq	r0, sp, r0, lsl #18
    3b80:	00020000 	andeq	r0, r2, r0
    3b84:	00004108 	andeq	r4, r0, r8, lsl #2
    3b88:	00049900 	andeq	r9, r4, r0, lsl #18
    3b8c:	005d0900 	subseq	r0, sp, r0, lsl #18
    3b90:	000f0000 	andeq	r0, pc, r0
    3b94:	00004f08 	andeq	r4, r0, r8, lsl #30
    3b98:	0004a900 	andeq	sl, r4, r0, lsl #18
    3b9c:	005d0900 	subseq	r0, sp, r0, lsl #18
    3ba0:	00050000 	andeq	r0, r5, r0
    3ba4:	00004f08 	andeq	r4, r0, r8, lsl #30
    3ba8:	0004b900 	andeq	fp, r4, r0, lsl #18
    3bac:	005d0900 	subseq	r0, sp, r0, lsl #18
    3bb0:	006f0000 	rsbeq	r0, pc, r0
    3bb4:	00004f08 	andeq	r4, r0, r8, lsl #30
    3bb8:	0004c900 	andeq	ip, r4, r0, lsl #18
    3bbc:	005d0900 	subseq	r0, sp, r0, lsl #18
    3bc0:	001f0000 	andseq	r0, pc, r0
    3bc4:	00004f08 	andeq	r4, r0, r8, lsl #30
    3bc8:	0004d900 	andeq	sp, r4, r0, lsl #18
    3bcc:	005d0900 	subseq	r0, sp, r0, lsl #18
    3bd0:	000f0000 	andeq	r0, pc, r0
    3bd4:	0230040a 	eorseq	r0, r0, #167772160	; 0xa000000
    3bd8:	08630221 	stmdaeq	r3!, {r0, r5, r9}^
    3bdc:	8e0b0000 	cdphi	0, 0, cr0, cr11, cr0, {0}
    3be0:	02000017 	andeq	r0, r0, #23
    3be4:	08630223 	stmdaeq	r3!, {r0, r1, r5, r9}^
    3be8:	0c000000 	stceq	0, cr0, [r0], {-0}
    3bec:	00001b29 	andeq	r1, r0, r9, lsr #22
    3bf0:	74022402 	strvc	r2, [r2], #-1026	; 0x402
    3bf4:	00000004 	andeq	r0, r0, r4
    3bf8:	134b0c10 	movtne	r0, #48144	; 0xbc10
    3bfc:	25020000 	strcs	r0, [r2, #-0]
    3c00:	00087402 	andeq	r7, r8, r2, lsl #8
    3c04:	0c100400 	cfldrseq	mvf0, [r0], {-0}
    3c08:	00001206 	andeq	r1, r0, r6, lsl #4
    3c0c:	74022602 	strvc	r2, [r2], #-1538	; 0x602
    3c10:	08000008 	stmdaeq	r0, {r3}
    3c14:	17980c10 			; <UNDEFINED> instruction: 0x17980c10
    3c18:	27020000 	strcs	r0, [r2, -r0]
    3c1c:	00087902 	andeq	r7, r8, r2, lsl #18
    3c20:	0c100c00 	ldceq	12, cr0, [r0], {-0}
    3c24:	0000184f 	andeq	r1, r0, pc, asr #16
    3c28:	89022802 	stmdbhi	r2, {r1, fp, sp}
    3c2c:	80000008 	andhi	r0, r0, r8
    3c30:	17a20c10 			; <UNDEFINED> instruction: 0x17a20c10
    3c34:	29020000 	stmdbcs	r2, {}	; <UNPREDICTABLE>
    3c38:	0004c902 	andeq	ip, r4, r2, lsl #18
    3c3c:	0c10c000 	ldceq	0, cr12, [r0], {-0}
    3c40:	0000164c 	andeq	r1, r0, ip, asr #12
    3c44:	8e022a02 	vmlahi.f32	s4, s4, s4
    3c48:	00000008 	andeq	r0, r0, r8
    3c4c:	17ac0c11 			; <UNDEFINED> instruction: 0x17ac0c11
    3c50:	2b020000 	blcs	83c58 <_start-0x8777c3a8>
    3c54:	0004c902 	andeq	ip, r4, r2, lsl #18
    3c58:	0c114000 	ldceq	0, cr4, [r1], {-0}
    3c5c:	00001895 	muleq	r0, r5, r8
    3c60:	93022c02 	movwls	r2, #11266	; 0x2c02
    3c64:	80000008 	andhi	r0, r0, r8
    3c68:	17b60c11 			; <UNDEFINED> instruction: 0x17b60c11
    3c6c:	2d020000 	stccs	0, cr0, [r2, #-0]
    3c70:	0004c902 	andeq	ip, r4, r2, lsl #18
    3c74:	0c11c000 	ldceq	0, cr12, [r1], {-0}
    3c78:	000014e1 	andeq	r1, r0, r1, ror #9
    3c7c:	98022e02 	stmdals	r2, {r1, r9, sl, fp, sp}
    3c80:	00000008 	andeq	r0, r0, r8
    3c84:	17c00c12 	bfine	r0, r2, (invalid: 24:0)
    3c88:	2f020000 	svccs	0x00020000
    3c8c:	0004c902 	andeq	ip, r4, r2, lsl #18
    3c90:	0c124000 	ldceq	0, cr4, [r2], {-0}
    3c94:	000018a1 	andeq	r1, r0, r1, lsr #17
    3c98:	9d023002 	stcls	0, cr3, [r2, #-8]
    3c9c:	80000008 	andhi	r0, r0, r8
    3ca0:	17ca0c12 	bfine	r0, r2, (invalid: 24:10)
    3ca4:	31020000 	mrscc	r0, (UNDEF: 2)
    3ca8:	0004c902 	andeq	ip, r4, r2, lsl #18
    3cac:	0c12c000 	ldceq	0, cr12, [r2], {-0}
    3cb0:	000010b1 	strheq	r1, [r0], -r1	; <UNPREDICTABLE>
    3cb4:	a2023202 	andge	r3, r2, #536870912	; 0x20000000
    3cb8:	00000008 	andeq	r0, r0, r8
    3cbc:	17d40c13 	bfine	r0, r3, (invalid: 24:20)
    3cc0:	33020000 	movwcc	r0, #8192	; 0x2000
    3cc4:	0004c902 	andeq	ip, r4, r2, lsl #18
    3cc8:	0c134000 	ldceq	0, cr4, [r3], {-0}
    3ccc:	000012b3 			; <UNDEFINED> instruction: 0x000012b3
    3cd0:	a7023402 	strge	r3, [r2, -r2, lsl #8]
    3cd4:	80000008 	andhi	r0, r0, r8
    3cd8:	125c0c13 	subsne	r0, ip, #4864	; 0x1300
    3cdc:	35020000 	strcc	r0, [r2, #-0]
    3ce0:	0004c902 	andeq	ip, r4, r2, lsl #18
    3ce4:	0c13c000 	ldceq	0, cr12, [r3], {-0}
    3ce8:	00001adc 	ldrdeq	r1, [r0], -ip
    3cec:	bd023602 	stclt	6, cr3, [r2, #-8]
    3cf0:	00000008 	andeq	r0, r0, r8
    3cf4:	17e60c14 			; <UNDEFINED> instruction: 0x17e60c14
    3cf8:	37020000 	strcc	r0, [r2, -r0]
    3cfc:	0008c202 	andeq	ip, r8, r2, lsl #4
    3d00:	0c160000 	ldceq	0, cr0, [r6], {-0}
    3d04:	000019b0 			; <UNDEFINED> instruction: 0x000019b0
    3d08:	d2023802 	andle	r3, r2, #131072	; 0x20000
    3d0c:	00000008 	andeq	r0, r0, r8
    3d10:	19e10c18 	stmibne	r1!, {r3, r4, sl, fp}^
    3d14:	39020000 	stmdbcc	r2, {}	; <UNPREDICTABLE>
    3d18:	0008c202 	andeq	ip, r8, r2, lsl #4
    3d1c:	0c1a0000 	ldceq	0, cr0, [sl], {-0}
    3d20:	0000174c 	andeq	r1, r0, ip, asr #14
    3d24:	d7023a02 	strle	r3, [r2, -r2, lsl #20]
    3d28:	00000008 	andeq	r0, r0, r8
    3d2c:	19ec0c1c 	stmibne	ip!, {r2, r3, r4, sl, fp}^
    3d30:	3b020000 	blcc	83d38 <_start-0x8777c2c8>
    3d34:	0004b902 	andeq	fp, r4, r2, lsl #18
    3d38:	0c1c8000 	ldceq	0, cr8, [ip], {-0}
    3d3c:	000017de 	ldrdeq	r1, [r0], -lr
    3d40:	74023c02 	strvc	r3, [r2], #-3074	; 0xc02
    3d44:	00000008 	andeq	r0, r0, r8
    3d48:	17330c1d 			; <UNDEFINED> instruction: 0x17330c1d
    3d4c:	3d020000 	stccc	0, cr0, [r2, #-0]
    3d50:	0008ec02 	andeq	lr, r8, r2, lsl #24
    3d54:	0c1d0400 	cfldrseq	mvf0, [sp], {-0}
    3d58:	000019f7 	strdeq	r1, [r0], -r7
    3d5c:	a9023e02 	stmdbge	r2, {r1, r9, sl, fp, ip, sp}
    3d60:	40000004 	andmi	r0, r0, r4
    3d64:	158e0c1d 	strne	r0, [lr, #3101]	; 0xc1d
    3d68:	3f020000 	svccc	0x00020000
    3d6c:	00047402 	andeq	r7, r4, r2, lsl #8
    3d70:	0c1f0000 	ldceq	0, cr0, [pc], {-0}
    3d74:	00001a02 	andeq	r1, r0, r2, lsl #20
    3d78:	79024002 	stmdbvc	r2, {r1, lr}
    3d7c:	04000004 	streq	r0, [r0], #-4
    3d80:	19bc0c1f 	ldmibne	ip!, {r0, r1, r2, r3, r4, sl, fp}
    3d84:	41020000 	mrsmi	r0, (UNDEF: 2)
    3d88:	0008f602 	andeq	pc, r8, r2, lsl #12
    3d8c:	0c1f1000 	ldceq	0, cr1, [pc], {-0}
    3d90:	000014c5 	andeq	r1, r0, r5, asr #9
    3d94:	fb024202 	blx	945a6 <_start-0x8776ba5a>
    3d98:	20000008 	andcs	r0, r0, r8
    3d9c:	1a0d0c1f 	bne	346e20 <_start-0x874b91e0>
    3da0:	43020000 	movwmi	r0, #8192	; 0x2000
    3da4:	00090002 	andeq	r0, r9, r2
    3da8:	0c1f3000 	ldceq	0, cr3, [pc], {-0}
    3dac:	00001678 	andeq	r1, r0, r8, ror r6
    3db0:	74024402 	strvc	r4, [r2], #-1026	; 0x402
    3db4:	d0000008 	andle	r0, r0, r8
    3db8:	16800c1f 	pkhbtne	r0, r0, pc, lsl #24	; <UNPREDICTABLE>
    3dbc:	45020000 	strmi	r0, [r2, #-0]
    3dc0:	00087402 	andeq	r7, r8, r2, lsl #8
    3dc4:	0c1fd400 	cfldrseq	mvf13, [pc], {-0}
    3dc8:	00001688 	andeq	r1, r0, r8, lsl #13
    3dcc:	74024602 	strvc	r4, [r2], #-1538	; 0x602
    3dd0:	d8000008 	stmdale	r0, {r3}
    3dd4:	16900c1f 			; <UNDEFINED> instruction: 0x16900c1f
    3dd8:	47020000 	strmi	r0, [r2, -r0]
    3ddc:	00087402 	andeq	r7, r8, r2, lsl #8
    3de0:	0c1fdc00 	ldceq	12, cr13, [pc], {-0}
    3de4:	00001658 	andeq	r1, r0, r8, asr r6
    3de8:	74024802 	strvc	r4, [r2], #-2050	; 0x802
    3dec:	e0000008 	and	r0, r0, r8
    3df0:	16600c1f 			; <UNDEFINED> instruction: 0x16600c1f
    3df4:	49020000 	stmdbmi	r2, {}	; <UNPREDICTABLE>
    3df8:	00087402 	andeq	r7, r8, r2, lsl #8
    3dfc:	0c1fe400 	cfldrseq	mvf14, [pc], {-0}
    3e00:	00001668 	andeq	r1, r0, r8, ror #12
    3e04:	74024a02 	strvc	r4, [r2], #-2562	; 0xa02
    3e08:	e8000008 	stmda	r0, {r3}
    3e0c:	16700c1f 			; <UNDEFINED> instruction: 0x16700c1f
    3e10:	4b020000 	blmi	83e18 <_start-0x8777c1e8>
    3e14:	00087402 	andeq	r7, r8, r2, lsl #8
    3e18:	0c1fec00 	ldceq	12, cr14, [pc], {-0}
    3e1c:	000010cb 	andeq	r1, r0, fp, asr #1
    3e20:	74024c02 	strvc	r4, [r2], #-3074	; 0xc02
    3e24:	f0000008 			; <UNDEFINED> instruction: 0xf0000008
    3e28:	10d30c1f 	sbcsne	r0, r3, pc, lsl ip
    3e2c:	4d020000 	stcmi	0, cr0, [r2, #-0]
    3e30:	00087402 	andeq	r7, r8, r2, lsl #8
    3e34:	0c1ff400 	cfldrseq	mvf15, [pc], {-0}
    3e38:	000010db 	ldrdeq	r1, [r0], -fp
    3e3c:	74024e02 	strvc	r4, [r2], #-3586	; 0xe02
    3e40:	f8000008 			; <UNDEFINED> instruction: 0xf8000008
    3e44:	10e30c1f 	rscne	r0, r3, pc, lsl ip
    3e48:	4f020000 	svcmi	0x00020000
    3e4c:	00087402 	andeq	r7, r8, r2, lsl #8
    3e50:	0c1ffc00 	ldceq	12, cr15, [pc], {-0}
    3e54:	00001b50 	andeq	r1, r0, r0, asr fp
    3e58:	74025102 	strvc	r5, [r2], #-258	; 0x102
    3e5c:	00000004 	andeq	r0, r0, r4
    3e60:	12a10c20 	adcne	r0, r1, #32, 24	; 0x2000
    3e64:	52020000 	andpl	r0, r2, #0
    3e68:	00047402 	andeq	r7, r4, r2, lsl #8
    3e6c:	0c200400 	cfstrseq	mvf0, [r0], #-0
    3e70:	00001a88 	andeq	r1, r0, r8, lsl #21
    3e74:	74025302 	strvc	r5, [r2], #-770	; 0x302
    3e78:	08000004 	stmdaeq	r0, {r2}
    3e7c:	18290c20 	stmdane	r9!, {r5, sl, fp}
    3e80:	54020000 	strpl	r0, [r2], #-0
    3e84:	00087402 	andeq	r7, r8, r2, lsl #8
    3e88:	0c200c00 	stceq	12, cr0, [r0], #-0
    3e8c:	00001b17 	andeq	r1, r0, r7, lsl fp
    3e90:	74025502 	strvc	r5, [r2], #-1282	; 0x502
    3e94:	10000004 	andne	r0, r0, r4
    3e98:	128a0c20 	addne	r0, sl, #32, 24	; 0x2000
    3e9c:	56020000 	strpl	r0, [r2], -r0
    3ea0:	00087402 	andeq	r7, r8, r2, lsl #8
    3ea4:	0c201400 	cfstrseq	mvf1, [r0], #-0
    3ea8:	0000101b 	andeq	r1, r0, fp, lsl r0
    3eac:	74025702 	strvc	r5, [r2], #-1794	; 0x702
    3eb0:	18000008 	stmdane	r0, {r3}
    3eb4:	1b060c20 	blne	186f3c <_start-0x876790c4>
    3eb8:	58020000 	stmdapl	r2, {}	; <UNPREDICTABLE>
    3ebc:	00047402 	andeq	r7, r4, r2, lsl #8
    3ec0:	0c201c00 	stceq	12, cr1, [r0], #-0
    3ec4:	0000186a 	andeq	r1, r0, sl, ror #16
    3ec8:	74025902 	strvc	r5, [r2], #-2306	; 0x902
    3ecc:	20000008 	andcs	r0, r0, r8
    3ed0:	182f0c20 	stmdane	pc!, {r5, sl, fp}	; <UNPREDICTABLE>
    3ed4:	5a020000 	bpl	83edc <_start-0x8777c124>
    3ed8:	00047402 	andeq	r7, r4, r2, lsl #8
    3edc:	0c202400 	cfstrseq	mvf2, [r0], #-0
    3ee0:	0000151c 	andeq	r1, r0, ip, lsl r5
    3ee4:	74025b02 	strvc	r5, [r2], #-2818	; 0xb02
    3ee8:	28000008 	stmdacs	r0, {r3}
    3eec:	1a180c20 	bne	606f74 <_start-0x871f908c>
    3ef0:	5c020000 	stcpl	0, cr0, [r2], {-0}
    3ef4:	00091002 	andeq	r1, r9, r2
    3ef8:	0c202c00 	stceq	12, cr2, [r0], #-0
    3efc:	0000170d 	andeq	r1, r0, sp, lsl #14
    3f00:	74025d02 	strvc	r5, [r2], #-3330	; 0xd02
    3f04:	d0000004 	andle	r0, r0, r4
    3f08:	1a230c20 	bne	8c6f90 <_start-0x86f39070>
    3f0c:	5e020000 	cdppl	0, 0, cr0, cr2, cr0, {0}
    3f10:	00047902 	andeq	r7, r4, r2, lsl #18
    3f14:	0c20d400 	cfstrseq	mvf13, [r0], #-0
    3f18:	00001837 	andeq	r1, r0, r7, lsr r8
    3f1c:	74025f02 	strvc	r5, [r2], #-3842	; 0xf02
    3f20:	e0000004 	and	r0, r0, r4
    3f24:	1a2e0c20 	bne	b86fac <_start-0x86c79054>
    3f28:	60020000 	andvs	r0, r2, r0
    3f2c:	00049902 	andeq	r9, r4, r2, lsl #18
    3f30:	0c20e400 	cfstrseq	mvf14, [r0], #-0
    3f34:	00001698 	muleq	r0, r8, r6
    3f38:	74026102 	strvc	r6, [r2], #-258	; 0x102
    3f3c:	fc000008 	stc2	0, cr0, [r0], {8}
    3f40:	1a390c20 	bne	e46fc8 <_start-0x869b9038>
    3f44:	62020000 	andvs	r0, r2, #0
    3f48:	00092002 	andeq	r2, r9, r2
    3f4c:	0c210000 	stceq	0, cr0, [r1], #-0
    3f50:	000011f7 	strdeq	r1, [r0], -r7
    3f54:	74026302 	strvc	r6, [r2], #-770	; 0x302
    3f58:	00000004 	andeq	r0, r0, r4
    3f5c:	4f080030 	svcmi	0x00080030
    3f60:	74000000 	strvc	r0, [r0], #-0
    3f64:	0d000008 	stceq	0, cr0, [r0, #-32]	; 0xffffffe0
    3f68:	0000005d 	andeq	r0, r0, sp, asr r0
    3f6c:	0e0003ff 	mcreq	3, 0, r0, cr0, cr15, {7}
    3f70:	00000474 	andeq	r0, r0, r4, ror r4
    3f74:	00004f08 	andeq	r4, r0, r8, lsl #30
    3f78:	00088900 	andeq	r8, r8, r0, lsl #18
    3f7c:	005d0900 	subseq	r0, sp, r0, lsl #18
    3f80:	001c0000 	andseq	r0, ip, r0
    3f84:	0004c907 	andeq	ip, r4, r7, lsl #18
    3f88:	04c90700 	strbeq	r0, [r9], #1792	; 0x700
    3f8c:	c9070000 	stmdbgt	r7, {}	; <UNPREDICTABLE>
    3f90:	07000004 	streq	r0, [r0, -r4]
    3f94:	000004c9 	andeq	r0, r0, r9, asr #9
    3f98:	0004c907 	andeq	ip, r4, r7, lsl #18
    3f9c:	04c90700 	strbeq	r0, [r9], #1792	; 0x700
    3fa0:	c9070000 	stmdbgt	r7, {}	; <UNPREDICTABLE>
    3fa4:	08000004 	stmdaeq	r0, {r2}
    3fa8:	00000041 	andeq	r0, r0, r1, asr #32
    3fac:	000008bd 			; <UNDEFINED> instruction: 0x000008bd
    3fb0:	00005d0d 	andeq	r5, r0, sp, lsl #26
    3fb4:	0001ff00 	andeq	pc, r1, r0, lsl #30
    3fb8:	0008ac07 	andeq	sl, r8, r7, lsl #24
    3fbc:	004f0800 	subeq	r0, pc, r0, lsl #16
    3fc0:	08d20000 	ldmeq	r2, {}^	; <UNPREDICTABLE>
    3fc4:	5d090000 	stcpl	0, cr0, [r9, #-0]
    3fc8:	7f000000 	svcvc	0x00000000
    3fcc:	08ac0700 	stmiaeq	ip!, {r8, r9, sl}
    3fd0:	b9070000 	stmdblt	r7, {}	; <UNPREDICTABLE>
    3fd4:	08000004 	stmdaeq	r0, {r2}
    3fd8:	0000004f 	andeq	r0, r0, pc, asr #32
    3fdc:	000008ec 	andeq	r0, r0, ip, ror #17
    3fe0:	00005d09 	andeq	r5, r0, r9, lsl #26
    3fe4:	0e000e00 	cdpeq	14, 0, cr0, cr0, cr0, {0}
    3fe8:	000008f1 	strdeq	r0, [r0], -r1
    3fec:	0008dc07 	andeq	sp, r8, r7, lsl #24
    3ff0:	04890700 	streq	r0, [r9], #1792	; 0x700
    3ff4:	89070000 	stmdbhi	r7, {}	; <UNPREDICTABLE>
    3ff8:	08000004 	stmdaeq	r0, {r2}
    3ffc:	0000004f 	andeq	r0, r0, pc, asr #32
    4000:	00000910 	andeq	r0, r0, r0, lsl r9
    4004:	00005d09 	andeq	r5, r0, r9, lsl #26
    4008:	08002700 	stmdaeq	r0, {r8, r9, sl, sp}
    400c:	0000004f 	andeq	r0, r0, pc, asr #32
    4010:	00000920 	andeq	r0, r0, r0, lsr #18
    4014:	00005d09 	andeq	r5, r0, r9, lsl #26
    4018:	08002800 	stmdaeq	r0, {fp, sp}
    401c:	0000004f 	andeq	r0, r0, pc, asr #32
    4020:	00000931 	andeq	r0, r0, r1, lsr r9
    4024:	00005d0d 	andeq	r5, r0, sp, lsl #26
    4028:	0003bf00 	andeq	fp, r3, r0, lsl #30
    402c:	00140c0f 	andseq	r0, r4, pc, lsl #24
    4030:	02640200 	rsbeq	r0, r4, #0, 4
    4034:	000004d9 	ldrdeq	r0, [r0], -r9
    4038:	001f9704 	andseq	r9, pc, r4, lsl #14
    403c:	2b040400 	blcs	105044 <_start-0x876fafbc>
    4040:	00000ac3 	andeq	r0, r0, r3, asr #21
    4044:	001c6505 	andseq	r6, ip, r5, lsl #10
    4048:	ca050000 	bgt	144050 <_start-0x876bbfb0>
    404c:	0100001e 	tsteq	r0, lr, lsl r0
    4050:	00205705 	eoreq	r5, r0, r5, lsl #14
    4054:	1a050400 	bne	14505c <_start-0x876bafa4>
    4058:	0500001f 	streq	r0, [r0, #-31]
    405c:	001d4e05 	andseq	r4, sp, r5, lsl #28
    4060:	c6050600 	strgt	r0, [r5], -r0, lsl #12
    4064:	0700001b 	smladeq	r0, fp, r0, r0
    4068:	001fdf05 	andseq	sp, pc, r5, lsl #30
    406c:	ff050800 			; <UNDEFINED> instruction: 0xff050800
    4070:	09000020 	stmdbeq	r0, {r5}
    4074:	001c9d05 	andseq	r9, ip, r5, lsl #26
    4078:	0a050a00 	beq	146880 <_start-0x876b9780>
    407c:	0b000020 	bleq	4104 <_start-0x877fbefc>
    4080:	00215205 	eoreq	r5, r1, r5, lsl #4
    4084:	a6050c00 	strge	r0, [r5], -r0, lsl #24
    4088:	0d00001f 	stceq	0, cr0, [r0, #-124]	; 0xffffff84
    408c:	001f4f05 	andseq	r4, pc, r5, lsl #30
    4090:	cd050e00 	stcgt	14, cr0, [r5, #-0]
    4094:	0f00001f 	svceq	0x0000001f
    4098:	001caf05 	andseq	sl, ip, r5, lsl #30
    409c:	84051000 	strhi	r1, [r5], #-0
    40a0:	1100001e 	tstne	r0, lr, lsl r0
    40a4:	0020ec05 	eoreq	lr, r0, r5, lsl #24
    40a8:	eb051200 	bl	1488b0 <_start-0x876b7750>
    40ac:	1300001b 	movwne	r0, #27
    40b0:	001e2a05 	andseq	r2, lr, r5, lsl #20
    40b4:	db051400 	blle	1490bc <_start-0x876b6f44>
    40b8:	15000020 	strne	r0, [r0, #-32]
    40bc:	001d9f05 	andseq	r9, sp, r5, lsl #30
    40c0:	dd051600 	stcle	6, cr1, [r5, #-0]
    40c4:	1700001e 	smladne	r0, lr, r0, r0
    40c8:	001cea05 	andseq	lr, ip, r5, lsl #20
    40cc:	2c051800 	stccs	8, cr1, [r5], {-0}
    40d0:	19000020 	stmdbne	r0, {r5}
    40d4:	00206a05 	eoreq	r6, r0, r5, lsl #20
    40d8:	1b051a00 	blne	14a8e0 <_start-0x876b5720>
    40dc:	1b000020 	blne	4164 <_start-0x877fbe9c>
    40e0:	001f0705 	andseq	r0, pc, r5, lsl #14
    40e4:	a7051c00 	strge	r1, [r5, -r0, lsl #24]
    40e8:	1d00001e 	stcne	0, cr0, [r0, #-120]	; 0xffffff88
    40ec:	001bfc05 	andseq	pc, fp, r5, lsl #24
    40f0:	17052300 	strne	r2, [r5, -r0, lsl #6]
    40f4:	2700001e 	smladcs	r0, lr, r0, r0
    40f8:	001c8b05 	andseq	r8, ip, r5, lsl #22
    40fc:	7f052800 	svcvc	0x00052800
    4100:	29000021 	stmdbcs	r0, {r0, r5}
    4104:	001f6005 	andseq	r6, pc, r5
    4108:	24052a00 	strcs	r2, [r5], #-2560	; 0xa00
    410c:	2b000021 	blcs	4198 <_start-0x877fbe68>
    4110:	00213b05 	eoreq	r3, r1, r5, lsl #22
    4114:	60052c00 	andvs	r2, r5, r0, lsl #24
    4118:	2d00001d 	stccs	0, cr0, [r0, #-116]	; 0xffffff8c
    411c:	001e9605 	andseq	r9, lr, r5, lsl #12
    4120:	b2053200 	andlt	r3, r5, #0, 4
    4124:	33000020 	movwcc	r0, #32
    4128:	001de805 	andseq	lr, sp, r5, lsl #16
    412c:	bd053400 	cfstrslt	mvf3, [r5, #-0]
    4130:	3500001d 	strcc	r0, [r0, #-29]
    4134:	001c7a05 	andseq	r7, ip, r5, lsl #20
    4138:	fc053600 	stc2	6, cr3, [r5], {-0}
    413c:	3700001d 	smladcc	r0, sp, r0, r0
    4140:	001cd505 	andseq	sp, ip, r5, lsl #10
    4144:	c4053800 	strgt	r3, [r5], #-2048	; 0x800
    4148:	39000020 	stmdbcc	r0, {r5}
    414c:	001e5805 	andseq	r5, lr, r5, lsl #16
    4150:	b8053a00 	stmdalt	r5, {r9, fp, ip, sp}
    4154:	3b00001e 	blcc	41d4 <_start-0x877fbe2c>
    4158:	001fba05 	andseq	fp, pc, r5, lsl #20
    415c:	3d053c00 	stccc	12, cr3, [r5, #-0]
    4160:	3d00001d 	stccc	0, cr0, [r0, #-116]	; 0xffffff8c
    4164:	001cc305 	andseq	ip, ip, r5, lsl #6
    4168:	32053e00 	andcc	r3, r5, #0, 28
    416c:	3f00001f 	svccc	0x0000001f
    4170:	001ff705 	andseq	pc, pc, r5, lsl #14
    4174:	0500c000 	streq	ip, [r0, #-0]
    4178:	00001c2e 	andeq	r1, r0, lr, lsr #24
    417c:	1f0500c1 	svcne	0x000500c1
    4180:	c200001d 	andgt	r0, r0, #29
    4184:	21650500 	cmncs	r5, r0, lsl #10
    4188:	00c50000 	sbceq	r0, r5, r0
    418c:	00204205 	eoreq	r4, r0, r5, lsl #4
    4190:	0500c600 	streq	ip, [r0, #-1536]	; 0x600
    4194:	00001d72 	andeq	r1, r0, r2, ror sp
    4198:	9e0500c7 	cdpls	0, 0, cr0, cr5, cr7, {6}
    419c:	c8000020 	stmdagt	r0, {r5}
    41a0:	21120500 	tstcs	r2, r0, lsl #10
    41a4:	00c90000 	sbceq	r0, r9, r0
    41a8:	001dd205 	andseq	sp, sp, r5, lsl #4
    41ac:	0500e200 	streq	lr, [r0, #-512]	; 0x200
    41b0:	00002084 	andeq	r2, r0, r4, lsl #1
    41b4:	740500e3 	strvc	r0, [r5], #-227	; 0xe3
    41b8:	e400001f 	str	r0, [r0], #-31
    41bc:	43060000 	movwmi	r0, #24576	; 0x6000
    41c0:	0500001e 	streq	r0, [r0, #-30]
    41c4:	000ace06 	andeq	ip, sl, r6, lsl #28
    41c8:	d4041000 	strle	r1, [r4], #-0
    41cc:	1100000a 	tstne	r0, sl
    41d0:	00000ae4 	andeq	r0, r0, r4, ror #21
    41d4:	00004f12 	andeq	r4, r0, r2, lsl pc
    41d8:	0ae41200 	beq	ff9089e0 <__bss_end+0x78107454>
    41dc:	13000000 	movwne	r0, #0
    41e0:	1d0e1404 	cfstrsne	mvf1, [lr, #-16]
    41e4:	05080000 	streq	r0, [r8, #-0]
    41e8:	000b0b09 	andeq	r0, fp, r9, lsl #22
    41ec:	1f441500 	svcne	0x00441500
    41f0:	0c050000 	stceq	0, cr0, [r5], {-0}
    41f4:	00000ac3 	andeq	r0, r0, r3, asr #21
    41f8:	1e7a1500 	cdpne	5, 7, cr1, cr10, cr0, {0}
    41fc:	0d050000 	stceq	0, cr0, [r5, #-0]
    4200:	00000ae4 	andeq	r0, r0, r4, ror #21
    4204:	53060004 	movwpl	r0, #24580	; 0x6004
    4208:	0500001c 	streq	r0, [r0, #-28]
    420c:	000ae60e 	andeq	lr, sl, lr, lsl #12
    4210:	10841600 	addne	r1, r4, r0, lsl #12
    4214:	13020000 	movwne	r0, #8192	; 0x2000
    4218:	00004f02 	andeq	r4, r0, r2, lsl #30
    421c:	0b360300 	bleq	d84e24 <_start-0x86a7b1dc>
    4220:	18170000 	ldmdane	r7, {}	; <UNPREDICTABLE>
    4224:	00001b4a 	andeq	r1, r0, sl, asr #22
    4228:	4f021502 	svcmi	0x00021502
    422c:	00000000 	andeq	r0, r0, r0
    4230:	1d051900 	stcne	9, cr1, [r5, #-0]
    4234:	6b020000 	blvs	8423c <_start-0x8777bdc4>
    4238:	0b660302 	bleq	1984e48 <_start-0x85e7b1b8>
    423c:	691a0000 	ldmdbvs	sl, {}	; <UNPREDICTABLE>
    4240:	026d0200 	rsbeq	r0, sp, #0, 4
    4244:	0000004f 	andeq	r0, r0, pc, asr #32
    4248:	00217718 	eoreq	r7, r1, r8, lsl r7
    424c:	026e0200 	rsbeq	r0, lr, #0, 4
    4250:	0000004f 	andeq	r0, r0, pc, asr #32
    4254:	6369671a 	cmnvs	r9, #6815744	; 0x680000
    4258:	026f0200 	rsbeq	r0, pc, #0, 4
    425c:	00000b66 	andeq	r0, r0, r6, ror #22
    4260:	31041000 	mrscc	r1, (UNDEF: 4)
    4264:	19000009 	stmdbne	r0, {r0, r3}
    4268:	00001db2 			; <UNDEFINED> instruction: 0x00001db2
    426c:	0301fa02 	movweq	pc, #6658	; 0x1a02	; <UNPREDICTABLE>
    4270:	00000b86 	andeq	r0, r0, r6, lsl #23
    4274:	00214d1b 	eoreq	r4, r1, fp, lsl sp
    4278:	01fa0200 	mvnseq	r0, r0, lsl #4
    427c:	0000004f 	andeq	r0, r0, pc, asr #32
    4280:	1d341c00 	ldcne	12, cr1, [r4, #-0]
    4284:	0a010000 	beq	4428c <_start-0x877bbd74>
    4288:	87800ed8 			; <UNDEFINED> instruction: 0x87800ed8
    428c:	0000008e 	andeq	r0, r0, lr, lsl #1
    4290:	0c0d9c01 	stceq	12, cr9, [sp], {1}
    4294:	361d0000 	ldrcc	r0, [sp], -r0
    4298:	de00000b 	cdple	0, 0, cr0, cr0, cr11, {0}
    429c:	7087800e 	addvc	r8, r7, lr
    42a0:	01000000 	mrseq	r0, (UNDEF: 0)
    42a4:	000bf40d 	andeq	pc, fp, sp, lsl #8
    42a8:	0ede1e00 	cdpeq	14, 13, cr1, cr14, cr0, {0}
    42ac:	00708780 	rsbseq	r8, r0, r0, lsl #15
    42b0:	431f0000 	tstmi	pc, #0
    42b4:	0200000b 	andeq	r0, r0, #11
    42b8:	4d1f6891 	ldcmi	8, cr6, [pc, #-580]	; 407c <_start-0x877fbf84>
    42bc:	0200000b 	andeq	r0, r0, #11
    42c0:	591f6c91 	ldmdbpl	pc, {r0, r4, r7, sl, fp, sp, lr}	; <UNPREDICTABLE>
    42c4:	0200000b 	andeq	r0, r0, #11
    42c8:	16207091 			; <UNDEFINED> instruction: 0x16207091
    42cc:	de00000b 	cdple	0, 0, cr0, cr0, cr11, {0}
    42d0:	0887800e 	stmeq	r7, {r1, r2, r3, pc}
    42d4:	02000000 	andeq	r0, r0, #0
    42d8:	de1e026f 	cdple	2, 1, cr0, cr14, cr15, {3}
    42dc:	0887800e 	stmeq	r7, {r1, r2, r3, pc}
    42e0:	1f000000 	svcne	0x00000000
    42e4:	00000b28 	andeq	r0, r0, r8, lsr #22
    42e8:	00749102 	rsbseq	r9, r4, r2, lsl #2
    42ec:	21000000 	mrscs	r0, (UNDEF: 0)
    42f0:	00000b6c 	andeq	r0, r0, ip, ror #22
    42f4:	87800f5a 			; <UNDEFINED> instruction: 0x87800f5a
    42f8:	00000006 	andeq	r0, r0, r6
    42fc:	79221301 	stmdbvc	r2!, {r0, r8, r9, ip}
    4300:	0200000b 	andeq	r0, r0, #11
    4304:	00006491 	muleq	r0, r1, r4
    4308:	001e6a23 	andseq	r6, lr, r3, lsr #20
    430c:	68180100 	ldmdavs	r8, {r8}
    4310:	5a87800f 	bpl	fe1e4354 <__bss_end+0x769e2dc8>
    4314:	01000000 	mrseq	r0, (UNDEF: 0)
    4318:	000c2f9c 	muleq	ip, ip, pc	; <UNPREDICTABLE>
    431c:	00692400 	rsbeq	r2, r9, r0, lsl #8
    4320:	004f1a01 	subeq	r1, pc, r1, lsl #20
    4324:	91020000 	mrsls	r0, (UNDEF: 2)
    4328:	10230074 	eorne	r0, r3, r4, ror r0
    432c:	0100001c 	tsteq	r0, ip, lsl r0
    4330:	800fc428 	andhi	ip, pc, r8, lsr #8
    4334:	00003887 	andeq	r3, r0, r7, lsl #17
    4338:	6f9c0100 	svcvs	0x009c0100
    433c:	2500000c 	strcs	r0, [r0, #-12]
    4340:	00717269 	rsbseq	r7, r1, r9, ror #4
    4344:	04692801 	strbteq	r2, [r9], #-2049	; 0x801
    4348:	91020000 	mrsls	r0, (UNDEF: 2)
    434c:	1d172674 	ldcne	6, cr2, [r7, #-464]	; 0xfffffe30
    4350:	28010000 	stmdacs	r1, {}	; <UNPREDICTABLE>
    4354:	00000ac3 	andeq	r0, r0, r3, asr #21
    4358:	26709102 	ldrbtcs	r9, [r0], -r2, lsl #2
    435c:	00001d84 	andeq	r1, r0, r4, lsl #27
    4360:	0ae42801 	beq	ff90e36c <__bss_end+0x7810cde0>
    4364:	91020000 	mrsls	r0, (UNDEF: 2)
    4368:	3b23006c 	blcc	8c4520 <_start-0x86f3bae0>
    436c:	0100001e 	tsteq	r0, lr, lsl r0
    4370:	800ffc30 	andhi	pc, pc, r0, lsr ip	; <UNPREDICTABLE>
    4374:	00000c87 	andeq	r0, r0, r7, lsl #25
    4378:	a19c0100 	orrsge	r0, ip, r0, lsl #2
    437c:	2600000c 	strcs	r0, [r0], -ip
    4380:	00001266 	andeq	r1, r0, r6, ror #4
    4384:	004f3001 	subeq	r3, pc, r1
    4388:	91020000 	mrsls	r0, (UNDEF: 2)
    438c:	1d892674 	stcne	6, cr2, [r9, #464]	; 0x1d0
    4390:	30010000 	andcc	r0, r1, r0
    4394:	00000ae4 	andeq	r0, r0, r4, ror #21
    4398:	00709102 	rsbseq	r9, r0, r2, lsl #2
    439c:	001ef51c 	andseq	pc, lr, ip, lsl r5	; <UNPREDICTABLE>
    43a0:	08360100 	ldmdaeq	r6!, {r8}
    43a4:	6e878010 	mcrvs	0, 4, r8, cr7, cr0, {0}
    43a8:	01000000 	mrseq	r0, (UNDEF: 0)
    43ac:	000cd39c 	muleq	ip, ip, r3
    43b0:	12662600 	rsbne	r2, r6, #0, 12
    43b4:	36010000 	strcc	r0, [r1], -r0
    43b8:	0000004f 	andeq	r0, r0, pc, asr #32
    43bc:	27649102 	strbcs	r9, [r4, -r2, lsl #2]!
    43c0:	00001d8f 	andeq	r1, r0, pc, lsl #27
    43c4:	004f3801 	subeq	r3, pc, r1, lsl #16
    43c8:	91020000 	mrsls	r0, (UNDEF: 2)
    43cc:	df27006c 	svcle	0x0027006c
    43d0:	0100001b 	tsteq	r0, fp, lsl r0
    43d4:	00004f04 	andeq	r4, r0, r4, lsl #30
    43d8:	88030500 	stmdahi	r3, {r8, sl}
    43dc:	08878010 	stmeq	r7, {r4, pc}
    43e0:	00000b0b 	andeq	r0, r0, fp, lsl #22
    43e4:	00000cf4 	strdeq	r0, [r0], -r4
    43e8:	00005d09 	andeq	r5, r0, r9, lsl #26
    43ec:	27009f00 	strcs	r9, [r0, -r0, lsl #30]
    43f0:	00001d96 	muleq	r0, r6, sp
    43f4:	0ce40701 	stcleq	7, cr0, [r4], #4
    43f8:	03050000 	movweq	r0, #20480	; 0x5000
    43fc:	8780108c 	strhi	r1, [r0, ip, lsl #1]
	...

Disassembly of section .debug_abbrev:

00000000 <.debug_abbrev>:
   0:	25011101 	strcs	r1, [r1, #-257]	; 0x101
   4:	030b130e 	movweq	r1, #45838	; 0xb30e
   8:	110e1b0e 	tstne	lr, lr, lsl #22
   c:	10061201 	andne	r1, r6, r1, lsl #4
  10:	02000017 	andeq	r0, r0, #23
  14:	0b0b0024 	bleq	2c00ac <_start-0x8753ff54>
  18:	0e030b3e 	vmoveq.16	d3[0], r0
  1c:	24030000 	strcs	r0, [r3], #-0
  20:	3e0b0b00 	vmlacc.f64	d0, d11, d0
  24:	0008030b 	andeq	r0, r8, fp, lsl #6
  28:	002e0400 	eoreq	r0, lr, r0, lsl #8
  2c:	0e03193f 	mcreq	9, 0, r1, cr3, cr15, {1}
  30:	0b3b0b3a 	bleq	ec2d20 <_start-0x8693d2e0>
  34:	13491927 	movtne	r1, #39207	; 0x9927
  38:	06120111 			; <UNDEFINED> instruction: 0x06120111
  3c:	42961840 	addsmi	r1, r6, #64, 16	; 0x400000
  40:	00000019 	andeq	r0, r0, r9, lsl r0
  44:	25011101 	strcs	r1, [r1, #-257]	; 0x101
  48:	030b130e 	movweq	r1, #45838	; 0xb30e
  4c:	110e1b0e 	tstne	lr, lr, lsl #22
  50:	10061201 	andne	r1, r6, r1, lsl #4
  54:	02000017 	andeq	r0, r0, #23
  58:	0b0b0024 	bleq	2c00f0 <_start-0x8753ff10>
  5c:	0e030b3e 	vmoveq.16	d3[0], r0
  60:	24030000 	strcs	r0, [r3], #-0
  64:	3e0b0b00 	vmlacc.f64	d0, d11, d0
  68:	0008030b 	andeq	r0, r8, fp, lsl #6
  6c:	00350400 	eorseq	r0, r5, r0, lsl #8
  70:	00001349 	andeq	r1, r0, r9, asr #6
  74:	0b011305 	bleq	44c90 <_start-0x877bb370>
  78:	3b0b3a0b 	blcc	2ce8ac <_start-0x87531754>
  7c:	00130105 	andseq	r0, r3, r5, lsl #2
  80:	000d0600 	andeq	r0, sp, r0, lsl #12
  84:	0b3a0803 	bleq	e82098 <_start-0x8697df68>
  88:	1349053b 	movtne	r0, #38203	; 0x953b
  8c:	00000b38 	andeq	r0, r0, r8, lsr fp
  90:	03000d07 	movweq	r0, #3335	; 0xd07
  94:	3b0b3a0e 	blcc	2ce8d4 <_start-0x8753172c>
  98:	38134905 	ldmdacc	r3, {r0, r2, r8, fp, lr}
  9c:	0800000b 	stmdaeq	r0, {r0, r1, r3}
  a0:	0e030016 	mcreq	0, 0, r0, cr3, cr6, {0}
  a4:	053b0b3a 	ldreq	r0, [fp, #-2874]!	; 0xb3a
  a8:	00001349 	andeq	r1, r0, r9, asr #6
  ac:	03010409 	movweq	r0, #5129	; 0x1409
  b0:	3a0b0b0e 	bcc	2c2cf0 <_start-0x8753d310>
  b4:	010b3b0b 	tsteq	fp, fp, lsl #22
  b8:	0a000013 	beq	10c <_start-0x877ffef4>
  bc:	0e030028 	cdpeq	0, 0, cr0, cr3, cr8, {1}
  c0:	00000d1c 	andeq	r0, r0, ip, lsl sp
  c4:	0300160b 	movweq	r1, #1547	; 0x60b
  c8:	3b0b3a0e 	blcc	2ce908 <_start-0x875316f8>
  cc:	0013490b 	andseq	r4, r3, fp, lsl #18
  d0:	01130c00 	tsteq	r3, r0, lsl #24
  d4:	0b0b0e03 	bleq	2c38e8 <_start-0x8753c718>
  d8:	0b3b0b3a 	bleq	ec2dc8 <_start-0x8693d238>
  dc:	00001301 	andeq	r1, r0, r1, lsl #6
  e0:	03000d0d 	movweq	r0, #3341	; 0xd0d
  e4:	3b0b3a0e 	blcc	2ce924 <_start-0x875316dc>
  e8:	3813490b 	ldmdacc	r3, {r0, r1, r3, r8, fp, lr}
  ec:	0e00000b 	cdpeq	0, 0, cr0, cr0, cr11, {0}
  f0:	193f012e 	ldmdbne	pc!, {r1, r2, r3, r5, r8}	; <UNPREDICTABLE>
  f4:	0b3a0e03 	bleq	e83908 <_start-0x8697c6f8>
  f8:	19270b3b 	stmdbne	r7!, {r0, r1, r3, r4, r5, r8, r9, fp}
  fc:	06120111 			; <UNDEFINED> instruction: 0x06120111
 100:	42961840 	addsmi	r1, r6, #64, 16	; 0x400000
 104:	00130119 	andseq	r0, r3, r9, lsl r1
 108:	00050f00 	andeq	r0, r5, r0, lsl #30
 10c:	0b3a0e03 	bleq	e83920 <_start-0x8697c6e0>
 110:	13490b3b 	movtne	r0, #39739	; 0x9b3b
 114:	00001802 	andeq	r1, r0, r2, lsl #16
 118:	03000510 	movweq	r0, #1296	; 0x510
 11c:	3b0b3a08 	blcc	2ce944 <_start-0x875316bc>
 120:	0213490b 	andseq	r4, r3, #180224	; 0x2c000
 124:	11000018 	tstne	r0, r8, lsl r0
 128:	0b0b000f 	bleq	2c016c <_start-0x8753fe94>
 12c:	00001349 	andeq	r1, r0, r9, asr #6
 130:	3f012e12 	svccc	0x00012e12
 134:	3a0e0319 	bcc	380da0 <_start-0x8747f260>
 138:	270b3b0b 	strcs	r3, [fp, -fp, lsl #22]
 13c:	12011119 	andne	r1, r1, #1073741830	; 0x40000006
 140:	97184006 	ldrls	r4, [r8, -r6]
 144:	13011942 	movwne	r1, #6466	; 0x1942
 148:	2e130000 	cdpcs	0, 1, cr0, cr3, cr0, {0}
 14c:	03193f01 	tsteq	r9, #1, 30
 150:	3b0b3a0e 	blcc	2ce990 <_start-0x87531670>
 154:	4919270b 	ldmdbmi	r9, {r0, r1, r3, r8, r9, sl, sp}
 158:	12011113 	andne	r1, r1, #-1073741820	; 0xc0000004
 15c:	97184006 	ldrls	r4, [r8, -r6]
 160:	13011942 	movwne	r1, #6466	; 0x1942
 164:	34140000 	ldrcc	r0, [r4], #-0
 168:	3a080300 	bcc	200d70 <_start-0x875ff290>
 16c:	490b3b0b 	stmdbmi	fp, {r0, r1, r3, r8, r9, fp, ip, sp}
 170:	00180213 	andseq	r0, r8, r3, lsl r2
 174:	00341500 	eorseq	r1, r4, r0, lsl #10
 178:	0b3a0e03 	bleq	e8398c <_start-0x8697c674>
 17c:	13490b3b 	movtne	r0, #39739	; 0x9b3b
 180:	00001802 	andeq	r1, r0, r2, lsl #16
 184:	01110100 	tsteq	r1, r0, lsl #2
 188:	0b130e25 	bleq	4c3a24 <_start-0x8733c5dc>
 18c:	0e1b0e03 	cdpeq	14, 1, cr0, cr11, cr3, {0}
 190:	06120111 			; <UNDEFINED> instruction: 0x06120111
 194:	00001710 	andeq	r1, r0, r0, lsl r7
 198:	0b002402 	bleq	91a8 <_start-0x877f6e58>
 19c:	030b3e0b 	movweq	r3, #48651	; 0xbe0b
 1a0:	0300000e 	movweq	r0, #14
 1a4:	0b0b0024 	bleq	2c023c <_start-0x8753fdc4>
 1a8:	08030b3e 	stmdaeq	r3, {r1, r2, r3, r4, r5, r8, r9, fp}
 1ac:	01040000 	mrseq	r0, (UNDEF: 4)
 1b0:	01134901 	tsteq	r3, r1, lsl #18
 1b4:	05000013 	streq	r0, [r0, #-19]
 1b8:	13490021 	movtne	r0, #36897	; 0x9021
 1bc:	00000b2f 	andeq	r0, r0, pc, lsr #22
 1c0:	49003506 	stmdbmi	r0, {r1, r2, r8, sl, ip, sp}
 1c4:	07000013 	smladeq	r0, r3, r0, r0
 1c8:	0b0b0113 	bleq	2c061c <_start-0x8753f9e4>
 1cc:	053b0b3a 	ldreq	r0, [fp, #-2874]!	; 0xb3a
 1d0:	00001301 	andeq	r1, r0, r1, lsl #6
 1d4:	03000d08 	movweq	r0, #3336	; 0xd08
 1d8:	3b0b3a08 	blcc	2cea00 <_start-0x87531600>
 1dc:	38134905 	ldmdacc	r3, {r0, r2, r8, fp, lr}
 1e0:	0900000b 	stmdbeq	r0, {r0, r1, r3}
 1e4:	0e03000d 	cdpeq	0, 0, cr0, cr3, cr13, {0}
 1e8:	053b0b3a 	ldreq	r0, [fp, #-2874]!	; 0xb3a
 1ec:	0b381349 	bleq	e04f18 <_start-0x869fb0e8>
 1f0:	160a0000 	strne	r0, [sl], -r0
 1f4:	3a0e0300 	bcc	380dfc <_start-0x8747f204>
 1f8:	49053b0b 	stmdbmi	r5, {r0, r1, r3, r8, r9, fp, ip, sp}
 1fc:	0b000013 	bleq	250 <_start-0x877ffdb0>
 200:	050b0113 	streq	r0, [fp, #-275]	; 0x113
 204:	053b0b3a 	ldreq	r0, [fp, #-2874]!	; 0xb3a
 208:	00001301 	andeq	r1, r0, r1, lsl #6
 20c:	03000d0c 	movweq	r0, #3340	; 0xd0c
 210:	3b0b3a0e 	blcc	2cea50 <_start-0x875315b0>
 214:	38134905 	ldmdacc	r3, {r0, r2, r8, fp, lr}
 218:	0d000005 	stceq	0, cr0, [r0, #-20]	; 0xffffffec
 21c:	193f002e 	ldmdbne	pc!, {r1, r2, r3, r5}	; <UNPREDICTABLE>
 220:	0b3a0e03 	bleq	e83a34 <_start-0x8697c5cc>
 224:	19270b3b 	stmdbne	r7!, {r0, r1, r3, r4, r5, r8, r9, fp}
 228:	06120111 			; <UNDEFINED> instruction: 0x06120111
 22c:	42971840 	addsmi	r1, r7, #64, 16	; 0x400000
 230:	0e000019 	mcreq	0, 0, r0, cr0, cr9, {0}
 234:	193f002e 	ldmdbne	pc!, {r1, r2, r3, r5}	; <UNPREDICTABLE>
 238:	0b3a0e03 	bleq	e83a4c <_start-0x8697c5b4>
 23c:	19270b3b 	stmdbne	r7!, {r0, r1, r3, r4, r5, r8, r9, fp}
 240:	06120111 			; <UNDEFINED> instruction: 0x06120111
 244:	42961840 	addsmi	r1, r6, #64, 16	; 0x400000
 248:	0f000019 	svceq	0x00000019
 24c:	193f012e 	ldmdbne	pc!, {r1, r2, r3, r5, r8}	; <UNPREDICTABLE>
 250:	0b3a0e03 	bleq	e83a64 <_start-0x8697c59c>
 254:	19270b3b 	stmdbne	r7!, {r0, r1, r3, r4, r5, r8, r9, fp}
 258:	06120111 			; <UNDEFINED> instruction: 0x06120111
 25c:	42971840 	addsmi	r1, r7, #64, 16	; 0x400000
 260:	00130119 	andseq	r0, r3, r9, lsl r1
 264:	00341000 	eorseq	r1, r4, r0
 268:	0b3a0803 	bleq	e8227c <_start-0x8697dd84>
 26c:	13490b3b 	movtne	r0, #39739	; 0x9b3b
 270:	00001802 	andeq	r1, r0, r2, lsl #16
 274:	01110100 	tsteq	r1, r0, lsl #2
 278:	0b130e25 	bleq	4c3b14 <_start-0x8733c4ec>
 27c:	0e1b0e03 	cdpeq	14, 1, cr0, cr11, cr3, {0}
 280:	06120111 			; <UNDEFINED> instruction: 0x06120111
 284:	00001710 	andeq	r1, r0, r0, lsl r7
 288:	0b002402 	bleq	9298 <_start-0x877f6d68>
 28c:	030b3e0b 	movweq	r3, #48651	; 0xbe0b
 290:	0300000e 	movweq	r0, #14
 294:	0b0b0024 	bleq	2c032c <_start-0x8753fcd4>
 298:	08030b3e 	stmdaeq	r3, {r1, r2, r3, r4, r5, r8, r9, fp}
 29c:	35040000 	strcc	r0, [r4, #-0]
 2a0:	00134900 	andseq	r4, r3, r0, lsl #18
 2a4:	01010500 	tsteq	r1, r0, lsl #10
 2a8:	13011349 	movwne	r1, #4937	; 0x1349
 2ac:	21060000 	mrscs	r0, (UNDEF: 6)
 2b0:	2f134900 	svccs	0x00134900
 2b4:	0700000b 	streq	r0, [r0, -fp]
 2b8:	0b0b0113 	bleq	2c070c <_start-0x8753f8f4>
 2bc:	053b0b3a 	ldreq	r0, [fp, #-2874]!	; 0xb3a
 2c0:	00001301 	andeq	r1, r0, r1, lsl #6
 2c4:	03000d08 	movweq	r0, #3336	; 0xd08
 2c8:	3b0b3a08 	blcc	2ceaf0 <_start-0x87531510>
 2cc:	38134905 	ldmdacc	r3, {r0, r2, r8, fp, lr}
 2d0:	0900000b 	stmdbeq	r0, {r0, r1, r3}
 2d4:	0e030016 	mcreq	0, 0, r0, cr3, cr6, {0}
 2d8:	053b0b3a 	ldreq	r0, [fp, #-2874]!	; 0xb3a
 2dc:	00001349 	andeq	r1, r0, r9, asr #6
 2e0:	3f012e0a 	svccc	0x00012e0a
 2e4:	3a0e0319 	bcc	380f50 <_start-0x8747f0b0>
 2e8:	270b3b0b 	strcs	r3, [fp, -fp, lsl #22]
 2ec:	12011119 	andne	r1, r1, #1073741830	; 0x40000006
 2f0:	97184006 	ldrls	r4, [r8, -r6]
 2f4:	13011942 	movwne	r1, #6466	; 0x1942
 2f8:	050b0000 	streq	r0, [fp, #-0]
 2fc:	3a080300 	bcc	200f04 <_start-0x875ff0fc>
 300:	490b3b0b 	stmdbmi	fp, {r0, r1, r3, r8, r9, fp, ip, sp}
 304:	00180213 	andseq	r0, r8, r3, lsl r2
 308:	012e0c00 	teqeq	lr, r0, lsl #24
 30c:	0e03193f 	mcreq	9, 0, r1, cr3, cr15, {1}
 310:	0b3b0b3a 	bleq	ec3000 <_start-0x8693d000>
 314:	01111927 	tsteq	r1, r7, lsr #18
 318:	18400612 	stmdane	r0, {r1, r4, r9, sl}^
 31c:	01194296 			; <UNDEFINED> instruction: 0x01194296
 320:	0d000013 	stceq	0, cr0, [r0, #-76]	; 0xffffffb4
 324:	193f002e 	ldmdbne	pc!, {r1, r2, r3, r5}	; <UNPREDICTABLE>
 328:	0b3a0e03 	bleq	e83b3c <_start-0x8697c4c4>
 32c:	19270b3b 	stmdbne	r7!, {r0, r1, r3, r4, r5, r8, r9, fp}
 330:	06120111 			; <UNDEFINED> instruction: 0x06120111
 334:	42971840 	addsmi	r1, r7, #64, 16	; 0x400000
 338:	0e000019 	mcreq	0, 0, r0, cr0, cr9, {0}
 33c:	0e030005 	cdpeq	0, 0, cr0, cr3, cr5, {0}
 340:	0b3b0b3a 	bleq	ec3030 <_start-0x8693cfd0>
 344:	18021349 	stmdane	r2, {r0, r3, r6, r8, r9, ip}
 348:	340f0000 	strcc	r0, [pc], #-0	; 350 <_start-0x877ffcb0>
 34c:	3a0e0300 	bcc	380f54 <_start-0x8747f0ac>
 350:	490b3b0b 	stmdbmi	fp, {r0, r1, r3, r8, r9, fp, ip, sp}
 354:	00180213 	andseq	r0, r8, r3, lsl r2
 358:	00341000 	eorseq	r1, r4, r0
 35c:	0b3a0803 	bleq	e82370 <_start-0x8697dc90>
 360:	13490b3b 	movtne	r0, #39739	; 0x9b3b
 364:	00001802 	andeq	r1, r0, r2, lsl #16
 368:	3f012e11 	svccc	0x00012e11
 36c:	3a0e0319 	bcc	380fd8 <_start-0x8747f028>
 370:	270b3b0b 	strcs	r3, [fp, -fp, lsl #22]
 374:	12011119 	andne	r1, r1, #1073741830	; 0x40000006
 378:	96184006 	ldrls	r4, [r8], -r6
 37c:	00001942 	andeq	r1, r0, r2, asr #18
 380:	01110100 	tsteq	r1, r0, lsl #2
 384:	0b130e25 	bleq	4c3c20 <_start-0x8733c3e0>
 388:	0e1b0e03 	cdpeq	14, 1, cr0, cr11, cr3, {0}
 38c:	06120111 			; <UNDEFINED> instruction: 0x06120111
 390:	00001710 	andeq	r1, r0, r0, lsl r7
 394:	0b002402 	bleq	93a4 <_start-0x877f6c5c>
 398:	030b3e0b 	movweq	r3, #48651	; 0xbe0b
 39c:	0300000e 	movweq	r0, #14
 3a0:	0b0b0024 	bleq	2c0438 <_start-0x8753fbc8>
 3a4:	08030b3e 	stmdaeq	r3, {r1, r2, r3, r4, r5, r8, r9, fp}
 3a8:	35040000 	strcc	r0, [r4, #-0]
 3ac:	00134900 	andseq	r4, r3, r0, lsl #18
 3b0:	01130500 	tsteq	r3, r0, lsl #10
 3b4:	0b3a0b0b 	bleq	e82fe8 <_start-0x8697d018>
 3b8:	1301053b 	movwne	r0, #5435	; 0x153b
 3bc:	0d060000 	stceq	0, cr0, [r6, #-0]
 3c0:	3a080300 	bcc	200fc8 <_start-0x875ff038>
 3c4:	49053b0b 	stmdbmi	r5, {r0, r1, r3, r8, r9, fp, ip, sp}
 3c8:	000b3813 	andeq	r3, fp, r3, lsl r8
 3cc:	000d0700 	andeq	r0, sp, r0, lsl #14
 3d0:	0b3a0e03 	bleq	e83be4 <_start-0x8697c41c>
 3d4:	1349053b 	movtne	r0, #38203	; 0x953b
 3d8:	00000b38 	andeq	r0, r0, r8, lsr fp
 3dc:	03001608 	movweq	r1, #1544	; 0x608
 3e0:	3b0b3a0e 	blcc	2cec20 <_start-0x875313e0>
 3e4:	00134905 	andseq	r4, r3, r5, lsl #18
 3e8:	01130900 	tsteq	r3, r0, lsl #18
 3ec:	0b3a050b 	bleq	e81820 <_start-0x8697e7e0>
 3f0:	13010b3b 	movwne	r0, #6971	; 0x1b3b
 3f4:	0d0a0000 	stceq	0, cr0, [sl, #-0]
 3f8:	3a0e0300 	bcc	381000 <_start-0x8747f000>
 3fc:	490b3b0b 	stmdbmi	fp, {r0, r1, r3, r8, r9, fp, ip, sp}
 400:	000b3813 	andeq	r3, fp, r3, lsl r8
 404:	000d0b00 	andeq	r0, sp, r0, lsl #22
 408:	0b3a0e03 	bleq	e83c1c <_start-0x8697c3e4>
 40c:	13490b3b 	movtne	r0, #39739	; 0x9b3b
 410:	00000538 	andeq	r0, r0, r8, lsr r5
 414:	0300160c 	movweq	r1, #1548	; 0x60c
 418:	3b0b3a0e 	blcc	2cec58 <_start-0x875313a8>
 41c:	0013490b 	andseq	r4, r3, fp, lsl #18
 420:	000d0d00 	andeq	r0, sp, r0, lsl #26
 424:	0b3a0e03 	bleq	e83c38 <_start-0x8697c3c8>
 428:	1349053b 	movtne	r0, #38203	; 0x953b
 42c:	00000538 	andeq	r0, r0, r8, lsr r5
 430:	0301040e 	movweq	r0, #5134	; 0x140e
 434:	3a0b0b0e 	bcc	2c3074 <_start-0x8753cf8c>
 438:	010b3b0b 	tsteq	fp, fp, lsl #22
 43c:	0f000013 	svceq	0x00000013
 440:	0e030028 	cdpeq	0, 0, cr0, cr3, cr8, {1}
 444:	00000d1c 	andeq	r0, r0, ip, lsl sp
 448:	03011310 	movweq	r1, #4880	; 0x1310
 44c:	3a0b0b0e 	bcc	2c308c <_start-0x8753cf74>
 450:	010b3b0b 	tsteq	fp, fp, lsl #22
 454:	11000013 	tstne	r0, r3, lsl r0
 458:	193f012e 	ldmdbne	pc!, {r1, r2, r3, r5, r8}	; <UNPREDICTABLE>
 45c:	0b3a0e03 	bleq	e83c70 <_start-0x8697c390>
 460:	19270b3b 	stmdbne	r7!, {r0, r1, r3, r4, r5, r8, r9, fp}
 464:	06120111 			; <UNDEFINED> instruction: 0x06120111
 468:	42961840 	addsmi	r1, r6, #64, 16	; 0x400000
 46c:	00130119 	andseq	r0, r3, r9, lsl r1
 470:	00341200 	eorseq	r1, r4, r0, lsl #4
 474:	0b3a0e03 	bleq	e83c88 <_start-0x8697c378>
 478:	13490b3b 	movtne	r0, #39739	; 0x9b3b
 47c:	00001802 	andeq	r1, r0, r2, lsl #16
 480:	3f002e13 	svccc	0x00002e13
 484:	3a0e0319 	bcc	3810f0 <_start-0x8747ef10>
 488:	270b3b0b 	strcs	r3, [fp, -fp, lsl #22]
 48c:	12011119 	andne	r1, r1, #1073741830	; 0x40000006
 490:	96184006 	ldrls	r4, [r8], -r6
 494:	00001942 	andeq	r1, r0, r2, asr #18
 498:	3f012e14 	svccc	0x00012e14
 49c:	3a0e0319 	bcc	381108 <_start-0x8747eef8>
 4a0:	270b3b0b 	strcs	r3, [fp, -fp, lsl #22]
 4a4:	12011119 	andne	r1, r1, #1073741830	; 0x40000006
 4a8:	96184006 	ldrls	r4, [r8], -r6
 4ac:	00001942 	andeq	r1, r0, r2, asr #18
 4b0:	03000515 	movweq	r0, #1301	; 0x515
 4b4:	3b0b3a0e 	blcc	2cecf4 <_start-0x8753130c>
 4b8:	0213490b 	andseq	r4, r3, #180224	; 0x2c000
 4bc:	00000018 	andeq	r0, r0, r8, lsl r0
 4c0:	25011101 	strcs	r1, [r1, #-257]	; 0x101
 4c4:	030b130e 	movweq	r1, #45838	; 0xb30e
 4c8:	110e1b0e 	tstne	lr, lr, lsl #22
 4cc:	10061201 	andne	r1, r6, r1, lsl #4
 4d0:	02000017 	andeq	r0, r0, #23
 4d4:	0b0b0024 	bleq	2c056c <_start-0x8753fa94>
 4d8:	0e030b3e 	vmoveq.16	d3[0], r0
 4dc:	24030000 	strcs	r0, [r3], #-0
 4e0:	3e0b0b00 	vmlacc.f64	d0, d11, d0
 4e4:	0008030b 	andeq	r0, r8, fp, lsl #6
 4e8:	00350400 	eorseq	r0, r5, r0, lsl #8
 4ec:	00001349 	andeq	r1, r0, r9, asr #6
 4f0:	0b011305 	bleq	4510c <_start-0x877baef4>
 4f4:	3b0b3a0b 	blcc	2ced28 <_start-0x875312d8>
 4f8:	00130105 	andseq	r0, r3, r5, lsl #2
 4fc:	000d0600 	andeq	r0, sp, r0, lsl #12
 500:	0b3a0803 	bleq	e82514 <_start-0x8697daec>
 504:	1349053b 	movtne	r0, #38203	; 0x953b
 508:	00000b38 	andeq	r0, r0, r8, lsr fp
 50c:	03000d07 	movweq	r0, #3335	; 0xd07
 510:	3b0b3a0e 	blcc	2ced50 <_start-0x875312b0>
 514:	38134905 	ldmdacc	r3, {r0, r2, r8, fp, lr}
 518:	0800000b 	stmdaeq	r0, {r0, r1, r3}
 51c:	0e030016 	mcreq	0, 0, r0, cr3, cr6, {0}
 520:	053b0b3a 	ldreq	r0, [fp, #-2874]!	; 0xb3a
 524:	00001349 	andeq	r1, r0, r9, asr #6
 528:	03010409 	movweq	r0, #5129	; 0x1409
 52c:	3a0b0b0e 	bcc	2c316c <_start-0x8753ce94>
 530:	010b3b0b 	tsteq	fp, fp, lsl #22
 534:	0a000013 	beq	588 <_start-0x877ffa78>
 538:	0e030028 	cdpeq	0, 0, cr0, cr3, cr8, {1}
 53c:	00000d1c 	andeq	r0, r0, ip, lsl sp
 540:	0300160b 	movweq	r1, #1547	; 0x60b
 544:	3b0b3a0e 	blcc	2ced84 <_start-0x8753127c>
 548:	0013490b 	andseq	r4, r3, fp, lsl #18
 54c:	01130c00 	tsteq	r3, r0, lsl #24
 550:	0b0b0e03 	bleq	2c3d64 <_start-0x8753c29c>
 554:	0b3b0b3a 	bleq	ec3244 <_start-0x8693cdbc>
 558:	00001301 	andeq	r1, r0, r1, lsl #6
 55c:	03000d0d 	movweq	r0, #3341	; 0xd0d
 560:	3b0b3a0e 	blcc	2ceda0 <_start-0x87531260>
 564:	3813490b 	ldmdacc	r3, {r0, r1, r3, r8, fp, lr}
 568:	0e00000b 	cdpeq	0, 0, cr0, cr0, cr11, {0}
 56c:	193f012e 	ldmdbne	pc!, {r1, r2, r3, r5, r8}	; <UNPREDICTABLE>
 570:	0b3a0e03 	bleq	e83d84 <_start-0x8697c27c>
 574:	19270b3b 	stmdbne	r7!, {r0, r1, r3, r4, r5, r8, r9, fp}
 578:	06120111 			; <UNDEFINED> instruction: 0x06120111
 57c:	42961840 	addsmi	r1, r6, #64, 16	; 0x400000
 580:	00130119 	andseq	r0, r3, r9, lsl r1
 584:	00340f00 	eorseq	r0, r4, r0, lsl #30
 588:	0b3a0e03 	bleq	e83d9c <_start-0x8697c264>
 58c:	13490b3b 	movtne	r0, #39739	; 0x9b3b
 590:	00001802 	andeq	r1, r0, r2, lsl #16
 594:	3f012e10 	svccc	0x00012e10
 598:	3a0e0319 	bcc	381204 <_start-0x8747edfc>
 59c:	270b3b0b 	strcs	r3, [fp, -fp, lsl #22]
 5a0:	11134919 	tstne	r3, r9, lsl r9
 5a4:	40061201 	andmi	r1, r6, r1, lsl #4
 5a8:	19429618 	stmdbne	r2, {r3, r4, r9, sl, ip, pc}^
 5ac:	00001301 	andeq	r1, r0, r1, lsl #6
 5b0:	03003411 	movweq	r3, #1041	; 0x411
 5b4:	3b0b3a08 	blcc	2ceddc <_start-0x87531224>
 5b8:	0213490b 	andseq	r4, r3, #180224	; 0x2c000
 5bc:	12000018 	andne	r0, r0, #24
 5c0:	193f012e 	ldmdbne	pc!, {r1, r2, r3, r5, r8}	; <UNPREDICTABLE>
 5c4:	0b3a0e03 	bleq	e83dd8 <_start-0x8697c228>
 5c8:	19270b3b 	stmdbne	r7!, {r0, r1, r3, r4, r5, r8, r9, fp}
 5cc:	01111349 	tsteq	r1, r9, asr #6
 5d0:	18400612 	stmdane	r0, {r1, r4, r9, sl}^
 5d4:	00194296 	mulseq	r9, r6, r2
 5d8:	11010000 	mrsne	r0, (UNDEF: 1)
 5dc:	130e2501 	movwne	r2, #58625	; 0xe501
 5e0:	1b0e030b 	blne	381214 <_start-0x8747edec>
 5e4:	1201110e 	andne	r1, r1, #-2147483645	; 0x80000003
 5e8:	00171006 	andseq	r1, r7, r6
 5ec:	00240200 	eoreq	r0, r4, r0, lsl #4
 5f0:	0b3e0b0b 	bleq	f83224 <_start-0x8687cddc>
 5f4:	00000e03 	andeq	r0, r0, r3, lsl #28
 5f8:	0b002403 	bleq	960c <_start-0x877f69f4>
 5fc:	030b3e0b 	movweq	r3, #48651	; 0xbe0b
 600:	04000008 	streq	r0, [r0], #-8
 604:	13490035 	movtne	r0, #36917	; 0x9035
 608:	13050000 	movwne	r0, #20480	; 0x5000
 60c:	3a0b0b01 	bcc	2c3218 <_start-0x8753cde8>
 610:	01053b0b 	tsteq	r5, fp, lsl #22
 614:	06000013 			; <UNDEFINED> instruction: 0x06000013
 618:	0803000d 	stmdaeq	r3, {r0, r2, r3}
 61c:	053b0b3a 	ldreq	r0, [fp, #-2874]!	; 0xb3a
 620:	0b381349 	bleq	e0534c <_start-0x869facb4>
 624:	0d070000 	stceq	0, cr0, [r7, #-0]
 628:	3a0e0300 	bcc	381230 <_start-0x8747edd0>
 62c:	49053b0b 	stmdbmi	r5, {r0, r1, r3, r8, r9, fp, ip, sp}
 630:	000b3813 	andeq	r3, fp, r3, lsl r8
 634:	00160800 	andseq	r0, r6, r0, lsl #16
 638:	0b3a0e03 	bleq	e83e4c <_start-0x8697c1b4>
 63c:	1349053b 	movtne	r0, #38203	; 0x953b
 640:	2e090000 	cdpcs	0, 0, cr0, cr9, cr0, {0}
 644:	03193f00 	tsteq	r9, #0, 30
 648:	3b0b3a0e 	blcc	2cee88 <_start-0x87531178>
 64c:	1119270b 	tstne	r9, fp, lsl #14
 650:	40061201 	andmi	r1, r6, r1, lsl #4
 654:	19429718 	stmdbne	r2, {r3, r4, r8, r9, sl, ip, pc}^
 658:	2e0a0000 	cdpcs	0, 0, cr0, cr10, cr0, {0}
 65c:	03193f01 	tsteq	r9, #1, 30
 660:	3b0b3a0e 	blcc	2ceea0 <_start-0x87531160>
 664:	1119270b 	tstne	r9, fp, lsl #14
 668:	40061201 	andmi	r1, r6, r1, lsl #4
 66c:	19429618 	stmdbne	r2, {r3, r4, r9, sl, ip, pc}^
 670:	050b0000 	streq	r0, [fp, #-0]
 674:	3a0e0300 	bcc	38127c <_start-0x8747ed84>
 678:	490b3b0b 	stmdbmi	fp, {r0, r1, r3, r8, r9, fp, ip, sp}
 67c:	00180213 	andseq	r0, r8, r3, lsl r2
 680:	11010000 	mrsne	r0, (UNDEF: 1)
 684:	130e2501 	movwne	r2, #58625	; 0xe501
 688:	1b0e030b 	blne	3812bc <_start-0x8747ed44>
 68c:	1201110e 	andne	r1, r1, #-2147483645	; 0x80000003
 690:	00171006 	andseq	r1, r7, r6
 694:	00240200 	eoreq	r0, r4, r0, lsl #4
 698:	0b3e0b0b 	bleq	f832cc <_start-0x8687cd34>
 69c:	00000e03 	andeq	r0, r0, r3, lsl #28
 6a0:	0b002403 	bleq	96b4 <_start-0x877f694c>
 6a4:	030b3e0b 	movweq	r3, #48651	; 0xbe0b
 6a8:	04000008 	streq	r0, [r0], #-8
 6ac:	0e030104 	adfeqs	f0, f3, f4
 6b0:	0b3a0b0b 	bleq	e832e4 <_start-0x8697cd1c>
 6b4:	13010b3b 	movwne	r0, #6971	; 0x1b3b
 6b8:	28050000 	stmdacs	r5, {}	; <UNPREDICTABLE>
 6bc:	1c0e0300 	stcne	3, cr0, [lr], {-0}
 6c0:	0600000d 	streq	r0, [r0], -sp
 6c4:	0e030016 	mcreq	0, 0, r0, cr3, cr6, {0}
 6c8:	0b3b0b3a 	bleq	ec33b8 <_start-0x8693cc48>
 6cc:	00001349 	andeq	r1, r0, r9, asr #6
 6d0:	49003507 	stmdbmi	r0, {r0, r1, r2, r8, sl, ip, sp}
 6d4:	08000013 	stmdaeq	r0, {r0, r1, r4}
 6d8:	13490101 	movtne	r0, #37121	; 0x9101
 6dc:	00001301 	andeq	r1, r0, r1, lsl #6
 6e0:	49002109 	stmdbmi	r0, {r0, r3, r8, sp}
 6e4:	000b2f13 	andeq	r2, fp, r3, lsl pc
 6e8:	01130a00 	tsteq	r3, r0, lsl #20
 6ec:	0b3a0b0b 	bleq	e83320 <_start-0x8697cce0>
 6f0:	1301053b 	movwne	r0, #5435	; 0x153b
 6f4:	0d0b0000 	stceq	0, cr0, [fp, #-0]
 6f8:	3a080300 	bcc	201300 <_start-0x875fed00>
 6fc:	49053b0b 	stmdbmi	r5, {r0, r1, r3, r8, r9, fp, ip, sp}
 700:	000b3813 	andeq	r3, fp, r3, lsl r8
 704:	000d0c00 	andeq	r0, sp, r0, lsl #24
 708:	0b3a0e03 	bleq	e83f1c <_start-0x8697c0e4>
 70c:	1349053b 	movtne	r0, #38203	; 0x953b
 710:	00000b38 	andeq	r0, r0, r8, lsr fp
 714:	0300160d 	movweq	r1, #1549	; 0x60d
 718:	3b0b3a0e 	blcc	2cef58 <_start-0x875310a8>
 71c:	00134905 	andseq	r4, r3, r5, lsl #18
 720:	01130e00 	tsteq	r3, r0, lsl #28
 724:	0b3a050b 	bleq	e81b58 <_start-0x8697e4a8>
 728:	1301053b 	movwne	r0, #5435	; 0x153b
 72c:	0d0f0000 	stceq	0, cr0, [pc, #-0]	; 734 <_start-0x877ff8cc>
 730:	3a0e0300 	bcc	381338 <_start-0x8747ecc8>
 734:	49053b0b 	stmdbmi	r5, {r0, r1, r3, r8, r9, fp, ip, sp}
 738:	00053813 	andeq	r3, r5, r3, lsl r8
 73c:	00211000 	eoreq	r1, r1, r0
 740:	052f1349 	streq	r1, [pc, #-841]!	; 3ff <_start-0x877ffc01>
 744:	26110000 	ldrcs	r0, [r1], -r0
 748:	00134900 	andseq	r4, r3, r0, lsl #18
 74c:	01131200 	tsteq	r3, r0, lsl #4
 750:	0b0b0e03 	bleq	2c3f64 <_start-0x8753c09c>
 754:	0b3b0b3a 	bleq	ec3444 <_start-0x8693cbbc>
 758:	00001301 	andeq	r1, r0, r1, lsl #6
 75c:	03000d13 	movweq	r0, #3347	; 0xd13
 760:	3b0b3a0e 	blcc	2cefa0 <_start-0x87531060>
 764:	3813490b 	ldmdacc	r3, {r0, r1, r3, r8, fp, lr}
 768:	1400000b 	strne	r0, [r0], #-11
 76c:	0b0b000f 	bleq	2c07b0 <_start-0x8753f850>
 770:	2e150000 	cdpcs	0, 1, cr0, cr5, cr0, {0}
 774:	3a0e0301 	bcc	381380 <_start-0x8747ec80>
 778:	27053b0b 	strcs	r3, [r5, -fp, lsl #22]
 77c:	20134919 	andscs	r4, r3, r9, lsl r9
 780:	0013010b 	andseq	r0, r3, fp, lsl #2
 784:	010b1600 	tsteq	fp, r0, lsl #12
 788:	34170000 	ldrcc	r0, [r7], #-0
 78c:	3a0e0300 	bcc	381394 <_start-0x8747ec6c>
 790:	49053b0b 	stmdbmi	r5, {r0, r1, r3, r8, r9, fp, ip, sp}
 794:	18000013 	stmdane	r0, {r0, r1, r4}
 798:	0e03012e 	adfeqsp	f0, f3, #0.5
 79c:	053b0b3a 	ldreq	r0, [fp, #-2874]!	; 0xb3a
 7a0:	0b201927 	bleq	806c44 <_start-0x86ff93bc>
 7a4:	00001301 	andeq	r1, r0, r1, lsl #6
 7a8:	03000519 	movweq	r0, #1305	; 0x519
 7ac:	3b0b3a0e 	blcc	2cefec <_start-0x87531014>
 7b0:	00134905 	andseq	r4, r3, r5, lsl #18
 7b4:	00341a00 	eorseq	r1, r4, r0, lsl #20
 7b8:	0b3a0803 	bleq	e827cc <_start-0x8697d834>
 7bc:	1349053b 	movtne	r0, #38203	; 0x953b
 7c0:	0f1b0000 	svceq	0x001b0000
 7c4:	490b0b00 	stmdbmi	fp, {r8, r9, fp}
 7c8:	1c000013 	stcne	0, cr0, [r0], {19}
 7cc:	193f012e 	ldmdbne	pc!, {r1, r2, r3, r5, r8}	; <UNPREDICTABLE>
 7d0:	0b3a0e03 	bleq	e83fe4 <_start-0x8697c01c>
 7d4:	19270b3b 	stmdbne	r7!, {r0, r1, r3, r4, r5, r8, r9, fp}
 7d8:	06120111 			; <UNDEFINED> instruction: 0x06120111
 7dc:	42961840 	addsmi	r1, r6, #64, 16	; 0x400000
 7e0:	00130119 	andseq	r0, r3, r9, lsl r1
 7e4:	00341d00 	eorseq	r1, r4, r0, lsl #26
 7e8:	0b3a0e03 	bleq	e83ffc <_start-0x8697c004>
 7ec:	13490b3b 	movtne	r0, #39739	; 0x9b3b
 7f0:	00001802 	andeq	r1, r0, r2, lsl #16
 7f4:	31011d1e 	tstcc	r1, lr, lsl sp
 7f8:	12011113 	andne	r1, r1, #-1073741820	; 0xc0000004
 7fc:	590b5806 	stmdbpl	fp, {r1, r2, fp, ip, lr}
 800:	1f00000b 	svcne	0x0000000b
 804:	13310005 	teqne	r1, #5
 808:	00001802 	andeq	r1, r0, r2, lsl #16
 80c:	11010b20 	tstne	r1, r0, lsr #22
 810:	00061201 	andeq	r1, r6, r1, lsl #4
 814:	00342100 	eorseq	r2, r4, r0, lsl #2
 818:	18021331 	stmdane	r2, {r0, r4, r5, r8, r9, ip}
 81c:	1d220000 	stcne	0, cr0, [r2, #-0]
 820:	11133101 	tstne	r3, r1, lsl #2
 824:	58061201 	stmdapl	r6, {r0, r9, ip}
 828:	0005590b 	andeq	r5, r5, fp, lsl #18
 82c:	00052300 	andeq	r2, r5, r0, lsl #6
 830:	0b3a0e03 	bleq	e84044 <_start-0x8697bfbc>
 834:	13490b3b 	movtne	r0, #39739	; 0x9b3b
 838:	00001802 	andeq	r1, r0, r2, lsl #16
 83c:	3f012e24 	svccc	0x00012e24
 840:	3a0e0319 	bcc	3814ac <_start-0x8747eb54>
 844:	270b3b0b 	strcs	r3, [fp, -fp, lsl #22]
 848:	12011119 	andne	r1, r1, #1073741830	; 0x40000006
 84c:	96184006 	ldrls	r4, [r8], -r6
 850:	00001942 	andeq	r1, r0, r2, asr #18
 854:	01110100 	tsteq	r1, r0, lsl #2
 858:	0b130e25 	bleq	4c40f4 <_start-0x8733bf0c>
 85c:	0e1b0e03 	cdpeq	14, 1, cr0, cr11, cr3, {0}
 860:	06120111 			; <UNDEFINED> instruction: 0x06120111
 864:	00001710 	andeq	r1, r0, r0, lsl r7
 868:	0b002402 	bleq	9878 <_start-0x877f6788>
 86c:	030b3e0b 	movweq	r3, #48651	; 0xbe0b
 870:	0300000e 	movweq	r0, #14
 874:	0b0b0024 	bleq	2c090c <_start-0x8753f6f4>
 878:	08030b3e 	stmdaeq	r3, {r1, r2, r3, r4, r5, r8, r9, fp}
 87c:	04040000 	streq	r0, [r4], #-0
 880:	0b0e0301 	bleq	38148c <_start-0x8747eb74>
 884:	3b0b3a0b 	blcc	2cf0b8 <_start-0x87530f48>
 888:	0013010b 	andseq	r0, r3, fp, lsl #2
 88c:	00280500 	eoreq	r0, r8, r0, lsl #10
 890:	0d1c0e03 	ldceq	14, cr0, [ip, #-12]
 894:	16060000 	strne	r0, [r6], -r0
 898:	3a0e0300 	bcc	3814a0 <_start-0x8747eb60>
 89c:	490b3b0b 	stmdbmi	fp, {r0, r1, r3, r8, r9, fp, ip, sp}
 8a0:	07000013 	smladeq	r0, r3, r0, r0
 8a4:	13490035 	movtne	r0, #36917	; 0x9035
 8a8:	01080000 	mrseq	r0, (UNDEF: 8)
 8ac:	01134901 	tsteq	r3, r1, lsl #18
 8b0:	09000013 	stmdbeq	r0, {r0, r1, r4}
 8b4:	13490021 	movtne	r0, #36897	; 0x9021
 8b8:	00000b2f 	andeq	r0, r0, pc, lsr #22
 8bc:	0b01130a 	bleq	454ec <_start-0x877bab14>
 8c0:	3b0b3a0b 	blcc	2cf0f4 <_start-0x87530f0c>
 8c4:	00130105 	andseq	r0, r3, r5, lsl #2
 8c8:	000d0b00 	andeq	r0, sp, r0, lsl #22
 8cc:	0b3a0803 	bleq	e828e0 <_start-0x8697d720>
 8d0:	1349053b 	movtne	r0, #38203	; 0x953b
 8d4:	00000b38 	andeq	r0, r0, r8, lsr fp
 8d8:	03000d0c 	movweq	r0, #3340	; 0xd0c
 8dc:	3b0b3a0e 	blcc	2cf11c <_start-0x87530ee4>
 8e0:	38134905 	ldmdacc	r3, {r0, r2, r8, fp, lr}
 8e4:	0d00000b 	stceq	0, cr0, [r0, #-44]	; 0xffffffd4
 8e8:	0e030016 	mcreq	0, 0, r0, cr3, cr6, {0}
 8ec:	053b0b3a 	ldreq	r0, [fp, #-2874]!	; 0xb3a
 8f0:	00001349 	andeq	r1, r0, r9, asr #6
 8f4:	0b01130e 	bleq	45534 <_start-0x877baacc>
 8f8:	3b0b3a05 	blcc	2cf114 <_start-0x87530eec>
 8fc:	00130105 	andseq	r0, r3, r5, lsl #2
 900:	000d0f00 	andeq	r0, sp, r0, lsl #30
 904:	0b3a0e03 	bleq	e84118 <_start-0x8697bee8>
 908:	1349053b 	movtne	r0, #38203	; 0x953b
 90c:	00000538 	andeq	r0, r0, r8, lsr r5
 910:	49002110 	stmdbmi	r0, {r4, r8, sp}
 914:	00052f13 	andeq	r2, r5, r3, lsl pc
 918:	00261100 	eoreq	r1, r6, r0, lsl #2
 91c:	00001349 	andeq	r1, r0, r9, asr #6
 920:	0b000f12 	bleq	4570 <_start-0x877fba90>
 924:	1300000b 	movwne	r0, #11
 928:	0e03012e 	adfeqsp	f0, f3, #0.5
 92c:	053b0b3a 	ldreq	r0, [fp, #-2874]!	; 0xb3a
 930:	13491927 	movtne	r1, #39207	; 0x9927
 934:	13010b20 	movwne	r0, #6944	; 0x1b20
 938:	0b140000 	bleq	500940 <_start-0x872ff6c0>
 93c:	15000001 	strne	r0, [r0, #-1]
 940:	0e030034 	mcreq	0, 0, r0, cr3, cr4, {1}
 944:	053b0b3a 	ldreq	r0, [fp, #-2874]!	; 0xb3a
 948:	00001349 	andeq	r1, r0, r9, asr #6
 94c:	03012e16 	movweq	r2, #7702	; 0x1e16
 950:	3b0b3a0e 	blcc	2cf190 <_start-0x87530e70>
 954:	20192705 	andscs	r2, r9, r5, lsl #14
 958:	0013010b 	andseq	r0, r3, fp, lsl #2
 95c:	00051700 	andeq	r1, r5, r0, lsl #14
 960:	0b3a0e03 	bleq	e84174 <_start-0x8697be8c>
 964:	1349053b 	movtne	r0, #38203	; 0x953b
 968:	34180000 	ldrcc	r0, [r8], #-0
 96c:	3a080300 	bcc	201574 <_start-0x875fea8c>
 970:	49053b0b 	stmdbmi	r5, {r0, r1, r3, r8, r9, fp, ip, sp}
 974:	19000013 	stmdbne	r0, {r0, r1, r4}
 978:	0b0b000f 	bleq	2c09bc <_start-0x8753f644>
 97c:	00001349 	andeq	r1, r0, r9, asr #6
 980:	3f012e1a 	svccc	0x00012e1a
 984:	3a0e0319 	bcc	3815f0 <_start-0x8747ea10>
 988:	270b3b0b 	strcs	r3, [fp, -fp, lsl #22]
 98c:	12011119 	andne	r1, r1, #1073741830	; 0x40000006
 990:	96184006 	ldrls	r4, [r8], -r6
 994:	13011942 	movwne	r1, #6466	; 0x1942
 998:	051b0000 	ldreq	r0, [fp, #-0]
 99c:	3a0e0300 	bcc	3815a4 <_start-0x8747ea5c>
 9a0:	490b3b0b 	stmdbmi	fp, {r0, r1, r3, r8, r9, fp, ip, sp}
 9a4:	00180213 	andseq	r0, r8, r3, lsl r2
 9a8:	011d1c00 	tsteq	sp, r0, lsl #24
 9ac:	01111331 	tsteq	r1, r1, lsr r3
 9b0:	0b580612 	bleq	1602200 <_start-0x861fde00>
 9b4:	00000b59 	andeq	r0, r0, r9, asr fp
 9b8:	3100051d 	tstcc	r0, sp, lsl r5
 9bc:	00180213 	andseq	r0, r8, r3, lsl r2
 9c0:	010b1e00 	tsteq	fp, r0, lsl #28
 9c4:	06120111 			; <UNDEFINED> instruction: 0x06120111
 9c8:	341f0000 	ldrcc	r0, [pc], #-0	; 9d0 <_start-0x877ff630>
 9cc:	02133100 	andseq	r3, r3, #0, 2
 9d0:	20000018 	andcs	r0, r0, r8, lsl r0
 9d4:	1331011d 	teqne	r1, #1073741831	; 0x40000007
 9d8:	06120111 			; <UNDEFINED> instruction: 0x06120111
 9dc:	05590b58 	ldrbeq	r0, [r9, #-2904]	; 0xb58
 9e0:	34210000 	strtcc	r0, [r1], #-0
 9e4:	3a0e0300 	bcc	3815ec <_start-0x8747ea14>
 9e8:	490b3b0b 	stmdbmi	fp, {r0, r1, r3, r8, r9, fp, ip, sp}
 9ec:	00180213 	andseq	r0, r8, r3, lsl r2
 9f0:	002e2200 	eoreq	r2, lr, r0, lsl #4
 9f4:	0e03193f 	mcreq	9, 0, r1, cr3, cr15, {1}
 9f8:	0b3b0b3a 	bleq	ec36e8 <_start-0x8693c918>
 9fc:	01111927 	tsteq	r1, r7, lsr #18
 a00:	18400612 	stmdane	r0, {r1, r4, r9, sl}^
 a04:	00194297 	mulseq	r9, r7, r2
 a08:	012e2300 	teqeq	lr, r0, lsl #6
 a0c:	0e03193f 	mcreq	9, 0, r1, cr3, cr15, {1}
 a10:	0b3b0b3a 	bleq	ec3700 <_start-0x8693c900>
 a14:	01111927 	tsteq	r1, r7, lsr #18
 a18:	18400612 	stmdane	r0, {r1, r4, r9, sl}^
 a1c:	00194296 	mulseq	r9, r6, r2
 a20:	11010000 	mrsne	r0, (UNDEF: 1)
 a24:	130e2501 	movwne	r2, #58625	; 0xe501
 a28:	1b0e030b 	blne	38165c <_start-0x8747e9a4>
 a2c:	1201110e 	andne	r1, r1, #-2147483645	; 0x80000003
 a30:	00171006 	andseq	r1, r7, r6
 a34:	00240200 	eoreq	r0, r4, r0, lsl #4
 a38:	0b3e0b0b 	bleq	f8366c <_start-0x8687c994>
 a3c:	00000e03 	andeq	r0, r0, r3, lsl #28
 a40:	0b002403 	bleq	9a54 <_start-0x877f65ac>
 a44:	030b3e0b 	movweq	r3, #48651	; 0xbe0b
 a48:	04000008 	streq	r0, [r0], #-8
 a4c:	0e030104 	adfeqs	f0, f3, f4
 a50:	0b3a0b0b 	bleq	e83684 <_start-0x8697c97c>
 a54:	13010b3b 	movwne	r0, #6971	; 0x1b3b
 a58:	28050000 	stmdacs	r5, {}	; <UNPREDICTABLE>
 a5c:	1c0e0300 	stcne	3, cr0, [lr], {-0}
 a60:	0600000d 	streq	r0, [r0], -sp
 a64:	0e030016 	mcreq	0, 0, r0, cr3, cr6, {0}
 a68:	0b3b0b3a 	bleq	ec3758 <_start-0x8693c8a8>
 a6c:	00001349 	andeq	r1, r0, r9, asr #6
 a70:	49003507 	stmdbmi	r0, {r0, r1, r2, r8, sl, ip, sp}
 a74:	08000013 	stmdaeq	r0, {r0, r1, r4}
 a78:	13490101 	movtne	r0, #37121	; 0x9101
 a7c:	00001301 	andeq	r1, r0, r1, lsl #6
 a80:	49002109 	stmdbmi	r0, {r0, r3, r8, sp}
 a84:	000b2f13 	andeq	r2, fp, r3, lsl pc
 a88:	01130a00 	tsteq	r3, r0, lsl #20
 a8c:	0b3a050b 	bleq	e81ec0 <_start-0x8697e140>
 a90:	1301053b 	movwne	r0, #5435	; 0x153b
 a94:	0d0b0000 	stceq	0, cr0, [fp, #-0]
 a98:	3a0e0300 	bcc	3816a0 <_start-0x8747e960>
 a9c:	49053b0b 	stmdbmi	r5, {r0, r1, r3, r8, r9, fp, ip, sp}
 aa0:	000b3813 	andeq	r3, fp, r3, lsl r8
 aa4:	000d0c00 	andeq	r0, sp, r0, lsl #24
 aa8:	0b3a0e03 	bleq	e842bc <_start-0x8697bd44>
 aac:	1349053b 	movtne	r0, #38203	; 0x953b
 ab0:	00000538 	andeq	r0, r0, r8, lsr r5
 ab4:	4900210d 	stmdbmi	r0, {r0, r2, r3, r8, sp}
 ab8:	00052f13 	andeq	r2, r5, r3, lsl pc
 abc:	00260e00 	eoreq	r0, r6, r0, lsl #28
 ac0:	00001349 	andeq	r1, r0, r9, asr #6
 ac4:	0300160f 	movweq	r1, #1551	; 0x60f
 ac8:	3b0b3a0e 	blcc	2cf308 <_start-0x87530cf8>
 acc:	00134905 	andseq	r4, r3, r5, lsl #18
 ad0:	000f1000 	andeq	r1, pc, r0
 ad4:	13490b0b 	movtne	r0, #39691	; 0x9b0b
 ad8:	15110000 	ldrne	r0, [r1, #-0]
 adc:	01192701 	tsteq	r9, r1, lsl #14
 ae0:	12000013 	andne	r0, r0, #19
 ae4:	13490005 	movtne	r0, #36869	; 0x9005
 ae8:	0f130000 	svceq	0x00130000
 aec:	000b0b00 	andeq	r0, fp, r0, lsl #22
 af0:	01131400 	tsteq	r3, r0, lsl #8
 af4:	0b0b0e03 	bleq	2c4308 <_start-0x8753bcf8>
 af8:	0b3b0b3a 	bleq	ec37e8 <_start-0x8693c818>
 afc:	00001301 	andeq	r1, r0, r1, lsl #6
 b00:	03000d15 	movweq	r0, #3349	; 0xd15
 b04:	3b0b3a0e 	blcc	2cf344 <_start-0x87530cbc>
 b08:	3813490b 	ldmdacc	r3, {r0, r1, r3, r8, fp, lr}
 b0c:	1600000b 	strne	r0, [r0], -fp
 b10:	0e03012e 	adfeqsp	f0, f3, #0.5
 b14:	053b0b3a 	ldreq	r0, [fp, #-2874]!	; 0xb3a
 b18:	13491927 	movtne	r1, #39207	; 0x9927
 b1c:	13010b20 	movwne	r0, #6944	; 0x1b20
 b20:	0b170000 	bleq	5c0b28 <_start-0x8723f4d8>
 b24:	18000001 	stmdane	r0, {r0}
 b28:	0e030034 	mcreq	0, 0, r0, cr3, cr4, {1}
 b2c:	053b0b3a 	ldreq	r0, [fp, #-2874]!	; 0xb3a
 b30:	00001349 	andeq	r1, r0, r9, asr #6
 b34:	03012e19 	movweq	r2, #7705	; 0x1e19
 b38:	3b0b3a0e 	blcc	2cf378 <_start-0x87530c88>
 b3c:	20192705 	andscs	r2, r9, r5, lsl #14
 b40:	0013010b 	andseq	r0, r3, fp, lsl #2
 b44:	00341a00 	eorseq	r1, r4, r0, lsl #20
 b48:	0b3a0803 	bleq	e82b5c <_start-0x8697d4a4>
 b4c:	1349053b 	movtne	r0, #38203	; 0x953b
 b50:	051b0000 	ldreq	r0, [fp, #-0]
 b54:	3a0e0300 	bcc	38175c <_start-0x8747e8a4>
 b58:	49053b0b 	stmdbmi	r5, {r0, r1, r3, r8, r9, fp, ip, sp}
 b5c:	1c000013 	stcne	0, cr0, [r0], {19}
 b60:	193f012e 	ldmdbne	pc!, {r1, r2, r3, r5, r8}	; <UNPREDICTABLE>
 b64:	0b3a0e03 	bleq	e84378 <_start-0x8697bc88>
 b68:	19270b3b 	stmdbne	r7!, {r0, r1, r3, r4, r5, r8, r9, fp}
 b6c:	06120111 			; <UNDEFINED> instruction: 0x06120111
 b70:	42961840 	addsmi	r1, r6, #64, 16	; 0x400000
 b74:	00130119 	andseq	r0, r3, r9, lsl r1
 b78:	011d1d00 	tsteq	sp, r0, lsl #26
 b7c:	01111331 	tsteq	r1, r1, lsr r3
 b80:	0b580612 	bleq	16023d0 <_start-0x861fdc30>
 b84:	13010b59 	movwne	r0, #7001	; 0x1b59
 b88:	0b1e0000 	bleq	780b90 <_start-0x8707f470>
 b8c:	12011101 	andne	r1, r1, #1073741824	; 0x40000000
 b90:	1f000006 	svcne	0x00000006
 b94:	13310034 	teqne	r1, #52	; 0x34
 b98:	00001802 	andeq	r1, r0, r2, lsl #16
 b9c:	31011d20 	tstcc	r1, r0, lsr #26
 ba0:	12011113 	andne	r1, r1, #-1073741820	; 0xc0000004
 ba4:	590b5806 	stmdbpl	fp, {r1, r2, fp, ip, lr}
 ba8:	21000005 	tstcs	r0, r5
 bac:	1331011d 	teqne	r1, #1073741831	; 0x40000007
 bb0:	06120111 			; <UNDEFINED> instruction: 0x06120111
 bb4:	0b590b58 	bleq	164391c <_start-0x861bc6e4>
 bb8:	05220000 	streq	r0, [r2, #-0]!
 bbc:	02133100 	andseq	r3, r3, #0, 2
 bc0:	23000018 	movwcs	r0, #24
 bc4:	193f012e 	ldmdbne	pc!, {r1, r2, r3, r5, r8}	; <UNPREDICTABLE>
 bc8:	0b3a0e03 	bleq	e843dc <_start-0x8697bc24>
 bcc:	19270b3b 	stmdbne	r7!, {r0, r1, r3, r4, r5, r8, r9, fp}
 bd0:	06120111 			; <UNDEFINED> instruction: 0x06120111
 bd4:	42971840 	addsmi	r1, r7, #64, 16	; 0x400000
 bd8:	00130119 	andseq	r0, r3, r9, lsl r1
 bdc:	00342400 	eorseq	r2, r4, r0, lsl #8
 be0:	0b3a0803 	bleq	e82bf4 <_start-0x8697d40c>
 be4:	13490b3b 	movtne	r0, #39739	; 0x9b3b
 be8:	00001802 	andeq	r1, r0, r2, lsl #16
 bec:	03000525 	movweq	r0, #1317	; 0x525
 bf0:	3b0b3a08 	blcc	2cf418 <_start-0x87530be8>
 bf4:	0213490b 	andseq	r4, r3, #180224	; 0x2c000
 bf8:	26000018 			; <UNDEFINED> instruction: 0x26000018
 bfc:	0e030005 	cdpeq	0, 0, cr0, cr3, cr5, {0}
 c00:	0b3b0b3a 	bleq	ec38f0 <_start-0x8693c710>
 c04:	18021349 	stmdane	r2, {r0, r3, r6, r8, r9, ip}
 c08:	34270000 	strtcc	r0, [r7], #-0
 c0c:	3a0e0300 	bcc	381814 <_start-0x8747e7ec>
 c10:	490b3b0b 	stmdbmi	fp, {r0, r1, r3, r8, r9, fp, ip, sp}
 c14:	00180213 	andseq	r0, r8, r3, lsl r2
	...

Disassembly of section .debug_aranges:

00000000 <.debug_aranges>:
   0:	0000001c 	andeq	r0, r0, ip, lsl r0
   4:	00000002 	andeq	r0, r0, r2
   8:	00040000 	andeq	r0, r4, r0
   c:	00000000 	andeq	r0, r0, r0
  10:	878002d0 			; <UNDEFINED> instruction: 0x878002d0
  14:	0000002c 	andeq	r0, r0, ip, lsr #32
	...
  20:	0000001c 	andeq	r0, r0, ip, lsl r0
  24:	008f0002 	addeq	r0, pc, r2
  28:	00040000 	andeq	r0, r4, r0
  2c:	00000000 	andeq	r0, r0, r0
  30:	878002fc 			; <UNDEFINED> instruction: 0x878002fc
  34:	000002a8 	andeq	r0, r0, r8, lsr #5
	...
  40:	0000001c 	andeq	r0, r0, ip, lsl r0
  44:	03d30002 	bicseq	r0, r3, #2
  48:	00040000 	andeq	r0, r4, r0
  4c:	00000000 	andeq	r0, r0, r0
  50:	878005a4 	strhi	r0, [r0, r4, lsr #11]
  54:	00000290 	muleq	r0, r0, r2
	...
  60:	0000001c 	andeq	r0, r0, ip, lsl r0
  64:	0a4f0002 	beq	13c0074 <_start-0x8643ff8c>
  68:	00040000 	andeq	r0, r4, r0
  6c:	00000000 	andeq	r0, r0, r0
  70:	87800834 			; <UNDEFINED> instruction: 0x87800834
  74:	000001d6 	ldrdeq	r0, [r0], -r6
	...
  80:	0000001c 	andeq	r0, r0, ip, lsl r0
  84:	0c5d0002 	mrrceq	0, 0, r0, sp, cr2
  88:	00040000 	andeq	r0, r4, r0
  8c:	00000000 	andeq	r0, r0, r0
  90:	87800a0c 	strhi	r0, [r0, ip, lsl #20]
  94:	000000c8 	andeq	r0, r0, r8, asr #1
	...
  a0:	0000001c 	andeq	r0, r0, ip, lsl r0
  a4:	1cd00002 	ldclne	0, cr0, [r0], {2}
  a8:	00040000 	andeq	r0, r4, r0
  ac:	00000000 	andeq	r0, r0, r0
  b0:	87800ad4 			; <UNDEFINED> instruction: 0x87800ad4
  b4:	000000ca 	andeq	r0, r0, sl, asr #1
	...
  c0:	0000001c 	andeq	r0, r0, ip, lsl r0
  c4:	1f020002 	svcne	0x00020002
  c8:	00040000 	andeq	r0, r4, r0
  cc:	00000000 	andeq	r0, r0, r0
  d0:	87800ba0 	strhi	r0, [r0, r0, lsr #23]
  d4:	000000ba 	strheq	r0, [r0], -sl
	...
  e0:	0000001c 	andeq	r0, r0, ip, lsl r0
  e4:	20430002 	subcs	r0, r3, r2
  e8:	00040000 	andeq	r0, r4, r0
  ec:	00000000 	andeq	r0, r0, r0
  f0:	87800c5c 			; <UNDEFINED> instruction: 0x87800c5c
  f4:	000000d2 	ldrdeq	r0, [r0], -r2
	...
 100:	0000001c 	andeq	r0, r0, ip, lsl r0
 104:	2bab0002 	blcs	feac0114 <__bss_end+0x772beb88>
 108:	00040000 	andeq	r0, r4, r0
 10c:	00000000 	andeq	r0, r0, r0
 110:	87800d30 			; <UNDEFINED> instruction: 0x87800d30
 114:	000001a8 	andeq	r0, r0, r8, lsr #3
	...
 120:	0000001c 	andeq	r0, r0, ip, lsl r0
 124:	36fb0002 	ldrbtcc	r0, [fp], r2
 128:	00040000 	andeq	r0, r4, r0
 12c:	00000000 	andeq	r0, r0, r0
 130:	87800ed8 			; <UNDEFINED> instruction: 0x87800ed8
 134:	0000019e 	muleq	r0, lr, r1
	...

Disassembly of section .debug_line:

00000000 <.debug_line>:
   0:	00000050 	andeq	r0, r0, r0, asr r0
   4:	00250002 	eoreq	r0, r5, r2
   8:	01020000 	mrseq	r0, (UNDEF: 2)
   c:	000d0efb 	strdeq	r0, [sp], -fp
  10:	01010101 	tsteq	r1, r1, lsl #2
  14:	01000000 	mrseq	r0, (UNDEF: 0)
  18:	70010000 	andvc	r0, r1, r0
  1c:	656a6f72 	strbvs	r6, [sl, #-3954]!	; 0xf72
  20:	00007463 	andeq	r7, r0, r3, ror #8
  24:	6e69616d 	powvsez	f6, f1, #5.0
  28:	0100632e 	tsteq	r0, lr, lsr #6
  2c:	00000000 	andeq	r0, r0, r0
  30:	02d00205 	sbcseq	r0, r0, #1342177280	; 0x50000000
  34:	10038780 	andne	r8, r3, r0, lsl #15
  38:	30302f01 	eorscc	r2, r0, r1, lsl #30
  3c:	30303130 	eorscc	r3, r0, r0, lsr r1
  40:	01040200 	mrseq	r0, R12_usr
  44:	04020036 	streq	r0, [r2], #-54	; 0x36
  48:	02003d01 	andeq	r3, r0, #1, 26	; 0x40
  4c:	022f0104 	eoreq	r0, pc, #4, 2
  50:	01010001 	tsteq	r1, r1
  54:	00000099 	muleq	r0, r9, r0
  58:	00490002 	subeq	r0, r9, r2
  5c:	01020000 	mrseq	r0, (UNDEF: 2)
  60:	000d0efb 	strdeq	r0, [sp], -fp
  64:	01010101 	tsteq	r1, r1, lsl #2
  68:	01000000 	mrseq	r0, (UNDEF: 0)
  6c:	67010000 	strvs	r0, [r1, -r0]
  70:	006f6970 	rsbeq	r6, pc, r0, ror r9	; <UNPREDICTABLE>
  74:	36786d69 	ldrbtcc	r6, [r8], -r9, ror #26
  78:	00006c75 	andeq	r6, r0, r5, ror ip
  7c:	5f707362 	svcpl	0x00707362
  80:	6f697067 	svcvs	0x00697067
  84:	0100632e 	tsteq	r0, lr, lsr #6
  88:	434d0000 	movtmi	r0, #53248	; 0xd000
  8c:	36584d49 	ldrbcc	r4, [r8], -r9, asr #26
  90:	682e3259 	stmdavs	lr!, {r0, r3, r4, r6, r9, ip, sp}
  94:	00000200 	andeq	r0, r0, r0, lsl #4
  98:	5f707362 	svcpl	0x00707362
  9c:	6f697067 	svcvs	0x00697067
  a0:	0100682e 	tsteq	r0, lr, lsr #16
  a4:	00000000 	andeq	r0, r0, r0
  a8:	02fc0205 	rscseq	r0, ip, #1342177280	; 0x50000000
  ac:	67158780 	ldrvs	r8, [r5, -r0, lsl #15]
  b0:	4ca14ca1 	stcmi	12, cr4, [r1], #644	; 0x284
  b4:	4bae4c92 	blmi	feb93304 <__bss_end+0x77391d78>
  b8:	674e7693 			; <UNDEFINED> instruction: 0x674e7693
  bc:	9f3da03e 	svcls	0x003da03e
  c0:	6a75596a 	bvs	1d56670 <_start-0x85aa9990>
  c4:	59699159 	stmdbpl	r9!, {r0, r3, r4, r6, r8, ip, pc}^
  c8:	5809039f 	stmdapl	r9, {r0, r1, r2, r3, r4, r7, r8, r9}
  cc:	6a6a9159 	bvs	1aa4638 <_start-0x85d5b9c8>
  d0:	0200a030 	andeq	sl, r0, #48	; 0x30
  d4:	3c060104 	stfccs	f0, [r6], {4}
  d8:	3f3d4d06 	svccc	0x003d4d06
  dc:	24ad1708 	strtcs	r1, [sp], #1800	; 0x708
  e0:	ad249fad 	stcge	15, cr9, [r4, #-692]!	; 0xfffffd4c
  e4:	9fad249f 	svcls	0x00ad249f
  e8:	22239124 	eorcs	r9, r3, #36, 2
  ec:	01000502 	tsteq	r0, r2, lsl #10
  f0:	00009201 	andeq	r9, r0, r1, lsl #4
  f4:	3f000200 	svccc	0x00000200
  f8:	02000000 	andeq	r0, r0, #0
  fc:	0d0efb01 	vstreq	d15, [lr, #-4]
 100:	01010100 	mrseq	r0, (UNDEF: 17)
 104:	00000001 	andeq	r0, r0, r1
 108:	01000001 	tsteq	r0, r1
 10c:	2f707362 	svccs	0x00707362
 110:	006b6c63 	rsbeq	r6, fp, r3, ror #24
 114:	36786d69 	ldrbtcc	r6, [r8], -r9, ror #26
 118:	00006c75 	andeq	r6, r0, r5, ror ip
 11c:	5f707362 	svcpl	0x00707362
 120:	636f6c63 	cmnvs	pc, #25344	; 0x6300
 124:	00632e6b 	rsbeq	r2, r3, fp, ror #28
 128:	4d000001 	stcmi	0, cr0, [r0, #-4]
 12c:	584d4943 	stmdapl	sp, {r0, r1, r6, r8, fp, lr}^
 130:	2e325936 	mrccs	9, 1, r5, cr2, cr6, {1}
 134:	00020068 	andeq	r0, r2, r8, rrx
 138:	05000000 	streq	r0, [r0, #-0]
 13c:	8005a402 	andhi	sl, r5, r2, lsl #8
 140:	01090387 	smlabbeq	r9, r7, r3, r0
 144:	7575752f 	ldrbvc	r7, [r5, #-1327]!	; 0x52f
 148:	83757575 	cmnhi	r5, #490733568	; 0x1d400000
 14c:	bba12f4e 	bllt	fe84be8c <__bss_end+0x7704a900>
 150:	bd6775be 	cfstr64lt	mvdx7, [r7, #-760]!	; 0xfffffd08
 154:	2f2f302f 	svccs	0x002f302f
 158:	2f3d252f 	svccs	0x003d252f
 15c:	4b4b4b76 	blmi	12d2f3c <_start-0x8652d0c4>
 160:	5b754c4b 	blpl	1d53294 <_start-0x85aacd6c>
 164:	4b762f3d 	blmi	1d8be60 <_start-0x85a741a0>
 168:	4b4b4b4b 	blmi	12d2e9c <_start-0x8652d164>
 16c:	bc315d75 	ldclt	13, cr5, [r1], #-468	; 0xfffffe2c
 170:	0200bbbe 	andeq	fp, r0, #194560	; 0x2f800
 174:	20060104 	andcs	r0, r6, r4, lsl #2
 178:	304e9706 	subcc	r9, lr, r6, lsl #14
 17c:	304ebbbb 	strhcc	fp, [lr], #-187	; 0xffffff45
 180:	0402bcbc 	streq	fp, [r2], #-3260	; 0xcbc
 184:	b2010100 	andlt	r0, r1, #0, 2
 188:	02000000 	andeq	r0, r0, #0
 18c:	00004100 	andeq	r4, r0, r0, lsl #2
 190:	fb010200 	blx	4099a <_start-0x877bf666>
 194:	01000d0e 	tsteq	r0, lr, lsl #26
 198:	00010101 	andeq	r0, r1, r1, lsl #2
 19c:	00010000 	andeq	r0, r1, r0
 1a0:	73620100 	cmnvc	r2, #0, 2
 1a4:	65642f70 	strbvs	r2, [r4, #-3952]!	; 0xf70
 1a8:	0079616c 	rsbseq	r6, r9, ip, ror #2
 1ac:	36786d69 	ldrbtcc	r6, [r8], -r9, ror #26
 1b0:	00006c75 	andeq	r6, r0, r5, ror ip
 1b4:	5f707362 	svcpl	0x00707362
 1b8:	616c6564 	cmnvs	ip, r4, ror #10
 1bc:	00632e79 	rsbeq	r2, r3, r9, ror lr
 1c0:	4d000001 	stcmi	0, cr0, [r0, #-4]
 1c4:	584d4943 	stmdapl	sp, {r0, r1, r6, r8, fp, lr}^
 1c8:	2e325936 	mrccs	9, 1, r5, cr2, cr6, {1}
 1cc:	00020068 	andeq	r0, r2, r8, rrx
 1d0:	05000000 	streq	r0, [r0, #-0]
 1d4:	80083402 	andhi	r3, r8, r2, lsl #8
 1d8:	01090387 	smlabbeq	r9, r7, r3, r0
 1dc:	0402004b 	streq	r0, [r2], #-75	; 0x4b
 1e0:	06200601 	strteq	r0, [r0], -r1, lsl #12
 1e4:	66090359 			; <UNDEFINED> instruction: 0x66090359
 1e8:	5c48224b 	sfmpl	f2, 2, [r8], {75}	; 0x4b
 1ec:	75692f4e 	strbvc	r2, [r9, #-3918]!	; 0xf4e
 1f0:	01040200 	mrseq	r0, R12_usr
 1f4:	a1062006 	tstge	r6, r6
 1f8:	03a0bbbb 	moveq	fp, #191488	; 0x2ec00
 1fc:	bd676615 	stcllt	6, cr6, [r7, #-84]!	; 0xffffffac
 200:	314c4ebc 	strhcc	r4, [ip, #-236]	; 0xffffff14
 204:	4d4c6769 	stclmi	7, cr6, [ip, #-420]	; 0xfffffe5c
 208:	4b2f7779 	blmi	bddff4 <_start-0x86c2200c>
 20c:	4b682122 	blmi	1a0869c <_start-0x85df7964>
 210:	0402002f 	streq	r0, [r2], #-47	; 0x2f
 214:	02003d03 	andeq	r3, r0, #3, 26	; 0xc0
 218:	00490304 	subeq	r0, r9, r4, lsl #6
 21c:	06010402 	streq	r0, [r1], -r2, lsl #8
 220:	4d4c063c 	stclmi	6, cr0, [ip, #-240]	; 0xffffff10
 224:	02002f4b 	andeq	r2, r0, #300	; 0x12c
 228:	003d0304 	eorseq	r0, sp, r4, lsl #6
 22c:	49030402 	stmdbmi	r3, {r1, sl}
 230:	01040200 	mrseq	r0, R12_usr
 234:	4c063c06 	stcmi	12, cr3, [r6], {6}
 238:	01000302 	tsteq	r0, r2, lsl #6
 23c:	00008e01 	andeq	r8, r0, r1, lsl #28
 240:	5c000200 	sfmpl	f0, 4, [r0], {-0}
 244:	02000000 	andeq	r0, r0, #0
 248:	0d0efb01 	vstreq	d15, [lr, #-4]
 24c:	01010100 	mrseq	r0, (UNDEF: 17)
 250:	00000001 	andeq	r0, r0, r1
 254:	01000001 	tsteq	r0, r1
 258:	2f707362 	svccs	0x00707362
 25c:	0064656c 	rsbeq	r6, r4, ip, ror #10
 260:	36786d69 	ldrbtcc	r6, [r8], -r9, ror #26
 264:	67006c75 	smlsdxvs	r0, r5, ip, r6
 268:	006f6970 	rsbeq	r6, pc, r0, ror r9	; <UNPREDICTABLE>
 26c:	70736200 	rsbsvc	r6, r3, r0, lsl #4
 270:	64656c5f 	strbtvs	r6, [r5], #-3167	; 0xc5f
 274:	0100632e 	tsteq	r0, lr, lsr #6
 278:	434d0000 	movtmi	r0, #53248	; 0xd000
 27c:	36584d49 	ldrbcc	r4, [r8], -r9, asr #26
 280:	682e3259 	stmdavs	lr!, {r0, r3, r4, r6, r9, ip, sp}
 284:	00000200 	andeq	r0, r0, r0, lsl #4
 288:	36786d69 	ldrbtcc	r6, [r8], -r9, ror #26
 28c:	682e6c75 	stmdavs	lr!, {r0, r2, r4, r5, r6, sl, fp, sp, lr}
 290:	00000200 	andeq	r0, r0, r0, lsl #4
 294:	5f707362 	svcpl	0x00707362
 298:	6f697067 	svcvs	0x00697067
 29c:	0300682e 	movweq	r6, #2094	; 0x82e
 2a0:	00000000 	andeq	r0, r0, r0
 2a4:	0a0c0205 	beq	300ac0 <_start-0x874ff540>
 2a8:	3e1a8780 	cdpcc	7, 1, cr8, cr10, cr0, {4}
 2ac:	03580d03 	cmpeq	r8, #3, 26	; 0xc0
 2b0:	302f8209 	eorcc	r8, pc, r9, lsl #4
 2b4:	3c090394 	stccc	3, cr0, [r9], {148}	; 0x94
 2b8:	33368433 	teqcc	r6, #855638016	; 0x33000000
 2bc:	2f3d3185 	svccs	0x003d3185
 2c0:	3f3e3f91 	svccc	0x003e3f91
 2c4:	3d593f30 	ldclcc	15, cr3, [r9, #-192]	; 0xffffff40
 2c8:	0302303e 	movweq	r3, #8254	; 0x203e
 2cc:	9a010100 	bls	406d4 <_start-0x877bf92c>
 2d0:	02000000 	andeq	r0, r0, #0
 2d4:	00006700 	andeq	r6, r0, r0, lsl #14
 2d8:	fb010200 	blx	40ae2 <_start-0x877bf51e>
 2dc:	01000d0e 	tsteq	r0, lr, lsl #26
 2e0:	00010101 	andeq	r0, r1, r1, lsl #2
 2e4:	00010000 	andeq	r0, r1, r0
 2e8:	73620100 	cmnvc	r2, #0, 2
 2ec:	656b2f70 	strbvs	r2, [fp, #-3952]!	; 0xf70
 2f0:	6d690079 	stclvs	0, cr0, [r9, #-484]!	; 0xfffffe1c
 2f4:	6c753678 	ldclvs	6, cr3, [r5], #-480	; 0xfffffe20
 2f8:	69706700 	ldmdbvs	r0!, {r8, r9, sl, sp, lr}^
 2fc:	6200006f 	andvs	r0, r0, #111	; 0x6f
 300:	6b5f7073 	blvs	17dc4d4 <_start-0x86023b2c>
 304:	7a5f7965 	bvc	17de8a0 <_start-0x86021760>
 308:	2e6f7265 	cdpcs	2, 6, cr7, cr15, cr5, {3}
 30c:	00010063 	andeq	r0, r1, r3, rrx
 310:	49434d00 	stmdbmi	r3, {r8, sl, fp, lr}^
 314:	5936584d 	ldmdbpl	r6!, {r0, r2, r3, r6, fp, ip, lr}
 318:	00682e32 	rsbeq	r2, r8, r2, lsr lr
 31c:	62000002 	andvs	r0, r0, #2
 320:	675f7073 			; <UNDEFINED> instruction: 0x675f7073
 324:	2e6f6970 	mcrcs	9, 3, r6, cr15, cr0, {3}
 328:	00030068 	andeq	r0, r3, r8, rrx
 32c:	70736200 	rsbsvc	r6, r3, r0, lsl #4
 330:	79656b5f 	stmdbvc	r5!, {r0, r1, r2, r3, r4, r6, r8, r9, fp, sp, lr}^
 334:	72657a5f 	rsbvc	r7, r5, #389120	; 0x5f000
 338:	00682e6f 	rsbeq	r2, r8, pc, ror #28
 33c:	00000001 	andeq	r0, r0, r1
 340:	d4020500 	strle	r0, [r2], #-1280	; 0x500
 344:	1687800a 	strne	r8, [r7], sl
 348:	660b0340 	strvs	r0, [fp], -r0, asr #6
 34c:	40932f7a 	addsmi	r2, r3, sl, ror pc
 350:	2184333d 	orrcs	r3, r4, sp, lsr r3
 354:	00313d4d 	eorseq	r3, r1, sp, asr #26
 358:	06010402 	streq	r0, [r1], -r2, lsl #8
 35c:	675a0674 			; <UNDEFINED> instruction: 0x675a0674
 360:	322c5a3d 	eorcc	r5, ip, #249856	; 0x3d000
 364:	21316759 	teqcs	r1, r9, asr r7
 368:	01000402 	tsteq	r0, r2, lsl #8
 36c:	00006401 	andeq	r6, r0, r1, lsl #8
 370:	3f000200 	svccc	0x00000200
 374:	02000000 	andeq	r0, r0, #0
 378:	0d0efb01 	vstreq	d15, [lr, #-4]
 37c:	01010100 	mrseq	r0, (UNDEF: 17)
 380:	00000001 	andeq	r0, r0, r1
 384:	01000001 	tsteq	r0, r1
 388:	2f707362 	svccs	0x00707362
 38c:	70656562 	rsbvc	r6, r5, r2, ror #10
 390:	786d6900 	stmdavc	sp!, {r8, fp, sp, lr}^
 394:	006c7536 	rsbeq	r7, ip, r6, lsr r5
 398:	70736200 	rsbsvc	r6, r3, r0, lsl #4
 39c:	6565625f 	strbvs	r6, [r5, #-607]!	; 0x25f
 3a0:	00632e70 	rsbeq	r2, r3, r0, ror lr
 3a4:	4d000001 	stcmi	0, cr0, [r0, #-4]
 3a8:	584d4943 	stmdapl	sp, {r0, r1, r6, r8, fp, lr}^
 3ac:	2e325936 	mrccs	9, 1, r5, cr2, cr6, {1}
 3b0:	00020068 	andeq	r0, r2, r8, rrx
 3b4:	05000000 	streq	r0, [r0, #-0]
 3b8:	800ba002 	andhi	sl, fp, r2
 3bc:	03301587 	teqeq	r0, #566231040	; 0x21c00000
 3c0:	bb68580d 	bllt	1a163fc <_start-0x85de9c04>
 3c4:	bb2f5bbb 	bllt	bd72b8 <_start-0x86c28d48>
 3c8:	4dbb2f4d 	ldcmi	15, cr2, [fp, #308]!	; 0x134
 3cc:	2f3e3d4b 	svccs	0x003e3d4b
 3d0:	01000302 	tsteq	r0, r2, lsl #6
 3d4:	00009801 	andeq	r9, r0, r1, lsl #16
 3d8:	60000200 	andvs	r0, r0, r0, lsl #4
 3dc:	02000000 	andeq	r0, r0, #0
 3e0:	0d0efb01 	vstreq	d15, [lr, #-4]
 3e4:	01010100 	mrseq	r0, (UNDEF: 17)
 3e8:	00000001 	andeq	r0, r0, r1
 3ec:	01000001 	tsteq	r0, r1
 3f0:	2f707362 	svccs	0x00707362
 3f4:	69747865 	ldmdbvs	r4!, {r0, r2, r5, r6, fp, ip, sp, lr}^
 3f8:	786d6900 	stmdavc	sp!, {r8, fp, sp, lr}^
 3fc:	006c7536 	rsbeq	r7, ip, r6, lsr r5
 400:	6f697067 	svcvs	0x00697067
 404:	73620000 	cmnvc	r2, #0
 408:	78655f70 	stmdavc	r5!, {r4, r5, r6, r8, r9, sl, fp, ip, lr}^
 40c:	632e6974 	teqvs	lr, #116, 18	; 0x1d0000
 410:	00000100 	andeq	r0, r0, r0, lsl #2
 414:	65726f63 	ldrbvs	r6, [r2, #-3939]!	; 0xf63
 418:	3761635f 			; <UNDEFINED> instruction: 0x3761635f
 41c:	0200682e 	andeq	r6, r0, #3014656	; 0x2e0000
 420:	434d0000 	movtmi	r0, #53248	; 0xd000
 424:	36584d49 	ldrbcc	r4, [r8], -r9, asr #26
 428:	682e3259 	stmdavs	lr!, {r0, r3, r4, r6, r9, ip, sp}
 42c:	00000200 	andeq	r0, r0, r0, lsl #4
 430:	5f707362 	svcpl	0x00707362
 434:	6f697067 	svcvs	0x00697067
 438:	0300682e 	movweq	r6, #2094	; 0x82e
 43c:	00000000 	andeq	r0, r0, r0
 440:	0c5c0205 	lfmeq	f0, 2, [ip], {5}
 444:	3e168780 	cdpcc	7, 1, cr8, cr6, cr0, {4}
 448:	7b660b03 	blvc	198305c <_start-0x85e7cfa4>
 44c:	042f2f2f 	strteq	r2, [pc], #-3887	; 454 <_start-0x877ffbac>
 450:	03f90302 	mvnseq	r0, #134217728	; 0x8000000
 454:	00f603ac 	rscseq	r0, r6, ip, lsr #7
 458:	01043d4a 	tsteq	r4, sl, asr #26
 45c:	ba7b9403 	blt	1ee5470 <_start-0x8591ab90>
 460:	404d7984 	submi	r7, sp, r4, lsl #19
 464:	5b4e4b4b 	blpl	1393198 <_start-0x8646ce68>
 468:	740d034d 	strvc	r0, [sp], #-845	; 0x34d
 46c:	01000302 	tsteq	r0, r2, lsl #6
 470:	00009401 	andeq	r9, r0, r1, lsl #8
 474:	4d000200 	sfmmi	f0, 4, [r0, #-0]
 478:	02000000 	andeq	r0, r0, #0
 47c:	0d0efb01 	vstreq	d15, [lr, #-4]
 480:	01010100 	mrseq	r0, (UNDEF: 17)
 484:	00000001 	andeq	r0, r0, r1
 488:	01000001 	tsteq	r0, r1
 48c:	2f707362 	svccs	0x00707362
 490:	74697065 	strbtvc	r7, [r9], #-101	; 0x65
 494:	786d6900 	stmdavc	sp!, {r8, fp, sp, lr}^
 498:	006c7536 	rsbeq	r7, ip, r6, lsr r5
 49c:	70736200 	rsbsvc	r6, r3, r0, lsl #4
 4a0:	6970655f 	ldmdbvs	r0!, {r0, r1, r2, r3, r4, r6, r8, sl, sp, lr}^
 4a4:	00632e74 	rsbeq	r2, r3, r4, ror lr
 4a8:	63000001 	movwvs	r0, #1
 4ac:	5f65726f 	svcpl	0x0065726f
 4b0:	2e376163 	rsfcssz	f6, f7, f3
 4b4:	00020068 	andeq	r0, r2, r8, rrx
 4b8:	49434d00 	stmdbmi	r3, {r8, sl, fp, lr}^
 4bc:	5936584d 	ldmdbpl	r6!, {r0, r2, r3, r6, fp, ip, lr}
 4c0:	00682e32 	rsbeq	r2, r8, r2, lsr lr
 4c4:	00000002 	andeq	r0, r0, r2
 4c8:	30020500 	andcc	r0, r2, r0, lsl #10
 4cc:	1687800d 	strne	r8, [r7], sp
 4d0:	04020059 	streq	r0, [r2], #-89	; 0x59
 4d4:	064a0601 	strbeq	r0, [sl], -r1, lsl #12
 4d8:	9f9f5a3f 	svcls	0x009f5a3f
 4dc:	5aa0ad9f 	bpl	fe82bb60 <__bss_end+0x7702a5d4>
 4e0:	82030204 	andhi	r0, r3, #4, 4	; 0x40000000
 4e4:	f6037404 			; <UNDEFINED> instruction: 0xf6037404
 4e8:	043d4a00 	ldrteq	r4, [sp], #-2560	; 0xa00
 4ec:	7b8b0301 	blvc	fe2c10f8 <__bss_end+0x76abfb6c>
 4f0:	5c4189ba 	mcrrpl	9, 11, r8, r1, cr10
 4f4:	f3a02f85 			; <UNDEFINED> instruction: 0xf3a02f85
 4f8:	9e0b0387 	cdpls	3, 0, cr0, cr11, cr7, {4}
 4fc:	4e9f2f40 	cdpmi	15, 9, cr2, cr15, cr0, {2}
 500:	9f5a2f4b 	svcls	0x005a2f4b
 504:	01000302 	tsteq	r0, r2, lsl #6
 508:	0000cf01 	andeq	ip, r0, r1, lsl #30
 50c:	68000200 	stmdavs	r0, {r9}
 510:	02000000 	andeq	r0, r0, #0
 514:	0d0efb01 	vstreq	d15, [lr, #-4]
 518:	01010100 	mrseq	r0, (UNDEF: 17)
 51c:	00000001 	andeq	r0, r0, r1
 520:	01000001 	tsteq	r0, r1
 524:	2f707362 	svccs	0x00707362
 528:	00746e69 	rsbseq	r6, r4, r9, ror #28
 52c:	36786d69 	ldrbtcc	r6, [r8], -r9, ror #26
 530:	00006c75 	andeq	r6, r0, r5, ror ip
 534:	5f707362 	svcpl	0x00707362
 538:	2e746e69 	cdpcs	14, 7, cr6, cr4, cr9, {3}
 53c:	00010063 	andeq	r0, r1, r3, rrx
 540:	726f6300 	rsbvc	r6, pc, #0, 6
 544:	61635f65 	cmnvs	r3, r5, ror #30
 548:	00682e37 	rsbeq	r2, r8, r7, lsr lr
 54c:	4d000002 	stcmi	0, cr0, [r0, #-8]
 550:	584d4943 	stmdapl	sp, {r0, r1, r6, r8, fp, lr}^
 554:	2e325936 	mrccs	9, 1, r5, cr2, cr6, {1}
 558:	00020068 	andeq	r0, r2, r8, rrx
 55c:	6c736600 	ldclvs	6, cr6, [r3], #-0
 560:	6d6f635f 	stclvs	3, cr6, [pc, #-380]!	; 3ec <_start-0x877ffc14>
 564:	2e6e6f6d 	cdpcs	15, 6, cr6, cr14, cr13, {3}
 568:	00020068 	andeq	r0, r2, r8, rrx
 56c:	70736200 	rsbsvc	r6, r3, r0, lsl #4
 570:	746e695f 	strbtvc	r6, [lr], #-2399	; 0x95f
 574:	0100682e 	tsteq	r0, lr, lsr #16
 578:	00000000 	andeq	r0, r0, r0
 57c:	0ed80205 	cdpeq	2, 13, cr0, cr8, cr5, {0}
 580:	0a038780 	beq	e2388 <_start-0x8771dc78>
 584:	03020401 	movweq	r0, #9217	; 0x2401
 588:	033c048a 	teqeq	ip, #-1979711488	; 0x8a000000
 58c:	3e4a00da 	mcrcc	0, 2, r0, cr10, cr10, {6}
 590:	78813d95 	stmvc	r1, {r0, r2, r4, r7, r8, sl, fp, ip, sp}
 594:	045b6969 	ldrbeq	r6, [fp], #-2409	; 0x969
 598:	7b8d0301 	blvc	fe3411a4 <__bss_end+0x76b3fc18>
 59c:	03020458 	movweq	r0, #9304	; 0x2458
 5a0:	046603ec 	strbteq	r0, [r6], #-1004	; 0x3ec
 5a4:	7c990301 	ldcvc	3, cr0, [r9], {1}
 5a8:	303d4e3c 	eorscc	r4, sp, ip, lsr lr
 5ac:	04020068 	streq	r0, [r2], #-104	; 0x68
 5b0:	02003e03 	andeq	r3, r0, #3, 28	; 0x30
 5b4:	00ad0304 	adceq	r0, sp, r4, lsl #6
 5b8:	8d030402 	cfstrshi	mvf0, [r3, #-8]
 5bc:	01040200 	mrseq	r0, R12_usr
 5c0:	41063c06 	tstmi	r6, r6, lsl #24
 5c4:	9183686c 	orrls	r6, r3, ip, ror #16
 5c8:	0402005c 	streq	r0, [r2], #-92	; 0x5c
 5cc:	4b255901 	blmi	9569d8 <_start-0x86ea9628>
 5d0:	af233e4c 	svcge	0x00233e4c
 5d4:	02ad2208 	adceq	r2, sp, #8, 4	; 0x80000000
 5d8:	01010003 	tsteq	r1, r3

Disassembly of section .debug_str:

00000000 <.debug_str>:
       0:	676e6f6c 	strbvs	r6, [lr, -ip, ror #30]!
       4:	6e6f6c20 	cdpvs	12, 6, cr6, cr15, cr0, {1}
       8:	6e692067 	cdpvs	0, 6, cr2, cr9, cr7, {3}
       c:	4e470074 	mcrmi	0, 2, r0, cr7, cr4, {3}
      10:	20432055 	subcs	r2, r3, r5, asr r0
      14:	2e392e34 	mrccs	14, 1, r2, cr9, cr4, {1}
      18:	6d2d2034 	stcvs	0, cr2, [sp, #-208]!	; 0xffffff30
      1c:	68637261 	stmdavs	r3!, {r0, r5, r6, r9, ip, sp, lr}^
      20:	6d72613d 	ldfvse	f6, [r2, #-244]!	; 0xffffff0c
      24:	612d3776 	teqvs	sp, r6, ror r7
      28:	746d2d20 	strbtvc	r2, [sp], #-3360	; 0xd20
      2c:	3d656e75 	stclcc	14, cr6, [r5, #-468]!	; 0xfffffe2c
      30:	74726f63 	ldrbtvc	r6, [r2], #-3939	; 0xf63
      34:	612d7865 	teqvs	sp, r5, ror #16
      38:	6d2d2039 	stcvs	0, cr2, [sp, #-228]!	; 0xffffff1c
      3c:	616f6c66 	cmnvs	pc, r6, ror #24
      40:	62612d74 	rsbvs	r2, r1, #116, 26	; 0x1d00
      44:	61683d69 	cmnvs	r8, r9, ror #26
      48:	2d206472 	cfstrscs	mvf6, [r0, #-456]!	; 0xfffffe38
      4c:	7570666d 	ldrbvc	r6, [r0, #-1645]!	; 0x66d
      50:	7066763d 	rsbvc	r7, r6, sp, lsr r6
      54:	642d3376 	strtvs	r3, [sp], #-886	; 0x376
      58:	2d203631 	stccs	6, cr3, [r0, #-196]!	; 0xffffff3c
      5c:	7568746d 	strbvc	r7, [r8, #-1133]!	; 0x46d
      60:	2d20626d 	sfmcs	f6, 4, [r0, #-436]!	; 0xfffffe4c
      64:	736c746d 	cmnvc	ip, #1828716544	; 0x6d000000
      68:	6169642d 	cmnvs	r9, sp, lsr #8
      6c:	7463656c 	strbtvc	r6, [r3], #-1388	; 0x56c
      70:	756e673d 	strbvc	r6, [lr, #-1853]!	; 0x73d
      74:	00672d20 	rsbeq	r2, r7, r0, lsr #26
      78:	6a6f7270 	bvs	1bdca40 <_start-0x85c235c0>
      7c:	2f746365 	svccs	0x00746365
      80:	6e69616d 	powvsez	f6, f1, #5.0
      84:	6c00632e 	stcvs	3, cr6, [r0], {46}	; 0x2e
      88:	20676e6f 	rsbcs	r6, r7, pc, ror #28
      8c:	676e6f6c 	strbvs	r6, [lr, -ip, ror #30]!
      90:	736e7520 	cmnvc	lr, #32, 10	; 0x8000000
      94:	656e6769 	strbvs	r6, [lr, #-1897]!	; 0x769
      98:	6e692064 	cdpvs	0, 6, cr2, cr9, cr4, {3}
      9c:	6e750074 	mrcvs	0, 3, r0, cr5, cr4, {3}
      a0:	6e676973 	mcrvs	9, 3, r6, cr7, cr3, {3}
      a4:	63206465 	teqvs	r0, #1694498816	; 0x65000000
      a8:	00726168 	rsbseq	r6, r2, r8, ror #2
      ac:	6e69616d 	powvsez	f6, f1, #5.0
      b0:	6f682f00 	svcvs	0x00682f00
      b4:	672f656d 	strvs	r6, [pc, -sp, ror #10]!
      b8:	672f786c 	strvs	r7, [pc, -ip, ror #16]!
      bc:	4e2f786c 	cdpmi	8, 2, cr7, cr15, cr12, {3}
      c0:	692d5058 	pushvs	{r3, r4, r6, ip, lr}
      c4:	7536786d 	ldrvc	r7, [r6, #-2157]!	; 0x86d
      c8:	452f6c6c 	strmi	r6, [pc, #-3180]!	; fffff464 <__bss_end+0x787fded8>
      cc:	74746970 	ldrbtvc	r6, [r4], #-2416	; 0x970
      d0:	72656d69 	rsbvc	r6, r5, #6720	; 0x1a40
      d4:	6d65445f 	cfstrdvs	mvd4, [r5, #-380]!	; 0xfffffe84
      d8:	6873006f 	ldmdavs	r3!, {r0, r1, r2, r3, r5, r6}^
      dc:	2074726f 	rsbscs	r7, r4, pc, ror #4
      e0:	69736e75 	ldmdbvs	r3!, {r0, r2, r4, r5, r6, r9, sl, fp, sp, lr}^
      e4:	64656e67 	strbtvs	r6, [r5], #-3687	; 0xe67
      e8:	746e6920 	strbtvc	r6, [lr], #-2336	; 0x920
      ec:	6f687300 	svcvs	0x00687300
      f0:	69207472 	stmdbvs	r0!, {r1, r4, r5, r6, sl, ip, sp, lr}
      f4:	7300746e 	movwvc	r7, #1134	; 0x46e
      f8:	74657a69 	strbtvc	r7, [r5], #-2665	; 0xa69
      fc:	00657079 	rsbeq	r7, r5, r9, ror r0
     100:	4950476b 	ldmdbmi	r0, {r0, r1, r3, r5, r6, r8, r9, sl, lr}^
     104:	6e495f4f 	cdpvs	15, 4, cr5, cr9, cr15, {2}
     108:	73695274 	cmnvc	r9, #116, 4	; 0x40000007
     10c:	45676e69 	strbmi	r6, [r7, #-3689]!	; 0xe69
     110:	6d656764 	stclvs	7, cr6, [r5, #-400]!	; 0xfffffe70
     114:	0065646f 	rsbeq	r6, r5, pc, ror #8
     118:	4950476b 	ldmdbmi	r0, {r0, r1, r3, r5, r6, r8, r9, sl, lr}^
     11c:	6e495f4f 	cdpvs	15, 4, cr5, cr9, cr15, {2}
     120:	6c614674 	stclvs	6, cr4, [r1], #-464	; 0xfffffe30
     124:	676e696c 	strbvs	r6, [lr, -ip, ror #18]!
     128:	6952724f 	ldmdbvs	r2, {r0, r1, r2, r3, r6, r9, ip, sp, lr}^
     12c:	676e6973 			; <UNDEFINED> instruction: 0x676e6973
     130:	65676445 	strbvs	r6, [r7, #-1093]!	; 0x445
     134:	65646f6d 	strbvs	r6, [r4, #-3949]!	; 0xf6d
     138:	50476b00 	subpl	r6, r7, r0, lsl #22
     13c:	495f4f49 	ldmdbmi	pc, {r0, r3, r6, r8, r9, sl, fp, lr}^	; <UNPREDICTABLE>
     140:	6f4c746e 	svcvs	0x004c746e
     144:	646f6d77 	strbtvs	r6, [pc], #-3447	; 14c <_start-0x877ffeb4>
     148:	675f0065 	ldrbvs	r0, [pc, -r5, rrx]
     14c:	5f6f6970 	svcpl	0x006f6970
     150:	5f6e6970 	svcpl	0x006e6970
     154:	65726964 	ldrbvs	r6, [r2, #-2404]!	; 0x964
     158:	6f697463 	svcvs	0x00697463
     15c:	4447006e 	strbmi	r0, [r7], #-110	; 0x6e
     160:	67005249 	strvs	r5, [r0, -r9, asr #4]
     164:	5f6f6970 	svcpl	0x006f6970
     168:	61736964 	cmnvs	r3, r4, ror #18
     16c:	49656c62 	stmdbmi	r5!, {r1, r5, r6, sl, fp, sp, lr}^
     170:	7265746e 	rsbvc	r7, r5, #1845493760	; 0x6e000000
     174:	74707572 	ldrbtvc	r7, [r0], #-1394	; 0x572
     178:	69706700 	ldmdbvs	r0!, {r8, r9, sl, sp, lr}^
     17c:	6e695f6f 	cdpvs	15, 6, cr5, cr9, cr15, {3}
     180:	72726574 	rsbsvc	r6, r2, #116, 10	; 0x1d000000
     184:	69747075 	ldmdbvs	r4!, {r0, r2, r4, r5, r6, ip, sp, lr}^
     188:	0074696e 	rsbseq	r6, r4, lr, ror #18
     18c:	65736162 	ldrbvs	r6, [r3, #-354]!	; 0x162
     190:	746e6900 	strbtvc	r6, [lr], #-2304	; 0x900
     194:	70727265 	rsbsvc	r7, r2, r5, ror #4
     198:	476b0074 			; <UNDEFINED> instruction: 0x476b0074
     19c:	5f4f4950 	svcpl	0x004f4950
     1a0:	46746e49 	ldrbtmi	r6, [r4], -r9, asr #28
     1a4:	696c6c61 	stmdbvs	ip!, {r0, r5, r6, sl, fp, sp, lr}^
     1a8:	6445676e 	strbvs	r6, [r5], #-1902	; 0x76e
     1ac:	6f6d6567 	svcvs	0x006d6567
     1b0:	474b0064 	strbmi	r0, [fp, -r4, rrx]
     1b4:	5f4f4950 	svcpl	0x004f4950
     1b8:	69676944 	stmdbvs	r7!, {r2, r6, r8, fp, sp, lr}^
     1bc:	4f6c6174 	svcmi	0x006c6174
     1c0:	75707475 	ldrbvc	r7, [r0, #-1141]!	; 0x475
     1c4:	70670074 	rsbvc	r0, r7, r4, ror r0
     1c8:	635f6f69 	cmpvs	pc, #420	; 0x1a4
     1cc:	7261656c 	rsbvc	r6, r1, #108, 10	; 0x1b000000
     1d0:	66746e69 	ldrbtvs	r6, [r4], -r9, ror #28
     1d4:	7367616c 	cmnvc	r7, #108, 2
     1d8:	49504700 	ldmdbmi	r0, {r8, r9, sl, lr}^
     1dc:	79545f4f 	ldmdbvc	r4, {r0, r1, r2, r3, r6, r8, r9, sl, fp, ip, lr}^
     1e0:	6f006570 	svcvs	0x00006570
     1e4:	75707475 	ldrbvc	r7, [r0, #-1141]!	; 0x475
     1e8:	676f4c74 			; <UNDEFINED> instruction: 0x676f4c74
     1ec:	67006369 	strvs	r6, [r0, -r9, ror #6]
     1f0:	5f6f6970 	svcpl	0x006f6970
     1f4:	776e6970 			; <UNDEFINED> instruction: 0x776e6970
     1f8:	65746972 	ldrbvs	r6, [r4, #-2418]!	; 0x972
     1fc:	69706700 	ldmdbvs	r0!, {r8, r9, sl, sp, lr}^
     200:	73622f6f 	cmnvc	r2, #444	; 0x1bc
     204:	70675f70 	rsbvc	r5, r7, r0, ror pc
     208:	632e6f69 	teqvs	lr, #420	; 0x1a4
     20c:	72636900 	rsbvc	r6, r3, #0, 18
     210:	66696873 			; <UNDEFINED> instruction: 0x66696873
     214:	476b0074 			; <UNDEFINED> instruction: 0x476b0074
     218:	5f4f4950 	svcpl	0x004f4950
     21c:	48746e49 	ldmdami	r4!, {r0, r3, r6, r9, sl, fp, sp, lr}^
     220:	74686769 	strbtvc	r6, [r8], #-1897	; 0x769
     224:	65646f6d 	strbvs	r6, [r4, #-3949]!	; 0xf6d
     228:	50476b00 	subpl	r6, r7, r0, lsl #22
     22c:	4e5f4f49 	cdpmi	15, 5, cr4, cr15, cr9, {2}
     230:	746e696f 	strbtvc	r6, [lr], #-2415	; 0x96f
     234:	65646f6d 	strbvs	r6, [r4, #-3949]!	; 0xf6d
     238:	69706700 	ldmdbvs	r0!, {r8, r9, sl, sp, lr}^
     23c:	6e695f6f 	cdpvs	15, 6, cr5, cr9, cr15, {3}
     240:	45007469 	strmi	r7, [r0, #-1129]	; 0x469
     244:	5f454744 	svcpl	0x00454744
     248:	004c4553 	subeq	r4, ip, r3, asr r5
     24c:	31524349 	cmpcc	r2, r9, asr #6
     250:	52434900 	subpl	r4, r3, #0, 18
     254:	675f0032 	smmlarvs	pc, r2, r0, r0	; <UNPREDICTABLE>
     258:	5f6f6970 	svcpl	0x006f6970
     25c:	5f6e6970 	svcpl	0x006e6970
     260:	666e6f63 	strbtvs	r6, [lr], -r3, ror #30
     264:	67006769 	strvs	r6, [r0, -r9, ror #14]
     268:	5f6f6970 	svcpl	0x006f6970
     26c:	656c6261 	strbvs	r6, [ip, #-609]!	; 0x261
     270:	65746e49 	ldrbvs	r6, [r4, #-3657]!	; 0xe49
     274:	70757272 	rsbsvc	r7, r5, r2, ror r2
     278:	70670074 	rsbvc	r0, r7, r4, ror r0
     27c:	705f6f69 	subsvc	r6, pc, r9, ror #30
     280:	65726e69 	ldrbvs	r6, [r2, #-3689]!	; 0xe69
     284:	4b006461 	blmi	19410 <_start-0x877e6bf0>
     288:	4f495047 	svcmi	0x00495047
     28c:	6769445f 			; <UNDEFINED> instruction: 0x6769445f
     290:	6c617469 	cfstrdvs	mvd7, [r1], #-420	; 0xfffffe5c
     294:	75706e49 	ldrbvc	r6, [r0, #-3657]!	; 0xe49
     298:	675f0074 			; <UNDEFINED> instruction: 0x675f0074
     29c:	5f6f6970 	svcpl	0x006f6970
     2a0:	65746e69 	ldrbvs	r6, [r4, #-3689]!	; 0xe69
     2a4:	70757272 	rsbsvc	r7, r5, r2, ror r2
     2a8:	6f6d5f74 	svcvs	0x006d5f74
     2ac:	50006564 	andpl	r6, r0, r4, ror #10
     2b0:	415f4c4c 	cmpmi	pc, ip, asr #24
     2b4:	435f4d52 	cmpmi	pc, #5248	; 0x1480
     2b8:	4300524c 	movwmi	r5, #588	; 0x24c
     2bc:	524d4353 	subpl	r4, sp, #1275068417	; 0x4c000001
     2c0:	46500032 			; <UNDEFINED> instruction: 0x46500032
     2c4:	38345f44 	ldmdacc	r4!, {r2, r6, r8, r9, sl, fp, ip, lr}
     2c8:	44430030 	strbmi	r0, [r3], #-48	; 0x30
     2cc:	52504948 	subspl	r4, r0, #72, 18	; 0x120000
     2d0:	4c4c5000 	marmi	acc0, r5, ip
     2d4:	4455415f 	ldrbmi	r4, [r5], #-351	; 0x15f
     2d8:	435f4f49 	cmpmi	pc, #292	; 0x124
     2dc:	4300524c 	movwmi	r5, #588	; 0x24c
     2e0:	52444353 	subpl	r4, r4, #1275068417	; 0x4c000001
     2e4:	46500031 			; <UNDEFINED> instruction: 0x46500031
     2e8:	38345f44 	ldmdacc	r4!, {r2, r6, r8, r9, sl, fp, ip, lr}
     2ec:	4f545f30 	svcmi	0x00545f30
     2f0:	53430047 	movtpl	r0, #12359	; 0x3047
     2f4:	33524443 	cmpcc	r2, #1124073472	; 0x43000000
     2f8:	53494300 	movtpl	r4, #37632	; 0x9300
     2fc:	4c500052 	mrrcmi	0, 5, r0, r0, cr2	; <UNPREDICTABLE>
     300:	53555f4c 	cmppl	r5, #76, 30	; 0x130
     304:	435f3142 	cmpmi	pc, #-2147483632	; 0x80000010
     308:	6300524c 	movwvs	r5, #588	; 0x24c
     30c:	655f6b6c 	ldrbvs	r6, [pc, #-2924]	; fffff7a8 <__bss_end+0x787fe21c>
     310:	6c62616e 	stfvse	f6, [r2], #-440	; 0xfffffe48
     314:	45520065 	ldrbmi	r0, [r2, #-101]	; 0x65
     318:	56524553 			; <UNDEFINED> instruction: 0x56524553
     31c:	375f4445 	ldrbcc	r4, [pc, -r5, asr #8]
     320:	4c4c5000 	marmi	acc0, r5, ip
     324:	454e455f 	strbmi	r4, [lr, #-1375]	; 0x55f
     328:	4c435f54 	mcrrmi	15, 5, r5, r3, cr4
     32c:	4c500052 	mrrcmi	0, 5, r0, r0, cr2	; <UNPREDICTABLE>
     330:	59535f4c 	ldmdbpl	r3, {r2, r3, r6, r8, r9, sl, fp, ip, lr}^
     334:	4f545f53 	svcmi	0x00545f53
     338:	4c500047 	mrrcmi	0, 4, r0, r0, cr7	; <UNPREDICTABLE>
     33c:	49565f4c 	ldmdbmi	r6, {r2, r3, r6, r8, r9, sl, fp, ip, lr}^
     340:	004f4544 	subeq	r4, pc, r4, asr #10
     344:	4353494d 	cmpmi	r3, #1261568	; 0x134000
     348:	45535f30 	ldrbmi	r5, [r3, #-3888]	; 0xf30
     34c:	53430054 	movtpl	r0, #12372	; 0x3054
     350:	52444332 	subpl	r4, r4, #-939524096	; 0xc8000000
     354:	4d434300 	stclmi	3, cr4, [r3, #-0]
     358:	414e415f 	cmpmi	lr, pc, asr r1
     35c:	5f474f4c 	svcpl	0x00474f4c
     360:	65707954 	ldrbvs	r7, [r0, #-2388]!	; 0x954
     364:	53494d00 	movtpl	r4, #40192	; 0x9d00
     368:	4d003043 	stcmi	0, cr3, [r0, #-268]	; 0xfffffef4
     36c:	31435349 	cmpcc	r3, r9, asr #6
     370:	504c4300 	subpl	r4, ip, r0, lsl #6
     374:	50005243 	andpl	r5, r0, r3, asr #4
     378:	565f4c4c 	ldrbpl	r4, [pc], -ip, asr #24
     37c:	4f454449 	svcmi	0x00454449
     380:	524c435f 	subpl	r4, ip, #2080374785	; 0x7c000001
     384:	53494d00 	movtpl	r4, #40192	; 0x9d00
     388:	435f3143 	cmpmi	pc, #-1073741808	; 0xc0000010
     38c:	5000524c 	andpl	r5, r0, ip, asr #4
     390:	555f4c4c 	ldrbpl	r4, [pc, #-3148]	; fffff74c <__bss_end+0x787fe1c0>
     394:	5f324253 	svcpl	0x00324253
     398:	00474f54 	subeq	r4, r7, r4, asr pc
     39c:	5f4c4c50 	svcpl	0x004c4c50
     3a0:	5f535953 	svcpl	0x00535953
     3a4:	00524c43 	subseq	r4, r2, r3, asr #24
     3a8:	534f4343 	movtpl	r4, #62275	; 0xf343
     3ac:	46500052 			; <UNDEFINED> instruction: 0x46500052
     3b0:	38345f44 	ldmdacc	r4!, {r2, r6, r8, r9, sl, fp, ip, lr}
     3b4:	4c435f30 	mcrrmi	15, 3, r5, r3, cr0
     3b8:	6d490052 	stclvs	0, cr0, [r9, #-328]	; 0xfffffeb8
     3bc:	5f753678 	svcpl	0x00753678
     3c0:	696b6c63 	stmdbvs	fp!, {r0, r1, r5, r6, sl, fp, sp, lr}^
     3c4:	0074696e 	rsbseq	r6, r4, lr, ror #18
     3c8:	5f4c4c50 	svcpl	0x004c4c50
     3cc:	5f535953 	svcpl	0x00535953
     3d0:	50005353 	andpl	r5, r0, r3, asr r3
     3d4:	415f4c4c 	cmpmi	pc, ip, asr #24
     3d8:	4f494455 	svcmi	0x00494455
     3dc:	4e45445f 	mcrmi	4, 2, r4, cr5, cr15, {2}
     3e0:	50004d4f 	andpl	r4, r0, pc, asr #26
     3e4:	565f4c4c 	ldrbpl	r4, [pc], -ip, asr #24
     3e8:	4f454449 	svcmi	0x00454449
     3ec:	4d554e5f 	ldclmi	14, cr4, [r5, #-380]	; 0xfffffe84
     3f0:	4c4c5000 	marmi	acc0, r5, ip
     3f4:	4455415f 	ldrbmi	r4, [r5], #-351	; 0x15f
     3f8:	535f4f49 	cmppl	pc, #292	; 0x124
     3fc:	50005445 	andpl	r5, r0, r5, asr #8
     400:	355f4446 	ldrbcc	r4, [pc, #-1094]	; ffffffc2 <__bss_end+0x787fea36>
     404:	50003832 	andpl	r3, r0, r2, lsr r8
     408:	415f4c4c 	cmpmi	pc, ip, asr #24
     40c:	4d004d52 	stcmi	13, cr4, [r0, #-328]	; 0xfffffeb8
     410:	32435349 	subcc	r5, r3, #603979777	; 0x24000001
     414:	474f545f 	smlsldmi	r5, pc, pc, r4	; <UNPREDICTABLE>
     418:	4c4c5000 	marmi	acc0, r5, ip
     41c:	5359535f 	cmppl	r9, #2080374785	; 0x7c000001
     420:	43424300 	movtmi	r4, #8960	; 0x2300
     424:	50005244 	andpl	r5, r0, r4, asr #4
     428:	555f4c4c 	ldrbpl	r4, [pc, #-3148]	; fffff7e4 <__bss_end+0x787fe258>
     42c:	5f314253 	svcpl	0x00314253
     430:	00544553 	subseq	r4, r4, r3, asr r5
     434:	5f746553 	svcpl	0x00746553
     438:	336c6c70 	cmncc	ip, #112, 24	; 0x7000
     43c:	6466705f 	strbtvs	r7, [r6], #-95	; 0x5f
     440:	4d434300 	stclmi	3, cr4, [r3, #-0]
     444:	7079545f 	rsbsvc	r5, r9, pc, asr r4
     448:	4c500065 	mrrcmi	0, 6, r0, r0, cr5	; <UNPREDICTABLE>
     44c:	53555f4c 	cmppl	r5, #76, 30	; 0x130
     450:	435f3242 	cmpmi	pc, #536870916	; 0x20000004
     454:	5000524c 	andpl	r5, r0, ip, asr #4
     458:	555f4c4c 	ldrbpl	r4, [pc, #-3148]	; fffff814 <__bss_end+0x787fe288>
     45c:	00314253 	eorseq	r4, r1, r3, asr r2
     460:	5f4c4c50 	svcpl	0x004c4c50
     464:	32425355 	subcc	r5, r2, #1409286145	; 0x54000001
     468:	53494d00 	movtpl	r4, #40192	; 0x9d00
     46c:	62003243 	andvs	r3, r0, #805306372	; 0x30000004
     470:	632f7073 	teqvs	pc, #115	; 0x73
     474:	622f6b6c 	eorvs	r6, pc, #108, 22	; 0x1b000
     478:	635f7073 	cmpvs	pc, #115	; 0x73
     47c:	6b636f6c 	blvs	18dc234 <_start-0x85f23dcc>
     480:	5000632e 	andpl	r6, r0, lr, lsr #6
     484:	355f4446 	ldrbcc	r4, [pc, #-1094]	; 46 <_start-0x877fffba>
     488:	545f3832 	ldrbpl	r3, [pc], #-2098	; 490 <_start-0x877ffb70>
     48c:	5000474f 	andpl	r4, r0, pc, asr #14
     490:	565f4c4c 	ldrbpl	r4, [pc], -ip, asr #24
     494:	4f454449 	svcmi	0x00454449
     498:	5445535f 	strbpl	r5, [r5], #-863	; 0x35f
     49c:	53494d00 	movtpl	r4, #40192	; 0x9d00
     4a0:	535f3143 	cmppl	pc, #-1073741808	; 0xc0000010
     4a4:	43005445 	movwmi	r5, #1093	; 0x445
     4a8:	00525047 	subseq	r5, r2, r7, asr #32
     4ac:	44435343 	strbmi	r5, [r3], #-835	; 0x343
     4b0:	43003252 	movwmi	r3, #594	; 0x252
     4b4:	00524d49 	subseq	r4, r2, r9, asr #26
     4b8:	5f4c4c50 	svcpl	0x004c4c50
     4bc:	45444956 	strbmi	r4, [r4, #-2390]	; 0x956
     4c0:	45445f4f 	strbmi	r5, [r4, #-3919]	; 0xf4f
     4c4:	004d4f4e 	subeq	r4, sp, lr, asr #30
     4c8:	4353494d 	cmpmi	r3, #1261568	; 0x134000
     4cc:	4c435f32 	mcrrmi	15, 3, r5, r3, cr2
     4d0:	46500052 			; <UNDEFINED> instruction: 0x46500052
     4d4:	38345f44 	ldmdacc	r4!, {r2, r6, r8, r9, sl, fp, ip, lr}
     4d8:	45535f30 	ldrbmi	r5, [r3, #-3888]	; 0xf30
     4dc:	48430054 	stmdami	r3, {r2, r4, r6}^
     4e0:	44434353 	strbmi	r4, [r3], #-851	; 0x353
     4e4:	50490052 	subpl	r0, r9, r2, asr r0
     4e8:	4c435f47 	mcrrmi	15, 4, r5, r3, cr7
     4ec:	4f525f4b 	svcmi	0x00525f4b
     4f0:	495f544f 	ldmdbmi	pc, {r0, r1, r2, r3, r6, sl, ip, lr}^	; <UNPREDICTABLE>
     4f4:	0074696e 	rsbseq	r6, r4, lr, ror #18
     4f8:	5f4c4c50 	svcpl	0x004c4c50
     4fc:	5f535953 	svcpl	0x00535953
     500:	00544553 	subseq	r4, r4, r3, asr r5
     504:	5f4c4c50 	svcpl	0x004c4c50
     508:	5f535953 	svcpl	0x00535953
     50c:	4f4e4544 	svcmi	0x004e4544
     510:	494d004d 	stmdbmi	sp, {r0, r2, r3, r6}^
     514:	5f304353 	svcpl	0x00304353
     518:	00474f54 	subeq	r4, r7, r4, asr pc
     51c:	5f444650 	svcpl	0x00444650
     520:	5f383235 	svcpl	0x00383235
     524:	00524c43 	subseq	r4, r2, r3, asr #24
     528:	43524550 	cmpmi	r2, #80, 10	; 0x14000000
     52c:	435f4b4c 	cmpmi	pc, #76, 22	; 0x13000
     530:	525f4b4c 	subspl	r4, pc, #76, 22	; 0x13000
     534:	5f544f4f 	svcpl	0x00544f4f
     538:	74696e49 	strbtvc	r6, [r9], #-3657	; 0xe49
     53c:	4c4c5000 	marmi	acc0, r5, ip
     540:	454e455f 	strbmi	r4, [lr, #-1375]	; 0x55f
     544:	45535f54 	ldrbmi	r5, [r3, #-3924]	; 0xf54
     548:	4c500054 	mrrcmi	0, 5, r0, r0, cr4	; <UNPREDICTABLE>
     54c:	53555f4c 	cmppl	r5, #76, 30	; 0x130
     550:	535f3242 	cmppl	pc, #536870916	; 0x20000004
     554:	43005445 	movwmi	r5, #1093	; 0x445
     558:	524d4342 	subpl	r4, sp, #134217729	; 0x8000001
     55c:	42484100 	submi	r4, r8, #0, 2
     560:	4b4c435f 	blmi	13112e4 <_start-0x864eed1c>
     564:	4f4f525f 	svcmi	0x004f525f
     568:	6e495f54 	mcrvs	15, 2, r5, cr9, cr4, {2}
     56c:	43007469 	movwmi	r7, #1129	; 0x469
     570:	00525343 	subseq	r5, r2, r3, asr #6
     574:	52474343 	subpl	r4, r7, #201326593	; 0xc000001
     578:	45520030 	ldrbmi	r0, [r2, #-48]	; 0x30
     57c:	56524553 			; <UNDEFINED> instruction: 0x56524553
     580:	305f4445 	subscc	r4, pc, r5, asr #8
     584:	53455200 	movtpl	r5, #20992	; 0x5200
     588:	45565245 	ldrbmi	r5, [r6, #-581]	; 0x245
     58c:	00315f44 	eorseq	r5, r1, r4, asr #30
     590:	45534552 	ldrbmi	r4, [r3, #-1362]	; 0x552
     594:	44455652 	strbmi	r5, [r5], #-1618	; 0x652
     598:	5200325f 	andpl	r3, r0, #-268435451	; 0xf0000005
     59c:	52455345 	subpl	r5, r5, #335544321	; 0x14000001
     5a0:	5f444556 	svcpl	0x00444556
     5a4:	45520033 	ldrbmi	r0, [r2, #-51]	; 0x33
     5a8:	56524553 			; <UNDEFINED> instruction: 0x56524553
     5ac:	345f4445 	ldrbcc	r4, [pc], #-1093	; 5b4 <_start-0x877ffa4c>
     5b0:	53455200 	movtpl	r5, #20992	; 0x5200
     5b4:	45565245 	ldrbmi	r5, [r6, #-581]	; 0x245
     5b8:	00355f44 	eorseq	r5, r5, r4, asr #30
     5bc:	45534552 	ldrbmi	r4, [r3, #-1362]	; 0x552
     5c0:	44455652 	strbmi	r5, [r5], #-1618	; 0x652
     5c4:	5000365f 	andpl	r3, r0, pc, asr r6
     5c8:	415f4c4c 	cmpmi	pc, ip, asr #24
     5cc:	545f4d52 	ldrbpl	r4, [pc], #-3410	; 5d4 <_start-0x877ffa2c>
     5d0:	5000474f 	andpl	r4, r0, pc, asr #14
     5d4:	455f4c4c 	ldrbmi	r4, [pc, #-3148]	; fffff990 <__bss_end+0x787fe404>
     5d8:	0054454e 	subseq	r4, r4, lr, asr #10
     5dc:	5f4c4c50 	svcpl	0x004c4c50
     5e0:	49445541 	stmdbmi	r4, {r0, r6, r8, sl, ip, lr}^
     5e4:	4f545f4f 	svcmi	0x00545f4f
     5e8:	494d0047 	stmdbmi	sp, {r0, r1, r2, r6}^
     5ec:	5f324353 	svcpl	0x00324353
     5f0:	00544553 	subseq	r4, r4, r3, asr r5
     5f4:	52434143 	subpl	r4, r3, #-1073741808	; 0xc0000010
     5f8:	494d0052 	stmdbmi	sp, {r1, r4, r6}^
     5fc:	5f304353 	svcpl	0x00304353
     600:	00524c43 	subseq	r4, r2, r3, asr #24
     604:	5f4c4c50 	svcpl	0x004c4c50
     608:	49445541 	stmdbmi	r4, {r0, r6, r8, sl, ip, lr}^
     60c:	554e5f4f 	strbpl	r5, [lr, #-3919]	; 0xf4f
     610:	4c50004d 	mrrcmi	0, 4, r0, r0, cr13	; <UNPREDICTABLE>
     614:	53555f4c 	cmppl	r5, #76, 30	; 0x130
     618:	545f3142 	ldrbpl	r3, [pc], #-322	; 620 <_start-0x877ff9e0>
     61c:	5000474f 	andpl	r4, r0, pc, asr #14
     620:	535f4c4c 	cmppl	pc, #76, 24	; 0x4c00
     624:	4e5f5359 	mrcmi	3, 2, r5, cr15, cr9, {2}
     628:	43004d55 	movwmi	r4, #3413	; 0xd55
     62c:	52444344 	subpl	r4, r4, #68, 6	; 0x10000001
     630:	31534300 	cmpcc	r3, r0, lsl #6
     634:	00524443 	subseq	r4, r2, r3, asr #8
     638:	5f444650 	svcpl	0x00444650
     63c:	5f383235 	svcpl	0x00383235
     640:	00544553 	subseq	r4, r4, r3, asr r5
     644:	5f4c4c50 	svcpl	0x004c4c50
     648:	54454e45 	strbpl	r4, [r5], #-3653	; 0xe45
     64c:	474f545f 	smlsldmi	r5, pc, pc, r4	; <UNPREDICTABLE>
     650:	454d4300 	strbmi	r4, [sp, #-768]	; 0x300
     654:	4300524f 	movwmi	r5, #591	; 0x24f
     658:	524d4353 	subpl	r4, sp, #1275068417	; 0x4c000001
     65c:	43430031 	movtmi	r0, #12337	; 0x3031
     660:	00315247 	eorseq	r5, r1, r7, asr #4
     664:	5f4c4c50 	svcpl	0x004c4c50
     668:	49445541 	stmdbmi	r4, {r0, r6, r8, sl, ip, lr}^
     66c:	4343004f 	movtmi	r0, #12367	; 0x304f
     670:	00325247 	eorseq	r5, r2, r7, asr #4
     674:	52474343 	subpl	r4, r7, #201326593	; 0xc000001
     678:	4c500033 	mrrcmi	0, 3, r0, r0, cr3	; <UNPREDICTABLE>
     67c:	52415f4c 	subpl	r5, r1, #76, 30	; 0x130
     680:	45535f4d 	ldrbmi	r5, [r3, #-3917]	; 0xf4d
     684:	43430054 	movtmi	r0, #12372	; 0x3054
     688:	00345247 	eorseq	r5, r4, r7, asr #4
     68c:	52474343 	subpl	r4, r7, #201326593	; 0xc000001
     690:	65530035 	ldrbvs	r0, [r3, #-53]	; 0x35
     694:	6c705f74 	ldclvs	15, cr5, [r0], #-464	; 0xfffffe30
     698:	705f326c 	subsvc	r3, pc, ip, ror #4
     69c:	43006466 	movwmi	r6, #1126	; 0x466
     6a0:	36524743 	ldrbcc	r4, [r2], -r3, asr #14
     6a4:	4c4c5000 	marmi	acc0, r5, ip
     6a8:	4449565f 	strbmi	r5, [r9], #-1631	; 0x65f
     6ac:	545f4f45 	ldrbpl	r4, [pc], #-3909	; 6b4 <_start-0x877ff94c>
     6b0:	4d00474f 	stcmi	7, cr4, [r0, #-316]	; 0xfffffec4
     6b4:	31435349 	cmpcc	r3, r9, asr #6
     6b8:	474f545f 	smlsldmi	r5, pc, pc, r4	; <UNPREDICTABLE>
     6bc:	77656e00 	strbvc	r6, [r5, -r0, lsl #28]!
     6c0:	00746e63 	rsbseq	r6, r4, r3, ror #28
     6c4:	63646c6f 	cmnvs	r4, #28416	; 0x6f00
     6c8:	6400746e 	strvs	r7, [r0], #-1134	; 0x46e
     6cc:	79616c65 	stmdbvc	r1!, {r0, r2, r5, r6, sl, fp, sp, lr}^
     6d0:	696e695f 	stmdbvs	lr!, {r0, r1, r2, r3, r4, r6, r8, fp, sp, lr}^
     6d4:	73750074 	cmnvc	r5, #116	; 0x74
     6d8:	616c6564 	cmnvs	ip, r4, ror #10
     6dc:	65640079 	strbvs	r0, [r4, #-121]!	; 0x79
     6e0:	5f79616c 	svcpl	0x0079616c
     6e4:	6400736d 	strvs	r7, [r0], #-877	; 0x36d
     6e8:	79616c65 	stmdbvc	r1!, {r0, r2, r5, r6, sl, fp, sp, lr}^
     6ec:	6f68735f 	svcvs	0x0068735f
     6f0:	6d007472 	cfstrsvs	mvf7, [r0, #-456]	; 0xfffffe38
     6f4:	6c656473 	cfstrdvs	mvd6, [r5], #-460	; 0xfffffe34
     6f8:	64007961 	strvs	r7, [r0], #-2401	; 0x961
     6fc:	79616c65 	stmdbvc	r1!, {r0, r2, r5, r6, sl, fp, sp, lr}^
     700:	0073755f 	rsbseq	r7, r3, pc, asr r5
     704:	746e6374 	strbtvc	r6, [lr], #-884	; 0x374
     708:	756c6176 	strbvc	r6, [ip, #-374]!	; 0x176
     70c:	50470065 	subpl	r0, r7, r5, rrx
     710:	79545f54 	ldmdbvc	r4, {r2, r4, r6, r8, r9, sl, fp, ip, lr}^
     714:	62006570 	andvs	r6, r0, #112, 10	; 0x1c000000
     718:	642f7073 	strtvs	r7, [pc], #-115	; 720 <_start-0x877ff8e0>
     71c:	79616c65 	stmdbvc	r1!, {r0, r2, r5, r6, sl, fp, sp, lr}^
     720:	7073622f 	rsbsvc	r6, r3, pc, lsr #4
     724:	6c65645f 	cfstrdvs	mvd6, [r5], #-380	; 0xfffffe84
     728:	632e7961 	teqvs	lr, #1589248	; 0x184000
     72c:	6c656400 	cfstrdvs	mvd6, [r5], #-0
     730:	735f7961 	cmpvc	pc, #1589248	; 0x184000
     734:	49504700 	ldmdbmi	r0, {r8, r9, sl, lr}^
     738:	495f314f 	ldmdbmi	pc, {r0, r1, r2, r3, r6, r8, ip, sp}^	; <UNPREDICTABLE>
     73c:	0031304f 	eorseq	r3, r1, pc, asr #32
     740:	4f495047 	svcmi	0x00495047
     744:	4f495f31 	svcmi	0x00495f31
     748:	47003230 	smladxmi	r0, r0, r2, r3
     74c:	314f4950 	cmpcc	pc, r0, asr r9	; <UNPREDICTABLE>
     750:	304f495f 	subcc	r4, pc, pc, asr r9	; <UNPREDICTABLE>
     754:	50470033 	subpl	r0, r7, r3, lsr r0
     758:	5f314f49 	svcpl	0x00314f49
     75c:	34304f49 	ldrtcc	r4, [r0], #-3913	; 0xf49
     760:	49504700 	ldmdbmi	r0, {r8, r9, sl, lr}^
     764:	495f314f 	ldmdbmi	pc, {r0, r1, r2, r3, r6, r8, ip, sp}^	; <UNPREDICTABLE>
     768:	0035304f 	eorseq	r3, r5, pc, asr #32
     76c:	54524155 	ldrbpl	r4, [r2], #-341	; 0x155
     770:	54525f32 	ldrbpl	r5, [r2], #-3890	; 0xf32
     774:	00425f53 	subeq	r5, r2, r3, asr pc
     778:	4f495047 	svcmi	0x00495047
     77c:	4f495f31 	svcmi	0x00495f31
     780:	47003730 	smladxmi	r0, r0, r7, r3
     784:	314f4950 	cmpcc	pc, r0, asr r9	; <UNPREDICTABLE>
     788:	304f495f 	subcc	r4, pc, pc, asr r9	; <UNPREDICTABLE>
     78c:	50470038 	subpl	r0, r7, r8, lsr r0
     790:	5f314f49 	svcpl	0x00314f49
     794:	39304f49 	ldmdbcc	r0!, {r0, r3, r6, r8, r9, sl, fp, lr}
     798:	44434c00 	strbmi	r4, [r3], #-3072	; 0xc00
     79c:	5441445f 	strbpl	r4, [r1], #-1119	; 0x45f
     7a0:	00313141 	eorseq	r3, r1, r1, asr #2
     7a4:	5f44434c 	svcpl	0x0044434c
     7a8:	41544144 	cmpmi	r4, r4, asr #2
     7ac:	4c003231 	sfmmi	f3, 4, [r0], {49}	; 0x31
     7b0:	445f4443 	ldrbmi	r4, [pc], #-1091	; 7b8 <_start-0x877ff848>
     7b4:	31415441 	cmpcc	r1, r1, asr #8
     7b8:	44530034 	ldrbmi	r0, [r3], #-52	; 0x34
     7bc:	4c435f31 	mcrrmi	15, 3, r5, r3, cr1
     7c0:	434c004b 	movtmi	r0, #49227	; 0xc04b
     7c4:	41445f44 	cmpmi	r4, r4, asr #30
     7c8:	36314154 			; <UNDEFINED> instruction: 0x36314154
     7cc:	44434c00 	strbmi	r4, [r3], #-3072	; 0xc00
     7d0:	5441445f 	strbpl	r4, [r1], #-1119	; 0x45f
     7d4:	00373141 	eorseq	r3, r7, r1, asr #2
     7d8:	5f44434c 	svcpl	0x0044434c
     7dc:	41544144 	cmpmi	r4, r4, asr #2
     7e0:	44003831 	strmi	r3, [r0], #-2097	; 0x831
     7e4:	5f4d4152 	svcpl	0x004d4152
     7e8:	52444441 	subpl	r4, r4, #1090519040	; 0x41000000
     7ec:	4c003331 	stcmi	3, cr3, [r0], {49}	; 0x31
     7f0:	445f4443 	ldrbmi	r4, [pc], #-1091	; 7f8 <_start-0x877ff808>
     7f4:	31415441 	cmpcc	r1, r1, asr #8
     7f8:	52440039 	subpl	r0, r4, #57	; 0x39
     7fc:	535f4d41 	cmppl	pc, #4160	; 0x1040
     800:	454b4344 	strbmi	r4, [fp, #-836]	; 0x344
     804:	52440030 	subpl	r0, r4, #48	; 0x30
     808:	535f4d41 	cmppl	pc, #4160	; 0x1040
     80c:	454b4344 	strbmi	r4, [fp, #-836]	; 0x344
     810:	414e0031 	cmpmi	lr, r1, lsr r0
     814:	445f444e 	ldrbmi	r4, [pc], #-1102	; 81c <_start-0x877ff7e4>
     818:	30415441 	subcc	r5, r1, r1, asr #8
     81c:	41550036 	cmpmi	r5, r6, lsr r0
     820:	5f335452 	svcpl	0x00335452
     824:	445f5854 	ldrbmi	r5, [pc], #-2132	; 82c <_start-0x877ff7d4>
     828:	00415441 	subeq	r5, r1, r1, asr #8
     82c:	54524155 	ldrbpl	r4, [r2], #-341	; 0x155
     830:	54435f33 	strbpl	r5, [r3], #-3891	; 0xf33
     834:	00425f53 	subeq	r5, r2, r3, asr pc
     838:	4d415244 	sfmmi	f5, 2, [r1, #-272]	; 0xfffffef0
     83c:	4244535f 	submi	r5, r4, #2080374785	; 0x7c000001
     840:	44003041 	strmi	r3, [r0], #-65	; 0x41
     844:	5f4d4152 	svcpl	0x004d4152
     848:	41424453 	cmpmi	r2, r3, asr r4
     84c:	52440031 	subpl	r0, r4, #49	; 0x31
     850:	535f4d41 	cmppl	pc, #4160	; 0x1040
     854:	32414244 	subcc	r4, r1, #68, 4	; 0x40000004
     858:	52415500 	subpl	r5, r1, #0, 10
     85c:	525f3454 	subspl	r3, pc, #84, 8	; 0x54000000
     860:	41445f58 	cmpmi	r4, r8, asr pc
     864:	45004154 	strmi	r4, [r0, #-340]	; 0x154
     868:	3254454e 	subscc	r4, r4, #327155712	; 0x13800000
     86c:	5f58525f 	svcpl	0x0058525f
     870:	45004e45 	strmi	r4, [r0, #-3653]	; 0xe45
     874:	3254454e 	subscc	r4, r4, #327155712	; 0x13800000
     878:	5f58525f 	svcpl	0x0058525f
     87c:	47005245 	strmi	r5, [r0, -r5, asr #4]
     880:	445f5052 	ldrbmi	r5, [pc], #-82	; 888 <_start-0x877ff778>
     884:	4b505244 	blmi	141519c <_start-0x863eae64>
     888:	454e4500 	strbmi	r4, [lr, #-1280]	; 0x500
     88c:	525f3154 	subspl	r3, pc, #84, 2
     890:	41445f58 	cmpmi	r4, r8, asr pc
     894:	00304154 	eorseq	r4, r0, r4, asr r1
     898:	5f64656c 	svcpl	0x0064656c
     89c:	0066666f 	rsbeq	r6, r6, pc, ror #12
     8a0:	54454e45 	strbpl	r4, [r5], #-3653	; 0xe45
     8a4:	58525f32 	ldmdapl	r2, {r1, r4, r5, r8, r9, sl, fp, ip, lr}^
     8a8:	5441445f 	strbpl	r4, [r1], #-1119	; 0x45f
     8ac:	45003041 	strmi	r3, [r0, #-65]	; 0x41
     8b0:	3254454e 	subscc	r4, r4, #327155712	; 0x13800000
     8b4:	5f58525f 	svcpl	0x0058525f
     8b8:	41544144 	cmpmi	r4, r4, asr #2
     8bc:	44530031 	ldrbmi	r0, [r3], #-49	; 0x31
     8c0:	4d435f31 	stclmi	15, cr5, [r3, #-196]	; 0xffffff3c
     8c4:	544a0044 	strbpl	r0, [sl], #-68	; 0x44
     8c8:	545f4741 	ldrbpl	r4, [pc], #-1857	; 8d0 <_start-0x877ff730>
     8cc:	4a004944 	bmi	12de4 <_start-0x877ed21c>
     8d0:	5f474154 	svcpl	0x00474154
     8d4:	54535254 	ldrbpl	r5, [r3], #-596	; 0x254
     8d8:	4300425f 	movwmi	r4, #607	; 0x25f
     8dc:	505f4953 	subspl	r4, pc, r3, asr r9	; <UNPREDICTABLE>
     8e0:	4c435849 	mcrrmi	8, 4, r5, r3, cr9
     8e4:	5244004b 	subpl	r0, r4, #75	; 0x4b
     8e8:	535f4d41 	cmppl	pc, #4160	; 0x1040
     8ec:	4b4c4344 	blmi	1311604 <_start-0x864ee9fc>
     8f0:	00505f30 	subseq	r5, r0, r0, lsr pc
     8f4:	444e414e 	strbmi	r4, [lr], #-334	; 0x14e
     8f8:	5f50575f 	svcpl	0x0050575f
     8fc:	52470042 	subpl	r0, r7, #66	; 0x42
     900:	44415f50 	strbmi	r5, [r1], #-3920	; 0xf50
     904:	00534444 	subseq	r4, r3, r4, asr #8
     908:	54524155 	ldrbpl	r4, [r2], #-341	; 0x155
     90c:	58525f35 	ldmdapl	r2, {r0, r2, r4, r5, r8, r9, sl, fp, ip, lr}^
     910:	5441445f 	strbpl	r4, [r1], #-1119	; 0x45f
     914:	52440041 	subpl	r0, r4, #65	; 0x41
     918:	415f4d41 	cmpmi	pc, r1, asr #26
     91c:	30524444 	subscc	r4, r2, r4, asr #8
     920:	52440030 	subpl	r0, r4, #48	; 0x30
     924:	415f4d41 	cmpmi	pc, r1, asr #26
     928:	30524444 	subscc	r4, r2, r4, asr #8
     92c:	52440031 	subpl	r0, r4, #49	; 0x31
     930:	415f4d41 	cmpmi	pc, r1, asr #26
     934:	30524444 	subscc	r4, r2, r4, asr #8
     938:	52440032 	subpl	r0, r4, #50	; 0x32
     93c:	415f4d41 	cmpmi	pc, r1, asr #26
     940:	30524444 	subscc	r4, r2, r4, asr #8
     944:	52440033 	subpl	r0, r4, #51	; 0x33
     948:	415f4d41 	cmpmi	pc, r1, asr #26
     94c:	30524444 	subscc	r4, r2, r4, asr #8
     950:	41550034 	cmpmi	r5, r4, lsr r0
     954:	5f345452 	svcpl	0x00345452
     958:	445f5854 	ldrbmi	r5, [pc], #-2132	; 960 <_start-0x877ff6a0>
     95c:	00415441 	subeq	r5, r1, r1, asr #8
     960:	4d415244 	sfmmi	f5, 2, [r1, #-272]	; 0xfffffef0
     964:	4444415f 	strbmi	r4, [r4], #-351	; 0x15f
     968:	00363052 	eorseq	r3, r6, r2, asr r0
     96c:	4d415244 	sfmmi	f5, 2, [r1, #-272]	; 0xfffffef0
     970:	4444415f 	strbmi	r4, [r4], #-351	; 0x15f
     974:	00373052 	eorseq	r3, r7, r2, asr r0
     978:	4d415244 	sfmmi	f5, 2, [r1, #-272]	; 0xfffffef0
     97c:	4444415f 	strbmi	r4, [r4], #-351	; 0x15f
     980:	00383052 	eorseq	r3, r8, r2, asr r0
     984:	4d415244 	sfmmi	f5, 2, [r1, #-272]	; 0xfffffef0
     988:	4444415f 	strbmi	r4, [r4], #-351	; 0x15f
     98c:	00393052 	eorseq	r3, r9, r2, asr r0
     990:	5f505247 	svcpl	0x00505247
     994:	5f524444 	svcpl	0x00524444
     998:	45505954 	ldrbmi	r5, [r0, #-2388]	; 0x954
     99c:	70736200 	rsbsvc	r6, r3, r0, lsl #4
     9a0:	64656c2f 	strbtvs	r6, [r5], #-3119	; 0xc2f
     9a4:	7073622f 	rsbsvc	r6, r3, pc, lsr #4
     9a8:	64656c5f 	strbtvs	r6, [r5], #-3167	; 0xc5f
     9ac:	4c00632e 	stcmi	3, cr6, [r0], {46}	; 0x2e
     9b0:	435f4443 	cmpmi	pc, #1124073472	; 0x43000000
     9b4:	47004b4c 	strmi	r4, [r0, -ip, asr #22]
     9b8:	314f4950 	cmpcc	pc, r0, asr r9	; <UNPREDICTABLE>
     9bc:	304f495f 	subcc	r4, pc, pc, asr r9	; <UNPREDICTABLE>
     9c0:	52470036 	subpl	r0, r7, #54	; 0x36
     9c4:	54435f50 	strbpl	r5, [r3], #-3920	; 0xf50
     9c8:	0053444c 	subseq	r4, r3, ip, asr #8
     9cc:	53564e53 	cmppl	r6, #1328	; 0x530
     9d0:	494d505f 	stmdbmi	sp, {r0, r1, r2, r3, r4, r6, ip, lr}^
     9d4:	4e4f5f43 	cdpmi	15, 4, cr5, cr15, cr3, {2}
     9d8:	5145525f 	cmppl	r5, pc, asr r2
     9dc:	4e414e00 	cdpmi	14, 4, cr4, cr1, cr0, {0}
     9e0:	4c415f44 	mcrrmi	15, 4, r5, r1, cr4
     9e4:	52440045 	subpl	r0, r4, #69	; 0x45
     9e8:	435f4d41 	cmpmi	pc, #4160	; 0x1040
     9ec:	425f5341 	subsmi	r5, pc, #67108865	; 0x4000001
     9f0:	4e414e00 	cdpmi	14, 4, cr4, cr1, cr0, {0}
     9f4:	41445f44 	cmpmi	r4, r4, asr #30
     9f8:	30304154 	eorscc	r4, r0, r4, asr r1
     9fc:	4e414e00 	cdpmi	14, 4, cr4, cr1, cr0, {0}
     a00:	41445f44 	cmpmi	r4, r4, asr #30
     a04:	31304154 	teqcc	r0, r4, asr r1
     a08:	4e414e00 	cdpmi	14, 4, cr4, cr1, cr0, {0}
     a0c:	41445f44 	cmpmi	r4, r4, asr #30
     a10:	32304154 	eorscc	r4, r0, #84, 2
     a14:	4e414e00 	cdpmi	14, 4, cr4, cr1, cr0, {0}
     a18:	41445f44 	cmpmi	r4, r4, asr #30
     a1c:	33304154 	teqcc	r0, #84, 2
     a20:	4e414e00 	cdpmi	14, 4, cr4, cr1, cr0, {0}
     a24:	41445f44 	cmpmi	r4, r4, asr #30
     a28:	34304154 	ldrtcc	r4, [r0], #-340	; 0x154
     a2c:	4e414e00 	cdpmi	14, 4, cr4, cr1, cr0, {0}
     a30:	41445f44 	cmpmi	r4, r4, asr #30
     a34:	35304154 	ldrcc	r4, [r0, #-340]!	; 0x154
     a38:	41524400 	cmpmi	r2, r0, lsl #8
     a3c:	44415f4d 	strbmi	r5, [r1], #-3917	; 0xf4d
     a40:	35305244 	ldrcc	r5, [r0, #-580]!	; 0x244
     a44:	4e414e00 	cdpmi	14, 4, cr4, cr1, cr0, {0}
     a48:	41445f44 	cmpmi	r4, r4, asr #30
     a4c:	37304154 			; <UNDEFINED> instruction: 0x37304154
     a50:	41544a00 	cmpmi	r4, r0, lsl #20
     a54:	44545f47 	ldrbmi	r5, [r4], #-3911	; 0xf47
     a58:	434c004f 	movtmi	r0, #49231	; 0xc04f
     a5c:	4e455f44 	cdpmi	15, 4, cr5, cr5, cr4, {2}
     a60:	454c4241 	strbmi	r4, [ip, #-577]	; 0x241
     a64:	64656c00 	strbtvs	r6, [r5], #-3072	; 0xc00
     a68:	7572545f 	ldrbvc	r5, [r2, #-1119]!	; 0x45f
     a6c:	74735f6e 	ldrbtvc	r5, [r3], #-3950	; 0xf6e
     a70:	73757461 	cmnvc	r5, #1627389952	; 0x61000000
     a74:	41524400 	cmpmi	r2, r0, lsl #8
     a78:	44415f4d 	strbmi	r5, [r1], #-3917	; 0xf4d
     a7c:	30315244 	eorscc	r5, r1, r4, asr #4
     a80:	41524400 	cmpmi	r2, r0, lsl #8
     a84:	44415f4d 	strbmi	r5, [r1], #-3917	; 0xf4d
     a88:	31315244 	teqcc	r1, r4, asr #4
     a8c:	41524400 	cmpmi	r2, r0, lsl #8
     a90:	44415f4d 	strbmi	r5, [r1], #-3917	; 0xf4d
     a94:	32315244 	eorscc	r5, r1, #68, 4	; 0x40000004
     a98:	52415500 	subpl	r5, r1, #0, 10
     a9c:	435f3154 	cmpmi	pc, #84, 2
     aa0:	425f5354 	subsmi	r5, pc, #84, 6	; 0x50000001
     aa4:	41524400 	cmpmi	r2, r0, lsl #8
     aa8:	44415f4d 	strbmi	r5, [r1], #-3917	; 0xf4d
     aac:	34315244 	ldrtcc	r5, [r1], #-580	; 0x244
     ab0:	41524400 	cmpmi	r2, r0, lsl #8
     ab4:	44415f4d 	strbmi	r5, [r1], #-3917	; 0xf4d
     ab8:	35315244 	ldrcc	r5, [r1, #-580]!	; 0x244
     abc:	53455400 	movtpl	r5, #21504	; 0x5400
     ac0:	4f4d5f54 	svcmi	0x004d5f54
     ac4:	45004544 	strmi	r4, [r0, #-1348]	; 0x544
     ac8:	3254454e 	subscc	r4, r4, #327155712	; 0x13800000
     acc:	5f58545f 	svcpl	0x0058545f
     ad0:	55004e45 	strpl	r4, [r0, #-3653]	; 0xe45
     ad4:	35545241 	ldrbcc	r5, [r4, #-577]	; 0x241
     ad8:	5f58545f 	svcpl	0x0058545f
     adc:	41544144 	cmpmi	r4, r4, asr #2
     ae0:	454e4500 	strbmi	r4, [lr, #-1280]	; 0x500
     ae4:	525f3154 	subspl	r3, pc, #84, 2
     ae8:	41445f58 	cmpmi	r4, r8, asr pc
     aec:	00314154 	eorseq	r4, r1, r4, asr r1
     af0:	4d415244 	sfmmi	f5, 2, [r1, #-272]	; 0xfffffef0
     af4:	5144535f 	cmppl	r4, pc, asr r3
     af8:	505f3153 	subspl	r3, pc, r3, asr r1	; <UNPREDICTABLE>
     afc:	44434c00 	strbmi	r4, [r3], #-3072	; 0xc00
     b00:	5345525f 	movtpl	r5, #21087	; 0x525f
     b04:	4c005445 	cfstrsmi	mvf5, [r0], {69}	; 0x45
     b08:	445f4443 	ldrbmi	r4, [pc], #-1091	; b10 <_start-0x877ff4f0>
     b0c:	30415441 	subcc	r5, r1, r1, asr #8
     b10:	434c0030 	movtmi	r0, #49200	; 0xc030
     b14:	41445f44 	cmpmi	r4, r4, asr #30
     b18:	31304154 	teqcc	r0, r4, asr r1
     b1c:	41524400 	cmpmi	r2, r0, lsl #8
     b20:	44535f4d 	ldrbmi	r5, [r3], #-3917	; 0xf4d
     b24:	425f4557 	subsmi	r4, pc, #364904448	; 0x15c00000
     b28:	44434c00 	strbmi	r4, [r3], #-3072	; 0xc00
     b2c:	5441445f 	strbpl	r4, [r1], #-1119	; 0x45f
     b30:	00333041 	eorseq	r3, r3, r1, asr #32
     b34:	5f44434c 	svcpl	0x0044434c
     b38:	41544144 	cmpmi	r4, r4, asr #2
     b3c:	4c003430 	cfstrsmi	mvf3, [r0], {48}	; 0x30
     b40:	445f4443 	ldrbmi	r4, [pc], #-1091	; b48 <_start-0x877ff4b8>
     b44:	30415441 	subcc	r5, r1, r1, asr #8
     b48:	434c0035 	movtmi	r0, #49205	; 0xc035
     b4c:	41445f44 	cmpmi	r4, r4, asr #30
     b50:	36304154 			; <UNDEFINED> instruction: 0x36304154
     b54:	44434c00 	strbmi	r4, [r3], #-3072	; 0xc00
     b58:	5441445f 	strbpl	r4, [r1], #-1119	; 0x45f
     b5c:	00373041 	eorseq	r3, r7, r1, asr #32
     b60:	5f44434c 	svcpl	0x0044434c
     b64:	41544144 	cmpmi	r4, r4, asr #2
     b68:	4c003830 	stcmi	8, cr3, [r0], {48}	; 0x30
     b6c:	445f4443 	ldrbmi	r4, [pc], #-1091	; b74 <_start-0x877ff48c>
     b70:	30415441 	subcc	r5, r1, r1, asr #8
     b74:	53430039 	movtpl	r0, #12345	; 0x3039
     b78:	53565f49 	cmppl	r6, #292	; 0x124
     b7c:	00434e59 	subeq	r4, r3, r9, asr lr
     b80:	54454e45 	strbpl	r4, [r5], #-3653	; 0xe45
     b84:	58545f31 	ldmdapl	r4, {r0, r4, r5, r8, r9, sl, fp, ip, lr}^
     b88:	4b4c435f 	blmi	131190c <_start-0x864ee6f4>
     b8c:	41524400 	cmpmi	r2, r0, lsl #8
     b90:	53435f4d 	movtpl	r5, #16205	; 0x3f4d
     b94:	00425f31 	subeq	r5, r2, r1, lsr pc
     b98:	53564e53 	cmppl	r6, #1328	; 0x530
     b9c:	4d41545f 	cfstrdmi	mvd5, [r1, #-380]	; 0xfffffe84
     ba0:	37524550 			; <UNDEFINED> instruction: 0x37524550
     ba4:	50524700 	subspl	r4, r2, r0, lsl #14
     ba8:	5244445f 	subpl	r4, r4, #1593835520	; 0x5f000000
     bac:	45444f4d 	strbmi	r4, [r4, #-3917]	; 0xf4d
     bb0:	564e5300 	strbpl	r5, [lr], -r0, lsl #6
     bb4:	41545f53 	cmpmi	r4, r3, asr pc
     bb8:	5245504d 	subpl	r5, r5, #77	; 0x4d
     bbc:	4e530038 	mrcmi	0, 2, r0, cr3, cr8, {1}
     bc0:	545f5356 	ldrbpl	r5, [pc], #-854	; bc8 <_start-0x877ff438>
     bc4:	45504d41 	ldrbmi	r4, [r0, #-3393]	; 0xd41
     bc8:	49003952 	stmdbmi	r0, {r1, r4, r6, r8, fp, ip, sp}
     bcc:	58554d4f 	ldmdapl	r5, {r0, r1, r2, r3, r6, r8, sl, fp, lr}^
     bd0:	5f57535f 	svcpl	0x0057535f
     bd4:	5f58554d 	svcpl	0x0058554d
     bd8:	65707954 	ldrbvs	r7, [r0, #-2388]!	; 0x954
     bdc:	52415500 	subpl	r5, r1, #0, 10
     be0:	525f3154 	subspl	r3, pc, #84, 2
     be4:	425f5354 	subsmi	r5, pc, #84, 6	; 0x50000001
     be8:	4e414e00 	cdpmi	14, 4, cr4, cr1, cr0, {0}
     bec:	51445f44 	cmppl	r4, r4, asr #30
     bf0:	414e0053 	qdaddmi	r0, r3, lr
     bf4:	435f444e 	cmpmi	pc, #1308622848	; 0x4e000000
     bf8:	425f3045 	subsmi	r3, pc, #69	; 0x45
     bfc:	52415500 	subpl	r5, r1, #0, 10
     c00:	525f3354 	subspl	r3, pc, #84, 6	; 0x50000001
     c04:	425f5354 	subsmi	r5, pc, #84, 6	; 0x50000001
     c08:	564e5300 	strbpl	r5, [lr], -r0, lsl #6
     c0c:	41545f53 	cmpmi	r4, r3, asr pc
     c10:	5245504d 	subpl	r5, r5, #77	; 0x4d
     c14:	4e530030 	mrcmi	0, 2, r0, cr3, cr0, {1}
     c18:	545f5356 	ldrbpl	r5, [pc], #-854	; c20 <_start-0x877ff3e0>
     c1c:	45504d41 	ldrbmi	r4, [r0, #-3393]	; 0xd41
     c20:	53003152 	movwpl	r3, #338	; 0x152
     c24:	5f53564e 	svcpl	0x0053564e
     c28:	504d4154 	subpl	r4, sp, r4, asr r1
     c2c:	00325245 	eorseq	r5, r2, r5, asr #4
     c30:	53564e53 	cmppl	r6, #1328	; 0x530
     c34:	4d41545f 	cfstrdmi	mvd5, [r1, #-380]	; 0xfffffe84
     c38:	33524550 	cmpcc	r2, #80, 10	; 0x14000000
     c3c:	564e5300 	strbpl	r5, [lr], -r0, lsl #6
     c40:	41545f53 	cmpmi	r4, r3, asr pc
     c44:	5245504d 	subpl	r5, r5, #77	; 0x4d
     c48:	4e530034 	mrcmi	0, 2, r0, cr3, cr4, {1}
     c4c:	545f5356 	ldrbpl	r5, [pc], #-854	; c54 <_start-0x877ff3ac>
     c50:	45504d41 	ldrbmi	r4, [r0, #-3393]	; 0xd41
     c54:	53003552 	movwpl	r3, #1362	; 0x552
     c58:	5f53564e 	svcpl	0x0053564e
     c5c:	504d4154 	subpl	r4, sp, r4, asr r1
     c60:	00365245 	eorseq	r5, r6, r5, asr #4
     c64:	5f44434c 	svcpl	0x0044434c
     c68:	41544144 	cmpmi	r4, r4, asr #2
     c6c:	45003031 	strmi	r3, [r0, #-49]	; 0x31
     c70:	3254454e 	subscc	r4, r4, #327155712	; 0x13800000
     c74:	5f58545f 	svcpl	0x0058545f
     c78:	41544144 	cmpmi	r4, r4, asr #2
     c7c:	4e450030 	mcrmi	0, 2, r0, cr5, cr0, {1}
     c80:	5f325445 	svcpl	0x00325445
     c84:	445f5854 	ldrbmi	r5, [pc], #-2132	; c8c <_start-0x877ff374>
     c88:	31415441 	cmpcc	r1, r1, asr #8
     c8c:	44434c00 	strbmi	r4, [r3], #-3072	; 0xc00
     c90:	5441445f 	strbpl	r4, [r1], #-1119	; 0x45f
     c94:	00333141 	eorseq	r3, r3, r1, asr #2
     c98:	5f44434c 	svcpl	0x0044434c
     c9c:	41544144 	cmpmi	r4, r4, asr #2
     ca0:	43003531 	movwmi	r3, #1329	; 0x531
     ca4:	445f4953 	ldrbmi	r4, [pc], #-2387	; cac <_start-0x877ff354>
     ca8:	30415441 	subcc	r5, r1, r1, asr #8
     cac:	53430030 	movtpl	r0, #12336	; 0x3030
     cb0:	41445f49 	cmpmi	r4, r9, asr #30
     cb4:	31304154 	teqcc	r0, r4, asr r1
     cb8:	49534300 	ldmdbmi	r3, {r8, r9, lr}^
     cbc:	5441445f 	strbpl	r4, [r1], #-1119	; 0x45f
     cc0:	00323041 	eorseq	r3, r2, r1, asr #32
     cc4:	5f495343 	svcpl	0x00495343
     cc8:	41544144 	cmpmi	r4, r4, asr #2
     ccc:	43003330 	movwmi	r3, #816	; 0x330
     cd0:	4d5f4953 	ldclmi	9, cr4, [pc, #-332]	; b8c <_start-0x877ff474>
     cd4:	004b4c43 	subeq	r4, fp, r3, asr #24
     cd8:	5f495343 	svcpl	0x00495343
     cdc:	41544144 	cmpmi	r4, r4, asr #2
     ce0:	43003530 	movwmi	r3, #1328	; 0x530
     ce4:	445f4953 	ldrbmi	r4, [pc], #-2387	; cec <_start-0x877ff314>
     ce8:	30415441 	subcc	r5, r1, r1, asr #8
     cec:	53430036 	movtpl	r0, #12342	; 0x3036
     cf0:	41445f49 	cmpmi	r4, r9, asr #30
     cf4:	37304154 			; <UNDEFINED> instruction: 0x37304154
     cf8:	4f4e4f00 	svcmi	0x004e4f00
     cfc:	55004646 	strpl	r4, [r0, #-1606]	; 0x646
     d00:	32545241 	subscc	r5, r4, #268435460	; 0x10000004
     d04:	5354435f 	cmppl	r4, #2080374785	; 0x7c000001
     d08:	5300425f 	movwpl	r4, #607	; 0x25f
     d0c:	445f3144 	ldrbmi	r3, [pc], #-324	; d14 <_start-0x877ff2ec>
     d10:	30415441 	subcc	r5, r1, r1, asr #8
     d14:	4e414e00 	cdpmi	14, 4, cr4, cr1, cr0, {0}
     d18:	45525f44 	ldrbmi	r5, [r2, #-3908]	; 0xf44
     d1c:	4700425f 	smlsdmi	r0, pc, r2, r4	; <UNPREDICTABLE>
     d20:	445f5052 	ldrbmi	r5, [pc], #-82	; d28 <_start-0x877ff2d8>
     d24:	4b505244 	blmi	141563c <_start-0x863ea9c4>
     d28:	4f490045 	svcmi	0x00490045
     d2c:	5f58554d 	svcpl	0x0058554d
     d30:	505f5753 	subspl	r5, pc, r3, asr r7	; <UNPREDICTABLE>
     d34:	545f4441 	ldrbpl	r4, [pc], #-1089	; d3c <_start-0x877ff2c4>
     d38:	00657079 	rsbeq	r7, r5, r9, ror r0
     d3c:	54454e45 	strbpl	r4, [r5], #-3653	; 0xe45
     d40:	58525f31 	ldmdapl	r2, {r0, r4, r5, r8, r9, sl, fp, ip, lr}^
     d44:	004e455f 	subeq	r4, lr, pc, asr r5
     d48:	54454e45 	strbpl	r4, [r5], #-3653	; 0xe45
     d4c:	58525f31 	ldmdapl	r2, {r0, r4, r5, r8, r9, sl, fp, ip, lr}^
     d50:	0052455f 	subseq	r4, r2, pc, asr r5
     d54:	4d415244 	sfmmi	f5, 2, [r1, #-272]	; 0xfffffef0
     d58:	3053435f 	subscc	r4, r3, pc, asr r3
     d5c:	6c00425f 	sfmvs	f4, 4, [r0], {95}	; 0x5f
     d60:	6f5f6465 	svcvs	0x005f6465
     d64:	434c006e 	movtmi	r0, #49262	; 0xc06e
     d68:	53485f44 	movtpl	r5, #36676	; 0x8f44
     d6c:	00434e59 	subeq	r4, r3, r9, asr lr
     d70:	444e414e 	strbmi	r4, [lr], #-334	; 0x14e
     d74:	4145525f 	cmpmi	r5, pc, asr r2
     d78:	425f5944 	subsmi	r5, pc, #68, 18	; 0x110000
     d7c:	41524400 	cmpmi	r2, r0, lsl #8
     d80:	51445f4d 	cmppl	r4, sp, asr #30
     d84:	4c00314d 	stfmis	f3, [r0], {77}	; 0x4d
     d88:	445f4443 	ldrbmi	r4, [pc], #-1091	; d90 <_start-0x877ff270>
     d8c:	32415441 	subcc	r5, r1, #1090519040	; 0x41000000
     d90:	434c0030 	movtmi	r0, #49200	; 0xc030
     d94:	41445f44 	cmpmi	r4, r4, asr #30
     d98:	31324154 	teqcc	r2, r4, asr r1
     d9c:	44434c00 	strbmi	r4, [r3], #-3072	; 0xc00
     da0:	5441445f 	strbpl	r4, [r1], #-1119	; 0x45f
     da4:	00323241 	eorseq	r3, r2, r1, asr #4
     da8:	5f44434c 	svcpl	0x0044434c
     dac:	41544144 	cmpmi	r4, r4, asr #2
     db0:	47003332 	smladxmi	r0, r2, r3, r3
     db4:	445f5052 	ldrbmi	r5, [pc], #-82	; dbc <_start-0x877ff244>
     db8:	4f4d5244 	svcmi	0x004d5244
     dbc:	435f4544 	cmpmi	pc, #68, 10	; 0x11000000
     dc0:	6c004c54 	stcvs	12, cr4, [r0], {84}	; 0x54
     dc4:	745f6465 	ldrbvc	r6, [pc], #-1125	; dcc <_start-0x877ff234>
     dc8:	006e7275 	rsbeq	r7, lr, r5, ror r2
     dcc:	4d415244 	sfmmi	f5, 2, [r1, #-272]	; 0xfffffef0
     dd0:	5144535f 	cmppl	r4, pc, asr r3
     dd4:	505f3053 	subspl	r3, pc, r3, asr r0	; <UNPREDICTABLE>
     dd8:	41524400 	cmpmi	r2, r0, lsl #8
     ddc:	41525f4d 	cmpmi	r2, sp, asr #30
     de0:	00425f53 	subeq	r5, r2, r3, asr pc
     de4:	5f505247 	svcpl	0x00505247
     de8:	53443142 	movtpl	r3, #16706	; 0x4142
     dec:	41524400 	cmpmi	r2, r0, lsl #8
     df0:	444f5f4d 	strbmi	r5, [pc], #-3917	; df8 <_start-0x877ff208>
     df4:	44003054 	strmi	r3, [r0], #-84	; 0x54
     df8:	5f4d4152 	svcpl	0x004d4152
     dfc:	3154444f 	cmpcc	r4, pc, asr #8
     e00:	41524400 	cmpmi	r2, r0, lsl #8
     e04:	51445f4d 	cmppl	r4, sp, asr #30
     e08:	5500304d 	strpl	r3, [r0, #-77]	; 0x4d
     e0c:	31545241 	cmpcc	r4, r1, asr #4
     e10:	5f58525f 	svcpl	0x0058525f
     e14:	41544144 	cmpmi	r4, r4, asr #2
     e18:	44434c00 	strbmi	r4, [r3], #-3072	; 0xc00
     e1c:	5953565f 	ldmdbpl	r3, {r0, r1, r2, r3, r4, r6, r9, sl, ip, lr}^
     e20:	4c00434e 	stcmi	3, cr4, [r0], {78}	; 0x4e
     e24:	445f4443 	ldrbmi	r4, [pc], #-1091	; e2c <_start-0x877ff1d4>
     e28:	30415441 	subcc	r5, r1, r1, asr #8
     e2c:	41550032 	cmpmi	r5, r2, lsr r0
     e30:	5f315452 	svcpl	0x00315452
     e34:	445f5854 	ldrbmi	r5, [pc], #-2132	; e3c <_start-0x877ff1c4>
     e38:	00415441 	subeq	r5, r1, r1, asr #8
     e3c:	54454e45 	strbpl	r4, [r5], #-3653	; 0xe45
     e40:	58545f32 	ldmdapl	r4, {r1, r4, r5, r8, r9, sl, fp, ip, lr}^
     e44:	4b4c435f 	blmi	1311bc8 <_start-0x864ee438>
     e48:	4f4f4200 	svcmi	0x004f4200
     e4c:	4f4d5f54 	svcmi	0x004d5f54
     e50:	00304544 	eorseq	r4, r0, r4, asr #10
     e54:	5f524f50 	svcpl	0x00524f50
     e58:	4e450042 	cdpmi	0, 4, cr0, cr5, cr2, {2}
     e5c:	5f315445 	svcpl	0x00315445
     e60:	445f5854 	ldrbmi	r5, [pc], #-2132	; e68 <_start-0x877ff198>
     e64:	30415441 	subcc	r5, r1, r1, asr #8
     e68:	454e4500 	strbmi	r4, [lr, #-1280]	; 0x500
     e6c:	545f3154 	ldrbpl	r3, [pc], #-340	; e74 <_start-0x877ff18c>
     e70:	41445f58 	cmpmi	r4, r8, asr pc
     e74:	00314154 	eorseq	r4, r1, r4, asr r1
     e78:	54454e45 	strbpl	r4, [r5], #-3653	; 0xe45
     e7c:	58545f31 	ldmdapl	r4, {r0, r4, r5, r8, r9, sl, fp, ip, lr}^
     e80:	004e455f 	subeq	r4, lr, pc, asr r5
     e84:	444e414e 	strbmi	r4, [lr], #-334	; 0x14e
     e88:	5f45575f 	svcpl	0x0045575f
     e8c:	53430042 	movtpl	r0, #12354	; 0x3042
     e90:	41445f49 	cmpmi	r4, r9, asr #30
     e94:	34304154 	ldrtcc	r4, [r0], #-340	; 0x154
     e98:	41544a00 	cmpmi	r4, r0, lsl #20
     e9c:	4f4d5f47 	svcmi	0x004d5f47
     ea0:	41550044 	cmpmi	r5, r4, asr #32
     ea4:	5f335452 	svcpl	0x00335452
     ea8:	445f5852 	ldrbmi	r5, [pc], #-2130	; eb0 <_start-0x877ff150>
     eac:	00415441 	subeq	r5, r1, r1, asr #8
     eb0:	4d415244 	sfmmi	f5, 2, [r1, #-272]	; 0xfffffef0
     eb4:	5345525f 	movtpl	r5, #21087	; 0x525f
     eb8:	47005445 	strmi	r5, [r0, -r5, asr #8]
     ebc:	425f5052 	subsmi	r5, pc, #82	; 0x52
     ec0:	00534430 	subseq	r4, r3, r0, lsr r4
     ec4:	444e414e 	strbmi	r4, [lr], #-334	; 0x14e
     ec8:	454c435f 	strbmi	r4, [ip, #-863]	; 0x35f
     ecc:	52415500 	subpl	r5, r1, #0, 10
     ed0:	525f3254 	subspl	r3, pc, #84, 4	; 0x40000005
     ed4:	41445f58 	cmpmi	r4, r8, asr pc
     ed8:	47004154 	smlsdmi	r0, r4, r1, r4
     edc:	445f5052 	ldrbmi	r5, [pc], #-82	; ee4 <_start-0x877ff11c>
     ee0:	59485244 	stmdbpl	r8, {r2, r6, r9, ip, lr}^
     ee4:	544a0053 	strbpl	r0, [sl], #-83	; 0x53
     ee8:	545f4741 	ldrbpl	r4, [pc], #-1857	; ef0 <_start-0x877ff110>
     eec:	4e00534d 	cdpmi	3, 0, cr5, cr0, cr13, {2}
     ef0:	5f444e41 	svcpl	0x00444e41
     ef4:	5f314543 	svcpl	0x00314543
     ef8:	41550042 	cmpmi	r5, r2, asr #32
     efc:	5f325452 	svcpl	0x00325452
     f00:	445f5854 	ldrbmi	r5, [pc], #-2132	; f08 <_start-0x877ff0f8>
     f04:	00415441 	subeq	r5, r1, r1, asr #8
     f08:	544f4f42 	strbpl	r4, [pc], #-3906	; f10 <_start-0x877ff0f0>
     f0c:	444f4d5f 	strbmi	r4, [pc], #-3423	; f14 <_start-0x877ff0ec>
     f10:	53003145 	movwpl	r3, #325	; 0x145
     f14:	445f3144 	ldrbmi	r3, [pc], #-324	; f1c <_start-0x877ff0e4>
     f18:	31415441 	cmpcc	r1, r1, asr #8
     f1c:	31445300 	mrscc	r5, SPSR_abt
     f20:	5441445f 	strbpl	r4, [r1], #-1119	; 0x45f
     f24:	53003241 	movwpl	r3, #577	; 0x241
     f28:	445f3144 	ldrbmi	r3, [pc], #-324	; f30 <_start-0x877ff0d0>
     f2c:	33415441 	movtcc	r5, #5185	; 0x1441
     f30:	49534300 	ldmdbmi	r3, {r8, r9, lr}^
     f34:	5953485f 	ldmdbpl	r3, {r0, r1, r2, r3, r4, r6, fp, lr}^
     f38:	4300434e 	movwmi	r4, #846	; 0x34e
     f3c:	505f4d43 	subspl	r4, pc, r3, asr #26
     f40:	5f43494d 	svcpl	0x0043494d
     f44:	59425453 	stmdbpl	r2, {r0, r1, r4, r6, sl, ip, lr}^
     f48:	5145525f 	cmppl	r5, pc, asr r2
     f4c:	69706700 	ldmdbvs	r0!, {r8, r9, sl, sp, lr}^
     f50:	69705f6f 	ldmdbvs	r0!, {r0, r1, r2, r3, r5, r6, r8, r9, sl, fp, ip, lr}^
     f54:	6f635f6e 	svcvs	0x00635f6e
     f58:	6769666e 	strbvs	r6, [r9, -lr, ror #12]!
     f5c:	4a00745f 	bmi	1e0e0 <_start-0x877e1f20>
     f60:	5f474154 	svcpl	0x00474154
     f64:	004b4354 	subeq	r4, fp, r4, asr r3
     f68:	5f64656c 	svcpl	0x0064656c
     f6c:	74696e69 	strbtvc	r6, [r9], #-3689	; 0xe69
     f70:	49504700 	ldmdbmi	r0, {r8, r9, sl, lr}^
     f74:	495f314f 	ldmdbmi	pc, {r0, r1, r2, r3, r6, r8, ip, sp}^	; <UNPREDICTABLE>
     f78:	0030304f 	eorseq	r3, r0, pc, asr #32
     f7c:	7679656b 	ldrbtvc	r6, [r9], -fp, ror #10
     f80:	65756c61 	ldrbvs	r6, [r5, #-3169]!	; 0xc61
     f84:	59454b00 	stmdbpl	r5, {r8, r9, fp, lr}^
     f88:	4e4f4e5f 	mcrmi	14, 2, r4, cr15, cr15, {2}
     f8c:	65720045 	ldrbvs	r0, [r2, #-69]!	; 0x45
     f90:	6b5f6461 	blvs	17da11c <_start-0x86025ee4>
     f94:	4b007965 	blmi	1f530 <_start-0x877e0ad0>
     f98:	495f7965 	ldmdbmi	pc, {r0, r2, r5, r6, r8, fp, ip, sp, lr}^	; <UNPREDICTABLE>
     f9c:	0074696e 	rsbseq	r6, r4, lr, ror #18
     fa0:	3059454b 	subscc	r4, r9, fp, asr #10
     fa4:	4c41565f 	mcrrmi	6, 5, r5, r1, cr15
     fa8:	62004555 	andvs	r4, r0, #356515840	; 0x15400000
     fac:	6b2f7073 	blvs	bdd180 <_start-0x86c22e80>
     fb0:	622f7965 	eorvs	r7, pc, #1654784	; 0x194000
     fb4:	6b5f7073 	blvs	17dd188 <_start-0x86022e78>
     fb8:	7a5f7965 	bvc	17df554 <_start-0x86020aac>
     fbc:	2e6f7265 	cdpcs	2, 6, cr7, cr15, cr5, {3}
     fc0:	656b0063 	strbvs	r0, [fp, #-99]!	; 0x63
     fc4:	65675f79 	strbvs	r5, [r7, #-3961]!	; 0xf79
     fc8:	6c617674 	stclvs	6, cr7, [r1], #-464	; 0xfffffe30
     fcc:	72006575 	andvc	r6, r0, #490733568	; 0x1d400000
     fd0:	61656c65 	cmnvs	r5, r5, ror #24
     fd4:	62006573 	andvs	r6, r0, #482344960	; 0x1cc00000
     fd8:	622f7073 	eorvs	r7, pc, #115	; 0x73
     fdc:	2f706565 	svccs	0x00706565
     fe0:	5f707362 	svcpl	0x00707362
     fe4:	70656562 	rsbvc	r6, r5, r2, ror #10
     fe8:	4200632e 	andmi	r6, r0, #-1207959552	; 0xb8000000
     fec:	5f706565 	svcpl	0x00706565
     ff0:	6e757254 	mrcvs	2, 3, r7, cr5, cr4, {2}
     ff4:	65654200 	strbvs	r4, [r5, #-512]!	; 0x200
     ff8:	6e495f70 	mcrvs	15, 2, r5, cr9, cr0, {3}
     ffc:	42007469 	andmi	r7, r0, #1761607680	; 0x69000000
    1000:	5f706565 	svcpl	0x00706565
    1004:	42006e4f 	andmi	r6, r0, #1264	; 0x4f0
    1008:	5f706565 	svcpl	0x00706565
    100c:	0066664f 	rsbeq	r6, r6, pc, asr #12
    1010:	54524155 	ldrbpl	r4, [r2], #-341	; 0x155
    1014:	52495f33 	subpl	r5, r9, #51, 30	; 0xcc
    1018:	43006e51 	movwmi	r6, #3665	; 0xe51
    101c:	5050485f 	subspl	r4, r0, pc, asr r8
    1020:	41005249 	tstmi	r0, r9, asr #4
    1024:	5f435253 	svcpl	0x00435253
    1028:	6e515249 	cdpvs	2, 5, cr5, cr1, cr9, {2}
    102c:	41414300 	mrsmi	r4, (UNDEF: 113)
    1030:	6f4a5f4d 	svcvs	0x004a5f4d
    1034:	69525f62 	ldmdbvs	r2, {r1, r5, r6, r8, r9, sl, fp, ip, lr}^
    1038:	5f30676e 	svcpl	0x0030676e
    103c:	6e515249 	cdpvs	2, 5, cr5, cr1, cr9, {2}
    1040:	564e5300 	strbpl	r5, [lr], -r0, lsl #6
    1044:	65535f53 	ldrbvs	r5, [r3, #-3923]	; 0xf53
    1048:	69727563 	ldmdbvs	r2!, {r0, r1, r5, r6, r8, sl, ip, sp, lr}^
    104c:	495f7974 	ldmdbmi	pc, {r2, r4, r5, r6, r8, fp, ip, sp, lr}^	; <UNPREDICTABLE>
    1050:	006e5152 	rsbeq	r5, lr, r2, asr r1
    1054:	4f495047 	svcmi	0x00495047
    1058:	6f435f34 	svcvs	0x00435f34
    105c:	6e69626d 	cdpvs	2, 6, cr6, cr9, cr13, {3}
    1060:	315f6465 	cmpcc	pc, r5, ror #8
    1064:	31335f36 	teqcc	r3, r6, lsr pc
    1068:	5152495f 	cmppl	r2, pc, asr r9
    106c:	4143006e 	cmpmi	r3, lr, rrx
    1070:	495f314e 	ldmdbmi	pc, {r1, r2, r3, r6, r8, ip, sp}^	; <UNPREDICTABLE>
    1074:	006e5152 	rsbeq	r5, lr, r2, asr r1
    1078:	48445355 	stmdami	r4, {r0, r2, r4, r6, r8, r9, ip, lr}^
    107c:	495f3243 	ldmdbmi	pc, {r0, r1, r6, r9, ip, sp}^	; <UNPREDICTABLE>
    1080:	006e5152 	rsbeq	r5, lr, r2, asr r1
    1084:	65675f5f 	strbvs	r5, [r7, #-3935]!	; 0xf5f
    1088:	42435f74 	submi	r5, r3, #116, 30	; 0x1d0
    108c:	50005241 	andpl	r5, r0, r1, asr #4
    1090:	5f314d57 	svcpl	0x00314d57
    1094:	6e515249 	cdpvs	2, 5, cr5, cr1, cr9, {2}
    1098:	50585000 	subspl	r5, r8, r0
    109c:	5152495f 	cmppl	r2, pc, asr r9
    10a0:	52495f31 	subpl	r5, r9, #49, 30	; 0xc4
    10a4:	41006e51 	tstmi	r0, r1, asr lr
    10a8:	5f484250 	svcpl	0x00484250
    10ac:	6e515249 	cdpvs	2, 5, cr5, cr1, cr9, {2}
    10b0:	495f4400 	ldmdbmi	pc, {sl, lr}^	; <UNPREDICTABLE>
    10b4:	54434153 	strbpl	r4, [r3], #-339	; 0x153
    10b8:	52455649 	subpl	r5, r5, #76546048	; 0x4900000
    10bc:	42535500 	subsmi	r5, r3, #0, 10
    10c0:	47544f5f 			; <UNDEFINED> instruction: 0x47544f5f
    10c4:	52495f31 	subpl	r5, r9, #49, 30	; 0xc4
    10c8:	44006e51 	strmi	r6, [r0], #-3665	; 0xe51
    10cc:	4449435f 	strbmi	r4, [r9], #-863	; 0x35f
    10d0:	44003052 	strmi	r3, [r0], #-82	; 0x52
    10d4:	4449435f 	strbmi	r4, [r9], #-863	; 0x35f
    10d8:	44003152 	strmi	r3, [r0], #-338	; 0x152
    10dc:	4449435f 	strbmi	r4, [r9], #-863	; 0x35f
    10e0:	44003252 	strmi	r3, [r0], #-594	; 0x252
    10e4:	4449435f 	strbmi	r4, [r9], #-863	; 0x35f
    10e8:	52003352 	andpl	r3, r0, #1207959553	; 0x48000001
    10ec:	72657365 	rsbvc	r7, r5, #-1811939327	; 0x94000001
    10f0:	31646576 	smccc	18006	; 0x4656
    10f4:	495f3830 	ldmdbmi	pc, {r4, r5, fp, ip, sp}^	; <UNPREDICTABLE>
    10f8:	006e5152 	rsbeq	r5, lr, r2, asr r1
    10fc:	536e6f4e 	cmnpl	lr, #312	; 0x138
    1100:	72756365 	rsbsvc	r6, r5, #-1811939327	; 0x94000001
    1104:	79685065 	stmdbvc	r8!, {r0, r2, r5, r6, ip, lr}^
    1108:	656d6954 	strbvs	r6, [sp, #-2388]!	; 0x954
    110c:	52495f72 	subpl	r5, r9, #456	; 0x1c8
    1110:	65006e51 	strvs	r6, [r0, #-3665]	; 0xe51
    1114:	49505343 	ldmdbmi	r0, {r0, r1, r6, r8, r9, ip, lr}^
    1118:	52495f32 	subpl	r5, r9, #50, 30	; 0xc8
    111c:	47006e51 	smlsdmi	r0, r1, lr, r6
    1120:	314f4950 	cmpcc	pc, r0, asr r9	; <UNPREDICTABLE>
    1124:	544e495f 	strbpl	r4, [lr], #-2399	; 0x95f
    1128:	52495f33 	subpl	r5, r9, #51, 30	; 0xcc
    112c:	44006e51 	strmi	r6, [r0], #-3665	; 0xe51
    1130:	535f5043 	cmppl	pc, #67	; 0x43
    1134:	495f4345 	ldmdbmi	pc, {r0, r2, r6, r8, r9, lr}^	; <UNPREDICTABLE>
    1138:	495f5152 	ldmdbmi	pc, {r1, r4, r6, r8, ip, lr}^	; <UNPREDICTABLE>
    113c:	006e5152 	rsbeq	r5, lr, r2, asr r1
    1140:	364d5750 			; <UNDEFINED> instruction: 0x364d5750
    1144:	5152495f 	cmppl	r2, pc, asr r9
    1148:	5047006e 	subpl	r0, r7, lr, rrx
    114c:	5f314f49 	svcpl	0x00314f49
    1150:	626d6f43 	rsbvs	r6, sp, #268	; 0x10c
    1154:	64656e69 	strbtvs	r6, [r5], #-3689	; 0xe69
    1158:	315f305f 	cmpcc	pc, pc, asr r0	; <UNPREDICTABLE>
    115c:	52495f35 	subpl	r5, r9, #53, 30	; 0xd4
    1160:	52006e51 	andpl	r6, r0, #1296	; 0x510
    1164:	72657365 	rsbvc	r7, r5, #-1811939327	; 0x94000001
    1168:	31646576 	smccc	18006	; 0x4656
    116c:	495f3533 	ldmdbmi	pc, {r0, r1, r4, r5, r8, sl, ip, sp}^	; <UNPREDICTABLE>
    1170:	006e5152 	rsbeq	r5, lr, r2, asr r1
    1174:	4f495047 	svcmi	0x00495047
    1178:	6f435f31 	svcvs	0x00435f31
    117c:	6e69626d 	cdpvs	2, 6, cr6, cr9, cr13, {3}
    1180:	315f6465 	cmpcc	pc, r5, ror #8
    1184:	31335f36 	teqcc	r3, r6, lsr pc
    1188:	5152495f 	cmppl	r2, pc, asr r9
    118c:	6f53006e 	svcvs	0x0053006e
    1190:	61777466 	cmnvs	r7, r6, ror #8
    1194:	5f356572 	svcpl	0x00356572
    1198:	6e515249 	cdpvs	2, 5, cr5, cr1, cr9, {2}
    119c:	666f5300 	strbtvs	r5, [pc], -r0, lsl #6
    11a0:	72617774 	rsbvc	r7, r1, #116, 14	; 0x1d00000
    11a4:	5f333165 	svcpl	0x00333165
    11a8:	6e515249 	cdpvs	2, 5, cr5, cr1, cr9, {2}
    11ac:	43324900 	teqmi	r2, #0, 18
    11b0:	52495f31 	subpl	r5, r9, #49, 30	; 0xc4
    11b4:	52006e51 	andpl	r6, r0, #1296	; 0x510
    11b8:	414e5741 	cmpmi	lr, r1, asr #14
    11bc:	425f444e 	subsmi	r4, pc, #1308622848	; 0x4e000000
    11c0:	495f4843 	ldmdbmi	pc, {r0, r1, r6, fp, lr}^	; <UNPREDICTABLE>
    11c4:	006e5152 	rsbeq	r5, lr, r2, asr r1
    11c8:	54524155 	ldrbpl	r4, [r2], #-341	; 0x155
    11cc:	52495f34 	subpl	r5, r9, #52, 30	; 0xd0
    11d0:	53006e51 	movwpl	r6, #3665	; 0xe51
    11d4:	7774666f 	ldrbvc	r6, [r4, -pc, ror #12]!
    11d8:	30657261 	rsbcc	r7, r5, r1, ror #4
    11dc:	5152495f 	cmppl	r2, pc, asr r9
    11e0:	5045006e 	subpl	r0, r5, lr, rrx
    11e4:	5f325449 	svcpl	0x00325449
    11e8:	6e515249 	cdpvs	2, 5, cr5, cr1, cr9, {2}
    11ec:	43324900 	teqmi	r2, #0, 18
    11f0:	52495f34 	subpl	r5, r9, #52, 30	; 0xd0
    11f4:	43006e51 	movwmi	r6, #3665	; 0xe51
    11f8:	5249445f 	subpl	r4, r9, #1593835520	; 0x5f000000
    11fc:	49534300 	ldmdbmi	r3, {r8, r9, lr}^
    1200:	5152495f 	cmppl	r2, pc, asr r9
    1204:	5f44006e 	svcpl	0x0044006e
    1208:	52444949 	subpl	r4, r4, #1196032	; 0x124000
    120c:	4d455400 	cfstrdmi	mvd5, [r5, #-0]
    1210:	4e4f4d50 	mcrmi	13, 2, r4, cr15, cr0, {2}
    1214:	5152495f 	cmppl	r2, pc, asr r9
    1218:	5047006e 	subpl	r0, r7, lr, rrx
    121c:	5f334f49 	svcpl	0x00334f49
    1220:	626d6f43 	rsbvs	r6, sp, #268	; 0x10c
    1224:	64656e69 	strbtvs	r6, [r5], #-3689	; 0xe69
    1228:	315f305f 	cmpcc	pc, pc, asr r0	; <UNPREDICTABLE>
    122c:	52495f35 	subpl	r5, r9, #53, 30	; 0xd4
    1230:	51006e51 	tstpl	r0, r1, asr lr
    1234:	5f495053 	svcpl	0x00495053
    1238:	6e515249 	cdpvs	2, 5, cr5, cr1, cr9, {2}
    123c:	42535500 	subsmi	r5, r3, #0, 10
    1240:	5948505f 	stmdbpl	r8, {r0, r1, r2, r3, r4, r6, ip, lr}^
    1244:	52495f31 	subpl	r5, r9, #49, 30	; 0xc4
    1248:	44006e51 	strmi	r6, [r0], #-3665	; 0xe51
    124c:	565f5043 	ldrbpl	r5, [pc], -r3, asr #32
    1250:	495f494d 	ldmdbmi	pc, {r0, r2, r3, r6, r8, fp, lr}^	; <UNPREDICTABLE>
    1254:	495f5152 	ldmdbmi	pc, {r1, r4, r6, r8, ip, lr}^	; <UNPREDICTABLE>
    1258:	006e5152 	rsbeq	r5, lr, r2, asr r1
    125c:	45534552 	ldrbmi	r4, [r3, #-1362]	; 0x552
    1260:	44455652 	strbmi	r5, [r5], #-1618	; 0x652
    1264:	69670038 	stmdbvs	r7!, {r3, r4, r5}^
    1268:	61696363 	cmnvs	r9, r3, ror #6
    126c:	49470072 	stmdbmi	r7, {r1, r4, r5, r6}^
    1270:	6e455f43 	cdpvs	15, 4, cr5, cr5, cr3, {2}
    1274:	656c6261 	strbvs	r6, [ip, #-609]!	; 0x261
    1278:	00515249 	subseq	r5, r1, r9, asr #4
    127c:	41746f4e 	cmnmi	r4, lr, asr #30
    1280:	6c696176 	stfvse	f6, [r9], #-472	; 0xfffffe28
    1284:	5152495f 	cmppl	r2, pc, asr r9
    1288:	5f43006e 	svcpl	0x0043006e
    128c:	00525052 	subseq	r5, r2, r2, asr r0
    1290:	65736552 	ldrbvs	r6, [r3, #-1362]!	; 0x552
    1294:	64657672 	strbtvs	r7, [r5], #-1650	; 0x672
    1298:	5f373531 	svcpl	0x00373531
    129c:	6e515249 	cdpvs	2, 5, cr5, cr1, cr9, {2}
    12a0:	505f4300 	subspl	r4, pc, r0, lsl #6
    12a4:	6500524d 	strvs	r5, [r0, #-589]	; 0x24d
    12a8:	49505343 	ldmdbmi	r0, {r0, r1, r6, r8, r9, ip, lr}^
    12ac:	52495f34 	subpl	r5, r9, #52, 30	; 0xd0
    12b0:	44006e51 	strmi	r6, [r0], #-3665	; 0xe51
    12b4:	4143495f 	cmpmi	r3, pc, asr r9
    12b8:	56495443 	strbpl	r5, [r9], -r3, asr #8
    12bc:	47005245 	strmi	r5, [r0, -r5, asr #4]
    12c0:	314f4950 	cmpcc	pc, r0, asr r9	; <UNPREDICTABLE>
    12c4:	544e495f 	strbpl	r4, [lr], #-2399	; 0x95f
    12c8:	52495f35 	subpl	r5, r9, #53, 30	; 0xd4
    12cc:	4c006e51 	stcmi	14, cr6, [r0], {81}	; 0x51
    12d0:	46494443 	strbmi	r4, [r9], -r3, asr #8
    12d4:	5152495f 	cmppl	r2, pc, asr r9
    12d8:	5047006e 	subpl	r0, r7, lr, rrx
    12dc:	5f314f49 	svcpl	0x00314f49
    12e0:	30544e49 	subscc	r4, r4, r9, asr #28
    12e4:	5152495f 	cmppl	r2, pc, asr r9
    12e8:	4457006e 	ldrbmi	r0, [r7], #-110	; 0x6e
    12ec:	5f31474f 	svcpl	0x0031474f
    12f0:	6e515249 	cdpvs	2, 5, cr5, cr1, cr9, {2}
    12f4:	51524900 	cmppl	r2, r0, lsl #18
    12f8:	79545f6e 	ldmdbvc	r4, {r1, r2, r3, r5, r6, r8, r9, sl, fp, ip, lr}^
    12fc:	50006570 	andpl	r6, r0, r0, ror r5
    1300:	495f554d 	ldmdbmi	pc, {r0, r2, r3, r6, r8, sl, ip, lr}^	; <UNPREDICTABLE>
    1304:	5f315152 	svcpl	0x00315152
    1308:	6e515249 	cdpvs	2, 5, cr5, cr1, cr9, {2}
    130c:	666f5300 	strbtvs	r5, [pc], -r0, lsl #6
    1310:	72617774 	rsbvc	r7, r1, #116, 14	; 0x1d00000
    1314:	495f3765 	ldmdbmi	pc, {r0, r2, r5, r6, r8, r9, sl, ip, sp}^	; <UNPREDICTABLE>
    1318:	006e5152 	rsbeq	r5, lr, r2, asr r1
    131c:	74666f53 	strbtvc	r6, [r6], #-3923	; 0xf53
    1320:	65726177 	ldrbvs	r6, [r2, #-375]!	; 0x177
    1324:	495f3531 	ldmdbmi	pc, {r0, r4, r5, r8, sl, ip, sp}^	; <UNPREDICTABLE>
    1328:	006e5152 	rsbeq	r5, lr, r2, asr r1
    132c:	33433249 	movtcc	r3, #12873	; 0x3249
    1330:	5152495f 	cmppl	r2, pc, asr r9
    1334:	5750006e 	ldrbpl	r0, [r0, -lr, rrx]
    1338:	495f334d 	ldmdbmi	pc, {r0, r2, r3, r6, r8, r9, ip, sp}^	; <UNPREDICTABLE>
    133c:	006e5152 	rsbeq	r5, lr, r2, asr r1
    1340:	54524155 	ldrbpl	r4, [r2], #-341	; 0x155
    1344:	52495f36 	subpl	r5, r9, #54, 30	; 0xd8
    1348:	44006e51 	strmi	r6, [r0], #-3665	; 0xe51
    134c:	5059545f 	subspl	r5, r9, pc, asr r4
    1350:	53005245 	movwpl	r5, #581	; 0x245
    1354:	7774666f 	ldrbvc	r6, [r4, -pc, ror #12]!
    1358:	32657261 	rsbcc	r7, r5, #268435462	; 0x10000006
    135c:	5152495f 	cmppl	r2, pc, asr r9
    1360:	6552006e 	ldrbvs	r0, [r2, #-110]	; 0x6e
    1364:	76726573 			; <UNDEFINED> instruction: 0x76726573
    1368:	33316465 	teqcc	r1, #1694498816	; 0x65000000
    136c:	52495f34 	subpl	r5, r9, #52, 30	; 0xd0
    1370:	52006e51 	andpl	r6, r0, #1296	; 0x510
    1374:	72657365 	rsbvc	r7, r5, #-1811939327	; 0x94000001
    1378:	38646576 	stmdacc	r4!, {r1, r2, r4, r5, r6, r8, sl, sp, lr}^
    137c:	52495f35 	subpl	r5, r9, #53, 30	; 0xd4
    1380:	55006e51 	strpl	r6, [r0, #-3665]	; 0xe51
    1384:	31545241 	cmpcc	r4, r1, asr #4
    1388:	5152495f 	cmppl	r2, pc, asr r9
    138c:	7362006e 	cmnvc	r2, #110	; 0x6e
    1390:	78652f70 	stmdavc	r5!, {r4, r5, r6, r8, r9, sl, fp, sp}^
    1394:	622f6974 	eorvs	r6, pc, #116, 18	; 0x1d0000
    1398:	655f7073 	ldrbvs	r7, [pc, #-115]	; 132d <_start-0x877fecd3>
    139c:	2e697478 	mcrcs	4, 3, r7, cr9, cr8, {3}
    13a0:	4e530063 	cdpmi	0, 5, cr0, cr3, cr3, {3}
    13a4:	435f5356 	cmpmi	pc, #1476395009	; 0x58000001
    13a8:	6f736e6f 	svcvs	0x00736e6f
    13ac:	6164696c 	cmnvs	r4, ip, ror #18
    13b0:	5f646574 	svcpl	0x00646574
    13b4:	6e515249 	cdpvs	2, 5, cr5, cr1, cr9, {2}
    13b8:	73655200 	cmnvc	r5, #0, 4
    13bc:	65767265 	ldrbvs	r7, [r6, #-613]!	; 0x265
    13c0:	34353164 	ldrtcc	r3, [r5], #-356	; 0x164
    13c4:	5152495f 	cmppl	r2, pc, asr r9
    13c8:	4e45006e 	cdpmi	0, 4, cr0, cr5, cr14, {3}
    13cc:	5f325445 	svcpl	0x00325445
    13d0:	38383531 	ldmdacc	r8!, {r0, r4, r5, r8, sl, ip, sp}
    13d4:	5152495f 	cmppl	r2, pc, asr r9
    13d8:	4e53006e 	cdpmi	0, 5, cr0, cr3, cr14, {3}
    13dc:	495f5356 	ldmdbmi	pc, {r1, r2, r4, r6, r8, r9, ip, lr}^	; <UNPREDICTABLE>
    13e0:	006e5152 	rsbeq	r5, lr, r2, asr r1
    13e4:	5f555043 	svcpl	0x00555043
    13e8:	66726550 			; <UNDEFINED> instruction: 0x66726550
    13ec:	616d726f 	cmnvs	sp, pc, ror #4
    13f0:	5565636e 	strbpl	r6, [r5, #-878]!	; 0x36e
    13f4:	5f74696e 	svcpl	0x0074696e
    13f8:	6e515249 	cdpvs	2, 5, cr5, cr1, cr9, {2}
    13fc:	54435300 	strbpl	r5, [r3], #-768	; 0x300
    1400:	52495f52 	subpl	r5, r9, #328	; 0x148
    1404:	495f3151 	ldmdbmi	pc, {r0, r4, r6, r8, ip, sp}^	; <UNPREDICTABLE>
    1408:	006e5152 	rsbeq	r5, lr, r2, asr r1
    140c:	5f434947 	svcpl	0x00434947
    1410:	65707954 	ldrbvs	r7, [r0, #-2388]!	; 0x954
    1414:	43504700 	cmpmi	r0, #0, 14
    1418:	5152495f 	cmppl	r2, pc, asr r9
    141c:	4a53006e 	bmi	14c15dc <_start-0x8633ea24>
    1420:	52495f43 	subpl	r5, r9, #268	; 0x10c
    1424:	41006e51 	tstmi	r0, r1, asr lr
    1428:	5f314344 	svcpl	0x00314344
    142c:	6e515249 	cdpvs	2, 5, cr5, cr1, cr9, {2}
    1430:	49455700 	stmdbmi	r5, {r8, r9, sl, ip, lr}^
    1434:	52495f4d 	subpl	r5, r9, #308	; 0x134
    1438:	52006e51 	andpl	r6, r0, #1296	; 0x510
    143c:	72657365 	rsbvc	r7, r5, #-1811939327	; 0x94000001
    1440:	31646576 	smccc	18006	; 0x4656
    1444:	495f3131 	ldmdbmi	pc, {r0, r4, r5, r8, ip, sp}^	; <UNPREDICTABLE>
    1448:	006e5152 	rsbeq	r5, lr, r2, asr r1
    144c:	384d5750 	stmdacc	sp, {r4, r6, r8, r9, sl, ip, lr}^
    1450:	5152495f 	cmppl	r2, pc, asr r9
    1454:	654c006e 	strbvs	r0, [ip, #-110]	; 0x6e
    1458:	79636167 	stmdbvc	r3!, {r0, r1, r2, r5, r6, r8, sp, lr}^
    145c:	74736146 	ldrbtvc	r6, [r3], #-326	; 0x146
    1460:	5f746e49 	svcpl	0x00746e49
    1464:	6e515249 	cdpvs	2, 5, cr5, cr1, cr9, {2}
    1468:	49504700 	ldmdbmi	r0, {r8, r9, sl, lr}^
    146c:	435f334f 	cmpmi	pc, #1006632961	; 0x3c000001
    1470:	69626d6f 	stmdbvs	r2!, {r0, r1, r2, r3, r5, r6, r8, sl, fp, sp, lr}^
    1474:	5f64656e 	svcpl	0x0064656e
    1478:	335f3631 	cmpcc	pc, #51380224	; 0x3100000
    147c:	52495f31 	subpl	r5, r9, #49, 30	; 0xc4
    1480:	45006e51 	strmi	r6, [r0, #-3665]	; 0xe51
    1484:	5f494153 	svcpl	0x00494153
    1488:	6e515249 	cdpvs	2, 5, cr5, cr1, cr9, {2}
    148c:	415a5400 	cmpmi	sl, r0, lsl #8
    1490:	495f4353 	ldmdbmi	pc, {r0, r1, r4, r6, r8, r9, lr}^	; <UNPREDICTABLE>
    1494:	006e5152 	rsbeq	r5, lr, r2, asr r1
    1498:	5f505850 	svcpl	0x00505850
    149c:	30515249 	subscc	r5, r1, r9, asr #4
    14a0:	5152495f 	cmppl	r2, pc, asr r9
    14a4:	4343006e 	movtmi	r0, #12398	; 0x306e
    14a8:	52495f4d 	subpl	r5, r9, #308	; 0x134
    14ac:	495f3251 	ldmdbmi	pc, {r0, r4, r6, r9, ip, sp}^	; <UNPREDICTABLE>
    14b0:	006e5152 	rsbeq	r5, lr, r2, asr r1
    14b4:	65736552 	ldrbvs	r6, [r3, #-1362]!	; 0x552
    14b8:	64657672 	strbtvs	r7, [r5], #-1650	; 0x672
    14bc:	5f353431 	svcpl	0x00353431
    14c0:	6e515249 	cdpvs	2, 5, cr5, cr1, cr9, {2}
    14c4:	535f4400 	cmppl	pc, #0, 8
    14c8:	444e4550 	strbmi	r4, [lr], #-1360	; 0x550
    14cc:	52494753 	subpl	r4, r9, #21757952	; 0x14c0000
    14d0:	73655200 	cmnvc	r5, #0, 4
    14d4:	65767265 	ldrbvs	r7, [r6, #-613]!	; 0x265
    14d8:	5f343464 	svcpl	0x00343464
    14dc:	6e515249 	cdpvs	2, 5, cr5, cr1, cr9, {2}
    14e0:	495f4400 	ldmdbmi	pc, {sl, lr}^	; <UNPREDICTABLE>
    14e4:	4e455053 	mcrmi	0, 2, r5, cr5, cr3, {2}
    14e8:	53005244 	movwpl	r5, #580	; 0x244
    14ec:	5f324941 	svcpl	0x00324941
    14f0:	6e515249 	cdpvs	2, 5, cr5, cr1, cr9, {2}
    14f4:	67654c00 	strbvs	r4, [r5, -r0, lsl #24]!
    14f8:	49796361 	ldmdbmi	r9!, {r0, r5, r6, r8, r9, sp, lr}^
    14fc:	495f5152 	ldmdbmi	pc, {r1, r4, r6, r8, ip, lr}^	; <UNPREDICTABLE>
    1500:	006e5152 	rsbeq	r5, lr, r2, asr r1
    1504:	554d4f49 	strbpl	r4, [sp, #-3913]	; 0xf49
    1508:	495f4358 	ldmdbmi	pc, {r3, r4, r6, r8, r9, lr}^	; <UNPREDICTABLE>
    150c:	006e5152 	rsbeq	r5, lr, r2, asr r1
    1510:	50534365 	subspl	r4, r3, r5, ror #6
    1514:	495f3149 	ldmdbmi	pc, {r0, r3, r6, r8, ip, sp}^	; <UNPREDICTABLE>
    1518:	006e5152 	rsbeq	r5, lr, r2, asr r1
    151c:	48415f43 	stmdami	r1, {r0, r1, r6, r8, r9, sl, fp, ip, lr}^
    1520:	52495050 	subpl	r5, r9, #80	; 0x50
    1524:	49504700 	ldmdbmi	r0, {r8, r9, sl, lr}^
    1528:	495f314f 	ldmdbmi	pc, {r0, r1, r2, r3, r6, r8, ip, sp}^	; <UNPREDICTABLE>
    152c:	5f32544e 	svcpl	0x0032544e
    1530:	6e515249 	cdpvs	2, 5, cr5, cr1, cr9, {2}
    1534:	4f445700 	svcmi	0x00445700
    1538:	495f3347 	ldmdbmi	pc, {r0, r1, r2, r6, r8, r9, ip, sp}^	; <UNPREDICTABLE>
    153c:	006e5152 	rsbeq	r5, lr, r2, asr r1
    1540:	65707948 	ldrbvs	r7, [r0, #-2376]!	; 0x948
    1544:	73697672 	cmnvc	r9, #119537664	; 0x7200000
    1548:	6954726f 	ldmdbvs	r4, {r0, r1, r2, r3, r5, r6, r9, ip, sp, lr}^
    154c:	5f72656d 	svcpl	0x0072656d
    1550:	6e515249 	cdpvs	2, 5, cr5, cr1, cr9, {2}
    1554:	73655200 	cmnvc	r5, #0, 4
    1558:	65767265 	ldrbvs	r7, [r6, #-613]!	; 0x265
    155c:	32323164 	eorscc	r3, r2, #100, 2
    1560:	5152495f 	cmppl	r2, pc, asr r9
    1564:	6956006e 	ldmdbvs	r6, {r1, r2, r3, r5, r6}^
    1568:	61757472 	cmnvs	r5, r2, ror r4
    156c:	69614d6c 	stmdbvs	r1!, {r2, r3, r5, r6, r8, sl, fp, lr}^
    1570:	6e65746e 	cdpvs	4, 6, cr7, cr5, cr14, {3}
    1574:	65636e61 	strbvs	r6, [r3, #-3681]!	; 0xe61
    1578:	5152495f 	cmppl	r2, pc, asr r9
    157c:	6552006e 	ldrbvs	r0, [r2, #-110]	; 0x6e
    1580:	76726573 			; <UNDEFINED> instruction: 0x76726573
    1584:	33376465 	teqcc	r7, #1694498816	; 0x65000000
    1588:	5152495f 	cmppl	r2, pc, asr r9
    158c:	5f44006e 	svcpl	0x0044006e
    1590:	52494753 	subpl	r4, r9, #21757952	; 0x14c0000
    1594:	454e4500 	strbmi	r4, [lr, #-1280]	; 0x500
    1598:	315f3154 	cmpcc	pc, r4, asr r1	; <UNPREDICTABLE>
    159c:	5f383835 	svcpl	0x00383835
    15a0:	6e515249 	cdpvs	2, 5, cr5, cr1, cr9, {2}
    15a4:	666f5300 	strbtvs	r5, [pc], -r0, lsl #6
    15a8:	72617774 	rsbvc	r7, r1, #116, 14	; 0x1d00000
    15ac:	495f3465 	ldmdbmi	pc, {r0, r2, r5, r6, sl, ip, sp}^	; <UNPREDICTABLE>
    15b0:	006e5152 	rsbeq	r5, lr, r2, asr r1
    15b4:	74666f53 	strbtvc	r6, [r6], #-3923	; 0xf53
    15b8:	65726177 	ldrbvs	r6, [r2, #-375]!	; 0x177
    15bc:	495f3231 	ldmdbmi	pc, {r0, r4, r5, r9, ip, sp}^	; <UNPREDICTABLE>
    15c0:	006e5152 	rsbeq	r5, lr, r2, asr r1
    15c4:	33494153 	movtcc	r4, #37203	; 0x9153
    15c8:	5f58525f 	svcpl	0x0058525f
    15cc:	6e515249 	cdpvs	2, 5, cr5, cr1, cr9, {2}
    15d0:	43535400 	cmpmi	r3, #0, 8
    15d4:	5152495f 	cmppl	r2, pc, asr r9
    15d8:	4e52006e 	cdpmi	0, 5, cr0, cr2, cr14, {3}
    15dc:	495f4247 	ldmdbmi	pc, {r0, r1, r2, r6, r9, lr}^	; <UNPREDICTABLE>
    15e0:	006e5152 	rsbeq	r5, lr, r2, asr r1
    15e4:	54454e45 	strbpl	r4, [r5], #-3653	; 0xe45
    15e8:	52495f32 	subpl	r5, r9, #50, 30	; 0xc8
    15ec:	55006e51 	strpl	r6, [r0, #-3665]	; 0xe51
    15f0:	43484453 	movtmi	r4, #33875	; 0x8453
    15f4:	52495f31 	subpl	r5, r9, #49, 30	; 0xc4
    15f8:	47006e51 	smlsdmi	r0, r1, lr, r6
    15fc:	314f4950 	cmpcc	pc, r0, asr r9	; <UNPREDICTABLE>
    1600:	544e495f 	strbpl	r4, [lr], #-2399	; 0x95f
    1604:	52495f37 	subpl	r5, r9, #55, 30	; 0xdc
    1608:	52006e51 	andpl	r6, r0, #1296	; 0x510
    160c:	72657365 	rsbvc	r7, r5, #-1811939327	; 0x94000001
    1610:	31646576 	smccc	18006	; 0x4656
    1614:	495f3133 	ldmdbmi	pc, {r0, r1, r4, r5, r8, ip, sp}^	; <UNPREDICTABLE>
    1618:	006e5152 	rsbeq	r5, lr, r2, asr r1
    161c:	32545047 	subscc	r5, r4, #71	; 0x47
    1620:	5152495f 	cmppl	r2, pc, asr r9
    1624:	5045006e 	subpl	r0, r5, lr, rrx
    1628:	5f315449 	svcpl	0x00315449
    162c:	6e515249 	cdpvs	2, 5, cr5, cr1, cr9, {2}
    1630:	55534300 	ldrbpl	r4, [r3, #-768]	; 0x300
    1634:	5152495f 	cmppl	r2, pc, asr r9
    1638:	6956006e 	ldmdbvs	r6, {r1, r2, r3, r5, r6}^
    163c:	61757472 	cmnvs	r5, r2, ror r4
    1640:	6d69546c 	cfstrdvs	mvd5, [r9, #-432]!	; 0xfffffe50
    1644:	495f7265 	ldmdbmi	pc, {r0, r2, r5, r6, r9, ip, sp, lr}^	; <UNPREDICTABLE>
    1648:	006e5152 	rsbeq	r5, lr, r2, asr r1
    164c:	53495f44 	movtpl	r5, #40772	; 0x9f44
    1650:	42414e45 	submi	r4, r1, #1104	; 0x450
    1654:	0052454c 	subseq	r4, r2, ip, asr #10
    1658:	49505f44 	ldmdbmi	r0, {r2, r6, r8, r9, sl, fp, ip, lr}^
    165c:	00305244 	eorseq	r5, r0, r4, asr #4
    1660:	49505f44 	ldmdbmi	r0, {r2, r6, r8, r9, sl, fp, ip, lr}^
    1664:	00315244 	eorseq	r5, r1, r4, asr #4
    1668:	49505f44 	ldmdbmi	r0, {r2, r6, r8, r9, sl, fp, ip, lr}^
    166c:	00325244 	eorseq	r5, r2, r4, asr #4
    1670:	49505f44 	ldmdbmi	r0, {r2, r6, r8, r9, sl, fp, ip, lr}^
    1674:	00335244 	eorseq	r5, r3, r4, asr #4
    1678:	49505f44 	ldmdbmi	r0, {r2, r6, r8, r9, sl, fp, ip, lr}^
    167c:	00345244 	eorseq	r5, r4, r4, asr #4
    1680:	49505f44 	ldmdbmi	r0, {r2, r6, r8, r9, sl, fp, ip, lr}^
    1684:	00355244 	eorseq	r5, r5, r4, asr #4
    1688:	49505f44 	ldmdbmi	r0, {r2, r6, r8, r9, sl, fp, ip, lr}^
    168c:	00365244 	eorseq	r5, r6, r4, asr #4
    1690:	49505f44 	ldmdbmi	r0, {r2, r6, r8, r9, sl, fp, ip, lr}^
    1694:	00375244 	eorseq	r5, r7, r4, asr #4
    1698:	49495f43 	stmdbmi	r9, {r0, r1, r6, r8, r9, sl, fp, ip, lr}^
    169c:	47005244 	strmi	r5, [r0, -r4, asr #4]
    16a0:	344f4950 	strbcc	r4, [pc], #-2384	; 16a8 <_start-0x877fe958>
    16a4:	6d6f435f 	stclvs	3, cr4, [pc, #-380]!	; 1530 <_start-0x877fead0>
    16a8:	656e6962 	strbvs	r6, [lr, #-2402]!	; 0x962
    16ac:	5f305f64 	svcpl	0x00305f64
    16b0:	495f3531 	ldmdbmi	pc, {r0, r4, r5, r8, sl, ip, sp}^	; <UNPREDICTABLE>
    16b4:	006e5152 	rsbeq	r5, lr, r2, asr r1
    16b8:	6f697067 	svcvs	0x00697067
    16bc:	6f695f31 	svcvs	0x00695f31
    16c0:	695f3831 	ldmdbvs	pc, {r0, r4, r5, fp, ip, sp}^	; <UNPREDICTABLE>
    16c4:	61687172 	smcvs	34578	; 0x8712
    16c8:	656c646e 	strbvs	r6, [ip, #-1134]!	; 0x46e
    16cc:	4e414300 	cdpmi	3, 4, cr4, cr1, cr0, {0}
    16d0:	52495f32 	subpl	r5, r9, #50, 30	; 0xc8
    16d4:	53006e51 	movwpl	r6, #3665	; 0xe51
    16d8:	435f4352 	cmpmi	pc, #1207959553	; 0x48000001
    16dc:	69626d6f 	stmdbvs	r2!, {r0, r1, r2, r3, r5, r6, r8, sl, fp, sp, lr}^
    16e0:	5f64656e 	svcpl	0x0064656e
    16e4:	6e515249 	cdpvs	2, 5, cr5, cr1, cr9, {2}
    16e8:	666f5300 	strbtvs	r5, [pc], -r0, lsl #6
    16ec:	72617774 	rsbvc	r7, r1, #116, 14	; 0x1d00000
    16f0:	495f3965 	ldmdbmi	pc, {r0, r2, r5, r6, r8, fp, ip, sp}^	; <UNPREDICTABLE>
    16f4:	006e5152 	rsbeq	r5, lr, r2, asr r1
    16f8:	354d5750 	strbcc	r5, [sp, #-1872]	; 0x750
    16fc:	5152495f 	cmppl	r2, pc, asr r9
    1700:	4155006e 	cmpmi	r5, lr, rrx
    1704:	5f385452 	svcpl	0x00385452
    1708:	6e515249 	cdpvs	2, 5, cr5, cr1, cr9, {2}
    170c:	415f4300 	cmpmi	pc, r0, lsl #6
    1710:	00305250 	eorseq	r5, r0, r0, asr r2
    1714:	5f425355 	svcpl	0x00425355
    1718:	3247544f 	subcc	r5, r7, #1325400064	; 0x4f000000
    171c:	5152495f 	cmppl	r2, pc, asr r9
    1720:	6552006e 	ldrbvs	r0, [r2, #-110]	; 0x6e
    1724:	76726573 			; <UNDEFINED> instruction: 0x76726573
    1728:	30316465 	eorscc	r6, r1, r5, ror #8
    172c:	52495f39 	subpl	r5, r9, #57, 30	; 0xe4
    1730:	44006e51 	strmi	r6, [r0], #-3665	; 0xe51
    1734:	4950535f 	ldmdbmi	r0, {r0, r1, r2, r3, r4, r6, r8, r9, ip, lr}^
    1738:	52005253 	andpl	r5, r0, #805306373	; 0x30000005
    173c:	72657365 	rsbvc	r7, r5, #-1811939327	; 0x94000001
    1740:	31646576 	smccc	18006	; 0x4656
    1744:	495f3635 	ldmdbmi	pc, {r0, r2, r4, r5, r9, sl, ip, sp}^	; <UNPREDICTABLE>
    1748:	006e5152 	rsbeq	r5, lr, r2, asr r1
    174c:	43495f44 	movtmi	r5, #40772	; 0x9f44
    1750:	00524746 	subseq	r4, r2, r6, asr #14
    1754:	33494153 	movtcc	r4, #37203	; 0x9153
    1758:	5f58545f 	svcpl	0x0058545f
    175c:	6e515249 	cdpvs	2, 5, cr5, cr1, cr9, {2}
    1760:	53436500 	movtpl	r6, #13568	; 0x3500
    1764:	5f334950 	svcpl	0x00334950
    1768:	6e515249 	cdpvs	2, 5, cr5, cr1, cr9, {2}
    176c:	43444100 	movtmi	r4, #16640	; 0x4100
    1770:	4348355f 	movtmi	r3, #34143	; 0x855f
    1774:	5152495f 	cmppl	r2, pc, asr r9
    1778:	4143006e 	cmpmi	r3, lr, rrx
    177c:	4a5f4d41 	bmi	17d4c88 <_start-0x8602b378>
    1780:	525f626f 	subspl	r6, pc, #-268435450	; 0xf0000006
    1784:	31676e69 	cmncc	r7, r9, ror #28
    1788:	5152495f 	cmppl	r2, pc, asr r9
    178c:	4552006e 	ldrbmi	r0, [r2, #-110]	; 0x6e
    1790:	56524553 			; <UNDEFINED> instruction: 0x56524553
    1794:	00304445 	eorseq	r4, r0, r5, asr #8
    1798:	45534552 	ldrbmi	r4, [r3, #-1362]	; 0x552
    179c:	44455652 	strbmi	r5, [r5], #-1618	; 0x652
    17a0:	45520031 	ldrbmi	r0, [r2, #-49]	; 0x31
    17a4:	56524553 			; <UNDEFINED> instruction: 0x56524553
    17a8:	00324445 	eorseq	r4, r2, r5, asr #8
    17ac:	45534552 	ldrbmi	r4, [r3, #-1362]	; 0x552
    17b0:	44455652 	strbmi	r5, [r5], #-1618	; 0x652
    17b4:	45520033 	ldrbmi	r0, [r2, #-51]	; 0x33
    17b8:	56524553 			; <UNDEFINED> instruction: 0x56524553
    17bc:	00344445 	eorseq	r4, r4, r5, asr #8
    17c0:	45534552 	ldrbmi	r4, [r3, #-1362]	; 0x552
    17c4:	44455652 	strbmi	r5, [r5], #-1618	; 0x652
    17c8:	45520035 	ldrbmi	r0, [r2, #-53]	; 0x35
    17cc:	56524553 			; <UNDEFINED> instruction: 0x56524553
    17d0:	00364445 	eorseq	r4, r6, r5, asr #8
    17d4:	45534552 	ldrbmi	r4, [r3, #-1362]	; 0x552
    17d8:	44455652 	strbmi	r5, [r5], #-1618	; 0x652
    17dc:	5f440037 	svcpl	0x00440037
    17e0:	53495050 	movtpl	r5, #36944	; 0x9050
    17e4:	45520052 	ldrbmi	r0, [r2, #-82]	; 0x52
    17e8:	56524553 			; <UNDEFINED> instruction: 0x56524553
    17ec:	00394445 	eorseq	r4, r9, r5, asr #8
    17f0:	74666f53 	strbtvc	r6, [r6], #-3923	; 0xf53
    17f4:	65726177 	ldrbvs	r6, [r2, #-375]!	; 0x177
    17f8:	495f3431 	ldmdbmi	pc, {r0, r4, r5, sl, ip, sp}^	; <UNPREDICTABLE>
    17fc:	006e5152 	rsbeq	r5, lr, r2, asr r1
    1800:	4f495047 	svcmi	0x00495047
    1804:	6f435f35 	svcvs	0x00435f35
    1808:	6e69626d 	cdpvs	2, 6, cr6, cr9, cr13, {3}
    180c:	315f6465 	cmpcc	pc, r5, ror #8
    1810:	31335f36 	teqcc	r3, r6, lsr pc
    1814:	5152495f 	cmppl	r2, pc, asr r9
    1818:	6f53006e 	svcvs	0x0053006e
    181c:	61777466 	cmnvs	r7, r6, ror #8
    1820:	5f316572 	svcpl	0x00316572
    1824:	6e515249 	cdpvs	2, 5, cr5, cr1, cr9, {2}
    1828:	495f4300 	ldmdbmi	pc, {r8, r9, lr}^	; <UNPREDICTABLE>
    182c:	43005241 	movwmi	r5, #577	; 0x241
    1830:	4f45415f 	svcmi	0x0045415f
    1834:	43005249 	movwmi	r5, #585	; 0x249
    1838:	41534e5f 	cmpmi	r3, pc, asr lr
    183c:	00305250 	eorseq	r5, r0, r0, asr r2
    1840:	52544353 	subspl	r4, r4, #1275068417	; 0x4c000001
    1844:	5152495f 	cmppl	r2, pc, asr r9
    1848:	52495f30 	subpl	r5, r9, #48, 30	; 0xc0
    184c:	44006e51 	strmi	r6, [r0], #-3665	; 0xe51
    1850:	5247495f 	subpl	r4, r7, #1556480	; 0x17c000
    1854:	5250554f 	subspl	r5, r0, #331350016	; 0x13c00000
    1858:	73655200 	cmnvc	r5, #0, 4
    185c:	65767265 	ldrbvs	r7, [r6, #-613]!	; 0x265
    1860:	35323164 	ldrcc	r3, [r2, #-356]!	; 0x164
    1864:	5152495f 	cmppl	r2, pc, asr r9
    1868:	5f43006e 	svcpl	0x0043006e
    186c:	52414941 	subpl	r4, r1, #1064960	; 0x104000
    1870:	49504700 	ldmdbmi	r0, {r8, r9, sl, lr}^
    1874:	495f314f 	ldmdbmi	pc, {r0, r1, r2, r3, r6, r8, ip, sp}^	; <UNPREDICTABLE>
    1878:	5f34544e 	svcpl	0x0034544e
    187c:	6e515249 	cdpvs	2, 5, cr5, cr1, cr9, {2}
    1880:	52415500 	subpl	r5, r1, #0, 10
    1884:	495f3554 	ldmdbmi	pc, {r2, r4, r6, r8, sl, ip, sp}^	; <UNPREDICTABLE>
    1888:	006e5152 	rsbeq	r5, lr, r2, asr r1
    188c:	5f50504b 	svcpl	0x0050504b
    1890:	6e515249 	cdpvs	2, 5, cr5, cr1, cr9, {2}
    1894:	495f4400 	ldmdbmi	pc, {sl, lr}^	; <UNPREDICTABLE>
    1898:	414e4543 	cmpmi	lr, r3, asr #10
    189c:	52454c42 	subpl	r4, r5, #16896	; 0x4200
    18a0:	495f4400 	ldmdbmi	pc, {sl, lr}^	; <UNPREDICTABLE>
    18a4:	4e455043 	cdpmi	0, 4, cr5, cr5, cr3, {2}
    18a8:	50005244 	andpl	r5, r0, r4, asr #4
    18ac:	5f374d57 	svcpl	0x00374d57
    18b0:	6e515249 	cdpvs	2, 5, cr5, cr1, cr9, {2}
    18b4:	50434400 	subpl	r4, r3, r0, lsl #8
    18b8:	5152495f 	cmppl	r2, pc, asr r9
    18bc:	5152495f 	cmppl	r2, pc, asr r9
    18c0:	6552006e 	ldrbvs	r0, [r2, #-110]	; 0x6e
    18c4:	76726573 			; <UNDEFINED> instruction: 0x76726573
    18c8:	32316465 	eorscc	r6, r1, #1694498816	; 0x65000000
    18cc:	52495f34 	subpl	r5, r9, #52, 30	; 0xd0
    18d0:	47006e51 	smlsdmi	r0, r1, lr, r6
    18d4:	324f4950 	subcc	r4, pc, #80, 18	; 0x140000
    18d8:	6d6f435f 	stclvs	3, cr4, [pc, #-380]!	; 1764 <_start-0x877fe89c>
    18dc:	656e6962 	strbvs	r6, [lr, #-2402]!	; 0x962
    18e0:	36315f64 	ldrtcc	r5, [r1], -r4, ror #30
    18e4:	5f31335f 	svcpl	0x0031335f
    18e8:	6e515249 	cdpvs	2, 5, cr5, cr1, cr9, {2}
    18ec:	50414400 	subpl	r4, r1, r0, lsl #8
    18f0:	5152495f 	cmppl	r2, pc, asr r9
    18f4:	4152006e 	cmpmi	r2, lr, rrx
    18f8:	4e414e57 	mcrmi	14, 2, r4, cr1, cr7, {2}
    18fc:	50475f44 	subpl	r5, r7, r4, asr #30
    1900:	495f494d 	ldmdbmi	pc, {r0, r2, r3, r6, r8, fp, lr}^	; <UNPREDICTABLE>
    1904:	006e5152 	rsbeq	r5, lr, r2, asr r1
    1908:	414d4453 	cmpmi	sp, r3, asr r4
    190c:	5152495f 	cmppl	r2, pc, asr r9
    1910:	6f53006e 	svcvs	0x0053006e
    1914:	61777466 	cmnvs	r7, r6, ror #8
    1918:	5f366572 	svcpl	0x00366572
    191c:	6e515249 	cdpvs	2, 5, cr5, cr1, cr9, {2}
    1920:	43324900 	teqmi	r2, #0, 18
    1924:	52495f32 	subpl	r5, r9, #50, 30	; 0xc8
    1928:	50006e51 	andpl	r6, r0, r1, asr lr
    192c:	5f324d57 	svcpl	0x00324d57
    1930:	6e515249 	cdpvs	2, 5, cr5, cr1, cr9, {2}
    1934:	4d434300 	stclmi	3, cr4, [r3, #-0]
    1938:	5152495f 	cmppl	r2, pc, asr r9
    193c:	52495f31 	subpl	r5, r9, #49, 30	; 0xc4
    1940:	52006e51 	andpl	r6, r0, #1296	; 0x510
    1944:	72657365 	rsbvc	r7, r5, #-1811939327	; 0x94000001
    1948:	31646576 	smccc	18006	; 0x4656
    194c:	495f3031 	ldmdbmi	pc, {r0, r4, r5, ip, sp}^	; <UNPREDICTABLE>
    1950:	006e5152 	rsbeq	r5, lr, r2, asr r1
    1954:	5f555043 	svcpl	0x00555043
    1958:	5f495443 	svcpl	0x00495443
    195c:	67697254 			; <UNDEFINED> instruction: 0x67697254
    1960:	5f726567 	svcpl	0x00726567
    1964:	6e515249 	cdpvs	2, 5, cr5, cr1, cr9, {2}
    1968:	73655200 	cmnvc	r5, #0, 4
    196c:	65767265 	ldrbvs	r7, [r6, #-613]!	; 0x265
    1970:	38353164 	ldmdacc	r5!, {r2, r5, r6, r8, ip, sp}
    1974:	5152495f 	cmppl	r2, pc, asr r9
    1978:	4153006e 	cmpmi	r3, lr, rrx
    197c:	495f3149 	ldmdbmi	pc, {r0, r3, r6, r8, ip, sp}^	; <UNPREDICTABLE>
    1980:	006e5152 	rsbeq	r5, lr, r2, asr r1
    1984:	746c6966 	strbtvc	r6, [ip], #-2406	; 0x966
    1988:	69747265 	ldmdbvs	r4!, {r0, r2, r5, r6, r9, ip, sp, lr}^
    198c:	5f72656d 	svcpl	0x0072656d
    1990:	74696e69 	strbtvc	r6, [r9], #-3689	; 0xe69
    1994:	666f5300 	strbtvs	r5, [pc], -r0, lsl #6
    1998:	72617774 	rsbvc	r7, r1, #116, 14	; 0x1d00000
    199c:	5f303165 	svcpl	0x00303165
    19a0:	6e515249 	cdpvs	2, 5, cr5, cr1, cr9, {2}
    19a4:	454e4500 	strbmi	r4, [lr, #-1280]	; 0x500
    19a8:	495f3154 	ldmdbmi	pc, {r2, r4, r6, r8, ip, sp}^	; <UNPREDICTABLE>
    19ac:	006e5152 	rsbeq	r5, lr, r2, asr r1
    19b0:	54495f44 	strbpl	r5, [r9], #-3908	; 0xf44
    19b4:	45475241 	strbmi	r5, [r7, #-577]	; 0x241
    19b8:	00525354 	subseq	r5, r2, r4, asr r3
    19bc:	50435f44 	subpl	r5, r3, r4, asr #30
    19c0:	53444e45 	movtpl	r4, #20037	; 0x4e45
    19c4:	00524947 	subseq	r4, r2, r7, asr #18
    19c8:	4f495047 	svcmi	0x00495047
    19cc:	6f435f32 	svcvs	0x00435f32
    19d0:	6e69626d 	cdpvs	2, 6, cr6, cr9, cr13, {3}
    19d4:	305f6465 	subscc	r6, pc, r5, ror #8
    19d8:	5f35315f 	svcpl	0x0035315f
    19dc:	6e515249 	cdpvs	2, 5, cr5, cr1, cr9, {2}
    19e0:	53455200 	movtpl	r5, #20992	; 0x5200
    19e4:	45565245 	ldrbmi	r5, [r6, #-581]	; 0x245
    19e8:	00303144 	eorseq	r3, r0, r4, asr #2
    19ec:	45534552 	ldrbmi	r4, [r3, #-1362]	; 0x552
    19f0:	44455652 	strbmi	r5, [r5], #-1618	; 0x652
    19f4:	52003131 	andpl	r3, r0, #1073741836	; 0x4000000c
    19f8:	52455345 	subpl	r5, r5, #335544321	; 0x14000001
    19fc:	31444556 	cmpcc	r4, r6, asr r5
    1a00:	45520032 	ldrbmi	r0, [r2, #-50]	; 0x32
    1a04:	56524553 			; <UNDEFINED> instruction: 0x56524553
    1a08:	33314445 	teqcc	r1, #1157627904	; 0x45000000
    1a0c:	53455200 	movtpl	r5, #20992	; 0x5200
    1a10:	45565245 	ldrbmi	r5, [r6, #-581]	; 0x245
    1a14:	00343144 	eorseq	r3, r4, r4, asr #2
    1a18:	45534552 	ldrbmi	r4, [r3, #-1362]	; 0x552
    1a1c:	44455652 	strbmi	r5, [r5], #-1618	; 0x652
    1a20:	52003531 	andpl	r3, r0, #205520896	; 0xc400000
    1a24:	52455345 	subpl	r5, r5, #335544321	; 0x14000001
    1a28:	31444556 	cmpcc	r4, r6, asr r5
    1a2c:	45520036 	ldrbmi	r0, [r2, #-54]	; 0x36
    1a30:	56524553 			; <UNDEFINED> instruction: 0x56524553
    1a34:	37314445 	ldrcc	r4, [r1, -r5, asr #8]!
    1a38:	53455200 	movtpl	r5, #20992	; 0x5200
    1a3c:	45565245 	ldrbmi	r5, [r6, #-581]	; 0x245
    1a40:	00383144 	eorseq	r3, r8, r4, asr #2
    1a44:	74666f53 	strbtvc	r6, [r6], #-3923	; 0xf53
    1a48:	65726177 	ldrbvs	r6, [r2, #-375]!	; 0x177
    1a4c:	495f3131 	ldmdbmi	pc, {r0, r4, r5, r8, ip, sp}^	; <UNPREDICTABLE>
    1a50:	006e5152 	rsbeq	r5, lr, r2, asr r1
    1a54:	54524155 	ldrbpl	r4, [r2], #-341	; 0x155
    1a58:	52495f32 	subpl	r5, r9, #50, 30	; 0xc8
    1a5c:	47006e51 	smlsdmi	r0, r1, lr, r6
    1a60:	5f315450 	svcpl	0x00315450
    1a64:	6e515249 	cdpvs	2, 5, cr5, cr1, cr9, {2}
    1a68:	73655200 	cmnvc	r5, #0, 4
    1a6c:	65767265 	ldrbvs	r7, [r6, #-613]!	; 0x265
    1a70:	34343164 	ldrtcc	r3, [r4], #-356	; 0x164
    1a74:	5152495f 	cmppl	r2, pc, asr r9
    1a78:	5355006e 	cmppl	r5, #110	; 0x6e
    1a7c:	48505f42 	ldmdami	r0, {r1, r6, r8, r9, sl, fp, ip, lr}^
    1a80:	495f3259 	ldmdbmi	pc, {r0, r3, r4, r6, r9, ip, sp}^	; <UNPREDICTABLE>
    1a84:	006e5152 	rsbeq	r5, lr, r2, asr r1
    1a88:	50425f43 	subpl	r5, r2, r3, asr #30
    1a8c:	50470052 	subpl	r0, r7, r2, asr r0
    1a90:	5f314f49 	svcpl	0x00314f49
    1a94:	36544e49 	ldrbcc	r4, [r4], -r9, asr #28
    1a98:	5152495f 	cmppl	r2, pc, asr r9
    1a9c:	5047006e 	subpl	r0, r7, lr, rrx
    1aa0:	5f354f49 	svcpl	0x00354f49
    1aa4:	626d6f43 	rsbvs	r6, sp, #268	; 0x10c
    1aa8:	64656e69 	strbtvs	r6, [r5], #-3689	; 0xe69
    1aac:	315f305f 	cmpcc	pc, pc, asr r0	; <UNPREDICTABLE>
    1ab0:	52495f35 	subpl	r5, r9, #53, 30	; 0xd4
    1ab4:	65006e51 	strvs	r6, [r0, #-3665]	; 0xe51
    1ab8:	5f697478 	svcpl	0x00697478
    1abc:	74696e69 	strbtvc	r6, [r9], #-3689	; 0xe69
    1ac0:	49504700 	ldmdbmi	r0, {r8, r9, sl, lr}^
    1ac4:	495f314f 	ldmdbmi	pc, {r0, r1, r2, r3, r6, r8, ip, sp}^	; <UNPREDICTABLE>
    1ac8:	5f31544e 	svcpl	0x0031544e
    1acc:	6e515249 	cdpvs	2, 5, cr5, cr1, cr9, {2}
    1ad0:	4f445700 	svcmi	0x00445700
    1ad4:	495f3247 	ldmdbmi	pc, {r0, r1, r2, r6, r9, ip, sp}^	; <UNPREDICTABLE>
    1ad8:	006e5152 	rsbeq	r5, lr, r2, asr r1
    1adc:	50495f44 	subpl	r5, r9, r4, asr #30
    1ae0:	524f4952 	subpl	r4, pc, #1343488	; 0x148000
    1ae4:	52595449 	subspl	r5, r9, #1224736768	; 0x49000000
    1ae8:	554d5000 	strbpl	r5, [sp, #-0]
    1aec:	5152495f 	cmppl	r2, pc, asr r9
    1af0:	52495f32 	subpl	r5, r9, #50, 30	; 0xc8
    1af4:	53006e51 	movwpl	r6, #3665	; 0xe51
    1af8:	7774666f 	ldrbvc	r6, [r4, -pc, ror #12]!
    1afc:	38657261 	stmdacc	r5!, {r0, r5, r6, r9, ip, sp, lr}^
    1b00:	5152495f 	cmppl	r2, pc, asr r9
    1b04:	5f43006e 	svcpl	0x0043006e
    1b08:	52504241 	subspl	r4, r0, #268435460	; 0x10000004
    1b0c:	4d575000 	ldclmi	0, cr5, [r7, #-0]
    1b10:	52495f34 	subpl	r5, r9, #52, 30	; 0xd0
    1b14:	43006e51 	movwmi	r6, #3665	; 0xe51
    1b18:	494f455f 	stmdbmi	pc, {r0, r1, r2, r3, r4, r6, r8, sl, lr}^	; <UNPREDICTABLE>
    1b1c:	41550052 	cmpmi	r5, r2, asr r0
    1b20:	5f375452 	svcpl	0x00375452
    1b24:	6e515249 	cdpvs	2, 5, cr5, cr1, cr9, {2}
    1b28:	435f4400 	cmpmi	pc, #0, 8
    1b2c:	00524c54 	subseq	r4, r2, r4, asr ip
    1b30:	49445053 	stmdbmi	r4, {r0, r1, r4, r6, ip, lr}^
    1b34:	52495f46 	subpl	r5, r9, #280	; 0x118
    1b38:	53006e51 	movwpl	r6, #3665	; 0xe51
    1b3c:	7774666f 	ldrbvc	r6, [r4, -pc, ror #12]!
    1b40:	33657261 	cmncc	r5, #268435462	; 0x10000006
    1b44:	5152495f 	cmppl	r2, pc, asr r9
    1b48:	5f5f006e 	svcpl	0x005f006e
    1b4c:	00747364 	rsbseq	r7, r4, r4, ror #6
    1b50:	54435f43 	strbpl	r5, [r3], #-3907	; 0xf43
    1b54:	5200524c 	andpl	r5, r0, #76, 4	; 0xc0000004
    1b58:	72657365 	rsbvc	r7, r5, #-1811939327	; 0x94000001
    1b5c:	31646576 	smccc	18006	; 0x4656
    1b60:	495f3535 	ldmdbmi	pc, {r0, r2, r4, r5, r8, sl, ip, sp}^	; <UNPREDICTABLE>
    1b64:	006e5152 	rsbeq	r5, lr, r2, asr r1
    1b68:	63617266 	cmnvs	r1, #1610612742	; 0x60000006
    1b6c:	49504500 	ldmdbmi	r0, {r8, sl, lr}^
    1b70:	79545f54 	ldmdbvc	r4, {r2, r4, r6, r8, r9, sl, fp, ip, lr}^
    1b74:	64006570 	strvs	r6, [r0], #-1392	; 0x570
    1b78:	62617369 	rsbvs	r7, r1, #-1543503871	; 0xa4000001
    1b7c:	655f656c 	ldrbvs	r6, [pc, #-1388]	; 1618 <_start-0x877fe9e8>
    1b80:	31746970 	cmncc	r4, r0, ror r9
    1b84:	69706500 	ldmdbvs	r0!, {r8, sl, sp, lr}^
    1b88:	6e695f74 	mcrvs	15, 3, r5, cr9, cr4, {3}
    1b8c:	43007469 	movwmi	r7, #1129	; 0x469
    1b90:	0052504d 	subseq	r5, r2, sp, asr #32
    1b94:	74697065 	strbtvc	r7, [r9], #-101	; 0x65
    1b98:	72695f31 	rsbvc	r5, r9, #49, 30	; 0xc4
    1b9c:	6e616871 	mcrvs	8, 3, r6, cr1, cr1, {3}
    1ba0:	00656c64 	rsbeq	r6, r5, r4, ror #24
    1ba4:	2f707362 	svccs	0x00707362
    1ba8:	74697065 	strbtvc	r7, [r9], #-101	; 0x65
    1bac:	7073622f 	rsbsvc	r6, r3, pc, lsr #4
    1bb0:	6970655f 	ldmdbvs	r0!, {r0, r1, r2, r3, r4, r6, r8, sl, sp, lr}^
    1bb4:	00632e74 	rsbeq	r2, r3, r4, ror lr
    1bb8:	74736572 	ldrbtvc	r6, [r3], #-1394	; 0x572
    1bbc:	5f747261 	svcpl	0x00747261
    1bc0:	74697065 	strbtvc	r7, [r9], #-101	; 0x65
    1bc4:	536b0031 	cmnpl	fp, #49	; 0x31
    1bc8:	75746174 	ldrbvc	r6, [r4, #-372]!	; 0x174
    1bcc:	6f724773 	svcvs	0x00724773
    1bd0:	465f7075 			; <UNDEFINED> instruction: 0x465f7075
    1bd4:	4958454c 	ldmdbmi	r8, {r2, r3, r6, r8, sl, lr}^
    1bd8:	41555f4f 	cmpmi	r5, pc, asr #30
    1bdc:	69005452 	stmdbvs	r0, {r1, r4, r6, sl, ip, lr}
    1be0:	4e5f7172 	mrcmi	1, 2, r7, cr15, cr2, {3}
    1be4:	69747365 	ldmdbvs	r4!, {r0, r2, r5, r6, r8, r9, ip, sp, lr}^
    1be8:	6b00676e 	blvs	1b9a8 <_start-0x877e4658>
    1bec:	74617453 	strbtvc	r7, [r1], #-1107	; 0x453
    1bf0:	72477375 	subvc	r7, r7, #-738197503	; 0xd4000001
    1bf4:	5f70756f 	svcpl	0x0070756f
    1bf8:	00494153 	subeq	r4, r9, r3, asr r1
    1bfc:	6174536b 	cmnvs	r4, fp, ror #6
    1c00:	47737574 			; <UNDEFINED> instruction: 0x47737574
    1c04:	70756f72 	rsbsvc	r6, r5, r2, ror pc
    1c08:	5244535f 	subpl	r5, r4, #2080374785	; 0x7c000001
    1c0c:	00434d41 	subeq	r4, r3, r1, asr #26
    1c10:	74737973 	ldrbtvc	r7, [r3], #-2419	; 0x973
    1c14:	725f6d65 	subsvc	r6, pc, #6464	; 0x1940
    1c18:	73696765 	cmnvc	r9, #26476544	; 0x1940000
    1c1c:	5f726574 	svcpl	0x00726574
    1c20:	5f717269 	svcpl	0x00717269
    1c24:	646e6168 	strbtvs	r6, [lr], #-360	; 0x168
    1c28:	5f72656c 	svcpl	0x0072656c
    1c2c:	536b0074 	cmnpl	fp, #116	; 0x74
    1c30:	75746174 	ldrbvc	r6, [r4, #-372]!	; 0x174
    1c34:	6f724773 	svcvs	0x00724773
    1c38:	555f7075 	ldrbpl	r7, [pc, #-117]	; 1bcb <_start-0x877fe435>
    1c3c:	43484453 	movtmi	r4, #33875	; 0x8453
    1c40:	70736200 	rsbsvc	r6, r3, r0, lsl #4
    1c44:	746e692f 	strbtvc	r6, [lr], #-2351	; 0x92f
    1c48:	7073622f 	rsbsvc	r6, r3, pc, lsr #4
    1c4c:	746e695f 	strbtvc	r6, [lr], #-2399	; 0x95f
    1c50:	7300632e 	movwvc	r6, #814	; 0x32e
    1c54:	695f7379 	ldmdbvs	pc, {r0, r3, r4, r5, r6, r8, r9, ip, sp, lr}^	; <UNPREDICTABLE>
    1c58:	685f7172 	ldmdavs	pc, {r1, r4, r5, r6, r8, ip, sp, lr}^	; <UNPREDICTABLE>
    1c5c:	6c646e61 	stclvs	14, cr6, [r4], #-388	; 0xfffffe7c
    1c60:	745f7265 	ldrbvc	r7, [pc], #-613	; 1c68 <_start-0x877fe398>
    1c64:	74536b00 	ldrbvc	r6, [r3], #-2816	; 0xb00
    1c68:	73757461 	cmnvc	r5, #1627389952	; 0x61000000
    1c6c:	756f7247 	strbvc	r7, [pc, #-583]!	; 1a2d <_start-0x877fe5d3>
    1c70:	65475f70 	strbvs	r5, [r7, #-3952]	; 0xf70
    1c74:	6972656e 	ldmdbvs	r2!, {r1, r2, r3, r5, r6, r8, sl, sp, lr}^
    1c78:	536b0063 	cmnpl	fp, #99	; 0x63
    1c7c:	75746174 	ldrbvc	r6, [r4, #-372]!	; 0x174
    1c80:	6f724773 	svcvs	0x00724773
    1c84:	4c5f7075 	mrrcmi	0, 7, r7, pc, cr5	; <UNPREDICTABLE>
    1c88:	6b004354 	blvs	129e0 <_start-0x877ed620>
    1c8c:	74617453 	strbtvc	r7, [r1], #-1107	; 0x453
    1c90:	72477375 	subvc	r7, r7, #-738197503	; 0xd4000001
    1c94:	5f70756f 	svcpl	0x0070756f
    1c98:	54454e45 	strbpl	r4, [r5], #-3653	; 0xe45
    1c9c:	74536b00 	ldrbvc	r6, [r3], #-2816	; 0xb00
    1ca0:	73757461 	cmnvc	r5, #1627389952	; 0x61000000
    1ca4:	756f7247 	strbvc	r7, [pc, #-583]!	; 1a65 <_start-0x877fe59b>
    1ca8:	41555f70 	cmpmi	r5, r0, ror pc
    1cac:	6b005452 	blvs	16dfc <_start-0x877e9204>
    1cb0:	74617453 	strbtvc	r7, [r1], #-1107	; 0x453
    1cb4:	72477375 	subvc	r7, r7, #-738197503	; 0xd4000001
    1cb8:	5f70756f 	svcpl	0x0070756f
    1cbc:	414d4553 	cmpmi	sp, r3, asr r5
    1cc0:	6b003234 	blvs	e598 <_start-0x877f1a68>
    1cc4:	74617453 	strbtvc	r7, [r1], #-1107	; 0x453
    1cc8:	72477375 	subvc	r7, r7, #-738197503	; 0xd4000001
    1ccc:	5f70756f 	svcpl	0x0070756f
    1cd0:	4e41434d 	cdpmi	3, 4, cr4, cr1, cr13, {2}
    1cd4:	74536b00 	ldrbvc	r6, [r3], #-2816	; 0xb00
    1cd8:	73757461 	cmnvc	r5, #1627389952	; 0x61000000
    1cdc:	756f7247 	strbvc	r7, [pc, #-583]!	; 1a9d <_start-0x877fe563>
    1ce0:	504c5f70 	subpl	r5, ip, r0, ror pc
    1ce4:	50535f43 	subspl	r5, r3, r3, asr #30
    1ce8:	536b0049 	cmnpl	fp, #73	; 0x49
    1cec:	75746174 	ldrbvc	r6, [r4, #-372]!	; 0x174
    1cf0:	6f724773 	svcvs	0x00724773
    1cf4:	465f7075 			; <UNDEFINED> instruction: 0x465f7075
    1cf8:	4958454c 	ldmdbmi	r8, {r2, r3, r6, r8, sl, lr}^
    1cfc:	434d5f4f 	movtmi	r5, #57167	; 0xdf4f
    1d00:	44434c55 	strbmi	r4, [r3], #-3157	; 0xc55
    1d04:	43494700 	movtmi	r4, #38656	; 0x9700
    1d08:	696e495f 	stmdbvs	lr!, {r0, r1, r2, r3, r4, r6, r8, fp, lr}^
    1d0c:	735f0074 	cmpvc	pc, #116	; 0x74
    1d10:	695f7379 	ldmdbvs	pc, {r0, r3, r4, r5, r6, r8, r9, ip, sp, lr}^	; <UNPREDICTABLE>
    1d14:	685f7172 	ldmdavs	pc, {r1, r4, r5, r6, r8, ip, sp, lr}^	; <UNPREDICTABLE>
    1d18:	6c646e61 	stclvs	14, cr6, [r4], #-388	; 0xfffffe7c
    1d1c:	6b007265 	blvs	1e6b8 <_start-0x877e1948>
    1d20:	74617453 	strbtvc	r7, [r1], #-1107	; 0x453
    1d24:	72477375 	subvc	r7, r7, #-738197503	; 0xd4000001
    1d28:	5f70756f 	svcpl	0x0070756f
    1d2c:	5f43504c 	svcpl	0x0043504c
    1d30:	00433249 	subeq	r3, r3, r9, asr #4
    1d34:	5f746e69 	svcpl	0x00746e69
    1d38:	74696e69 	strbtvc	r6, [r9], #-3689	; 0xe69
    1d3c:	74536b00 	ldrbvc	r6, [r3], #-2816	; 0xb00
    1d40:	73757461 	cmnvc	r5, #1627389952	; 0x61000000
    1d44:	756f7247 	strbvc	r7, [pc, #-583]!	; 1b05 <_start-0x877fe4fb>
    1d48:	544f5f70 	strbpl	r5, [pc], #-3952	; 1d50 <_start-0x877fe2b0>
    1d4c:	536b0050 	cmnpl	fp, #80	; 0x50
    1d50:	75746174 	ldrbvc	r6, [r4, #-372]!	; 0x174
    1d54:	6f724773 	svcvs	0x00724773
    1d58:	445f7075 	ldrbmi	r7, [pc], #-117	; 1d60 <_start-0x877fe2a0>
    1d5c:	00495053 	subeq	r5, r9, r3, asr r0
    1d60:	6174536b 	cmnvs	r4, fp, ror #6
    1d64:	47737574 			; <UNDEFINED> instruction: 0x47737574
    1d68:	70756f72 	rsbsvc	r6, r5, r2, ror pc
    1d6c:	5053515f 	subspl	r5, r3, pc, asr r1
    1d70:	536b0049 	cmnpl	fp, #73	; 0x49
    1d74:	75746174 	ldrbvc	r6, [r4, #-372]!	; 0x174
    1d78:	6f724773 	svcvs	0x00724773
    1d7c:	4d5f7075 	ldclmi	0, cr7, [pc, #-468]	; 1bb0 <_start-0x877fe450>
    1d80:	0043444d 	subeq	r4, r3, sp, asr #8
    1d84:	72657375 	rsbvc	r7, r5, #-738197503	; 0xd4000001
    1d88:	7261705f 	rsbvc	r7, r1, #95	; 0x5f
    1d8c:	69006d61 	stmdbvs	r0, {r0, r5, r6, r8, sl, fp, sp, lr}
    1d90:	754e746e 	strbvc	r7, [lr, #-1134]	; 0x46e
    1d94:	7269006d 	rsbvc	r0, r9, #109	; 0x6d
    1d98:	62615471 	rsbvs	r5, r1, #1895825408	; 0x71000000
    1d9c:	6b00656c 	blvs	1b354 <_start-0x877e4cac>
    1da0:	74617453 	strbtvc	r7, [r1], #-1107	; 0x453
    1da4:	72477375 	subvc	r7, r7, #-738197503	; 0xd4000001
    1da8:	5f70756f 	svcpl	0x0070756f
    1dac:	50534453 	subspl	r4, r3, r3, asr r4
    1db0:	5f5f0049 	svcpl	0x005f0049
    1db4:	5f746573 	svcpl	0x00746573
    1db8:	52414256 	subpl	r4, r1, #1610612741	; 0x60000005
    1dbc:	74536b00 	ldrbvc	r6, [r3], #-2816	; 0xb00
    1dc0:	73757461 	cmnvc	r5, #1627389952	; 0x61000000
    1dc4:	756f7247 	strbvc	r7, [pc, #-583]!	; 1b85 <_start-0x877fe47b>
    1dc8:	4c465f70 	mcrrmi	15, 7, r5, r6, cr0
    1dcc:	41435845 	cmpmi	r3, r5, asr #16
    1dd0:	536b004e 	cmnpl	fp, #78	; 0x4e
    1dd4:	75746174 	ldrbvc	r6, [r4, #-372]!	; 0x174
    1dd8:	6f724773 	svcvs	0x00724773
    1ddc:	4e5f7075 	mrcmi	0, 2, r7, cr15, cr5, {3}
    1de0:	4649544f 	strbmi	r5, [r9], -pc, asr #8
    1de4:	00524549 	subseq	r4, r2, r9, asr #10
    1de8:	6174536b 	cmnvs	r4, fp, ror #6
    1dec:	47737574 			; <UNDEFINED> instruction: 0x47737574
    1df0:	70756f72 	rsbsvc	r6, r5, r2, ror pc
    1df4:	414d445f 	cmpmi	sp, pc, asr r4
    1df8:	0052474d 	subseq	r4, r2, sp, asr #14
    1dfc:	6174536b 	cmnvs	r4, fp, ror #6
    1e00:	47737574 			; <UNDEFINED> instruction: 0x47737574
    1e04:	70756f72 	rsbsvc	r6, r5, r2, ror pc
    1e08:	454c465f 	strbmi	r4, [ip, #-1631]	; 0x65f
    1e0c:	5f4f4958 	svcpl	0x004f4958
    1e10:	454d4143 	strbmi	r4, [sp, #-323]	; 0x143
    1e14:	6b004152 	blvs	12364 <_start-0x877edc9c>
    1e18:	74617453 	strbtvc	r7, [r1], #-1107	; 0x453
    1e1c:	72477375 	subvc	r7, r7, #-738197503	; 0xd4000001
    1e20:	5f70756f 	svcpl	0x0070756f
    1e24:	45574f50 	ldrbmi	r4, [r7, #-3920]	; 0xf50
    1e28:	536b0052 	cmnpl	fp, #82	; 0x52
    1e2c:	75746174 	ldrbvc	r6, [r4, #-372]!	; 0x174
    1e30:	6f724773 	svcvs	0x00724773
    1e34:	4d5f7075 	ldclmi	0, cr7, [pc, #-468]	; 1c68 <_start-0x877fe398>
    1e38:	44004743 	strmi	r4, [r0], #-1859	; 0x743
    1e3c:	75616665 	strbvc	r6, [r1, #-1637]!	; 0x665
    1e40:	735f746c 	cmpvc	pc, #108, 8	; 0x6c000000
    1e44:	65747379 	ldrbvs	r7, [r4, #-889]!	; 0x379
    1e48:	72695f6d 	rsbvc	r5, r9, #436	; 0x1b4
    1e4c:	61685f71 	smcvs	34289	; 0x85f1
    1e50:	656c646e 	strbvs	r6, [ip, #-1134]!	; 0x46e
    1e54:	00745f72 	rsbseq	r5, r4, r2, ror pc
    1e58:	6174536b 	cmnvs	r4, fp, ror #6
    1e5c:	47737574 			; <UNDEFINED> instruction: 0x47737574
    1e60:	70756f72 	rsbsvc	r6, r5, r2, ror pc
    1e64:	494d445f 	stmdbmi	sp, {r0, r1, r2, r3, r4, r6, sl, lr}^
    1e68:	79730043 	ldmdbvc	r3!, {r0, r1, r6}^
    1e6c:	6d657473 	cfstrdvs	mvd7, [r5, #-460]!	; 0xfffffe34
    1e70:	7172695f 	cmnvc	r2, pc, asr r9
    1e74:	696e695f 	stmdbvs	lr!, {r0, r1, r2, r3, r4, r6, r8, fp, sp, lr}^
    1e78:	73750074 	cmnvc	r5, #116	; 0x74
    1e7c:	61507265 	cmpvs	r0, r5, ror #4
    1e80:	006d6172 	rsbeq	r6, sp, r2, ror r1
    1e84:	6174536b 	cmnvs	r4, fp, ror #6
    1e88:	47737574 			; <UNDEFINED> instruction: 0x47737574
    1e8c:	70756f72 	rsbsvc	r6, r5, r2, ror pc
    1e90:	4844535f 	stmdami	r4, {r0, r1, r2, r3, r4, r6, r8, r9, ip, lr}^
    1e94:	536b0043 	cmnpl	fp, #67	; 0x43
    1e98:	75746174 	ldrbvc	r6, [r4, #-372]!	; 0x174
    1e9c:	6f724773 	svcvs	0x00724773
    1ea0:	445f7075 	ldrbmi	r7, [pc], #-117	; 1ea8 <_start-0x877fe158>
    1ea4:	6b00414d 	blvs	123e0 <_start-0x877edc20>
    1ea8:	74617453 	strbtvc	r7, [r1], #-1107	; 0x453
    1eac:	72477375 	subvc	r7, r7, #-738197503	; 0xd4000001
    1eb0:	5f70756f 	svcpl	0x0070756f
    1eb4:	00495343 	subeq	r5, r9, r3, asr #6
    1eb8:	6174536b 	cmnvs	r4, fp, ror #6
    1ebc:	47737574 			; <UNDEFINED> instruction: 0x47737574
    1ec0:	70756f72 	rsbsvc	r6, r5, r2, ror pc
    1ec4:	4944535f 	stmdbmi	r4, {r0, r1, r2, r3, r4, r6, r8, r9, ip, lr}^
    1ec8:	536b0046 	cmnpl	fp, #70	; 0x46
    1ecc:	75746174 	ldrbvc	r6, [r4, #-372]!	; 0x174
    1ed0:	6f724773 	svcvs	0x00724773
    1ed4:	465f7075 			; <UNDEFINED> instruction: 0x465f7075
    1ed8:	4853414c 	ldmdami	r3, {r2, r3, r6, r8, lr}^
    1edc:	74536b00 	ldrbvc	r6, [r3], #-2816	; 0xb00
    1ee0:	73757461 	cmnvc	r5, #1627389952	; 0x61000000
    1ee4:	756f7247 	strbvc	r7, [pc, #-583]!	; 1ca5 <_start-0x877fe35b>
    1ee8:	4c465f70 	mcrrmi	15, 7, r5, r6, cr0
    1eec:	4f495845 	svcmi	0x00495845
    1ef0:	5332495f 	teqpl	r2, #1556480	; 0x17c000
    1ef4:	73797300 	cmnvc	r9, #0, 6
    1ef8:	5f6d6574 	svcpl	0x006d6574
    1efc:	68717269 	ldmdavs	r1!, {r0, r3, r5, r6, r9, ip, sp, lr}^
    1f00:	6c646e61 	stclvs	14, cr6, [r4], #-388	; 0xfffffe7c
    1f04:	6b007265 	blvs	1e8a0 <_start-0x877e1760>
    1f08:	74617453 	strbtvc	r7, [r1], #-1107	; 0x453
    1f0c:	72477375 	subvc	r7, r7, #-738197503	; 0xd4000001
    1f10:	5f70756f 	svcpl	0x0070756f
    1f14:	52415549 	subpl	r5, r1, #306184192	; 0x12400000
    1f18:	536b0054 	cmnpl	fp, #84	; 0x54
    1f1c:	75746174 	ldrbvc	r6, [r4, #-372]!	; 0x174
    1f20:	6f724773 	svcvs	0x00724773
    1f24:	465f7075 			; <UNDEFINED> instruction: 0x465f7075
    1f28:	4958454c 	ldmdbmi	r8, {r2, r3, r6, r8, sl, lr}^
    1f2c:	50535f4f 	subspl	r5, r3, pc, asr #30
    1f30:	536b0049 	cmnpl	fp, #73	; 0x49
    1f34:	75746174 	ldrbvc	r6, [r4, #-372]!	; 0x174
    1f38:	6f724773 	svcvs	0x00724773
    1f3c:	435f7075 	cmpmi	pc, #117	; 0x75
    1f40:	004d4141 	subeq	r4, sp, r1, asr #2
    1f44:	48717269 	ldmdami	r1!, {r0, r3, r5, r6, r9, ip, sp, lr}^
    1f48:	6c646e61 	stclvs	14, cr6, [r4], #-388	; 0xfffffe7c
    1f4c:	6b007265 	blvs	1e8e8 <_start-0x877e1718>
    1f50:	74617453 	strbtvc	r7, [r1], #-1107	; 0x453
    1f54:	72477375 	subvc	r7, r7, #-738197503	; 0xd4000001
    1f58:	5f70756f 	svcpl	0x0070756f
    1f5c:	00495053 	subeq	r5, r9, r3, asr r0
    1f60:	6174536b 	cmnvs	r4, fp, ror #6
    1f64:	47737574 			; <UNDEFINED> instruction: 0x47737574
    1f68:	70756f72 	rsbsvc	r6, r5, r2, ror pc
    1f6c:	4752545f 			; <UNDEFINED> instruction: 0x4752545f
    1f70:	0058554d 	subseq	r5, r8, sp, asr #10
    1f74:	6174536b 	cmnvs	r4, fp, ror #6
    1f78:	47737574 			; <UNDEFINED> instruction: 0x47737574
    1f7c:	70756f72 	rsbsvc	r6, r5, r2, ror pc
    1f80:	7070415f 	rsbsvc	r4, r0, pc, asr r1
    1f84:	6163696c 	cmnvs	r3, ip, ror #18
    1f88:	6e6f6974 	mcrvs	9, 3, r6, cr15, cr4, {3}
    1f8c:	676e6152 			; <UNDEFINED> instruction: 0x676e6152
    1f90:	61745365 	cmnvs	r4, r5, ror #6
    1f94:	5f007472 	svcpl	0x00007472
    1f98:	74617473 	strbtvc	r7, [r1], #-1139	; 0x473
    1f9c:	675f7375 			; <UNDEFINED> instruction: 0x675f7375
    1fa0:	70756f72 	rsbsvc	r6, r5, r2, ror pc
    1fa4:	536b0073 	cmnpl	fp, #115	; 0x73
    1fa8:	75746174 	ldrbvc	r6, [r4, #-372]!	; 0x174
    1fac:	6f724773 	svcvs	0x00724773
    1fb0:	4c5f7075 	mrrcmi	0, 7, r7, pc, cr5	; <UNPREDICTABLE>
    1fb4:	52415550 	subpl	r5, r1, #80, 10	; 0x14000000
    1fb8:	536b0054 	cmnpl	fp, #84	; 0x54
    1fbc:	75746174 	ldrbvc	r6, [r4, #-372]!	; 0x174
    1fc0:	6f724773 	svcvs	0x00724773
    1fc4:	535f7075 	cmppl	pc, #117	; 0x75
    1fc8:	49464950 	stmdbmi	r6, {r4, r6, r8, fp, lr}^
    1fcc:	74536b00 	ldrbvc	r6, [r3], #-2816	; 0xb00
    1fd0:	73757461 	cmnvc	r5, #1627389952	; 0x61000000
    1fd4:	756f7247 	strbvc	r7, [pc, #-583]!	; 1d95 <_start-0x877fe26b>
    1fd8:	52585f70 	subspl	r5, r8, #112, 30	; 0x1c0
    1fdc:	6b004344 	blvs	12cf4 <_start-0x877ed30c>
    1fe0:	74617453 	strbtvc	r7, [r1], #-1107	; 0x453
    1fe4:	72477375 	subvc	r7, r7, #-738197503	; 0xd4000001
    1fe8:	5f70756f 	svcpl	0x0070756f
    1fec:	58454c46 	stmdapl	r5, {r1, r2, r6, sl, fp, lr}^
    1ff0:	495f4f49 	ldmdbmi	pc, {r0, r3, r6, r8, r9, sl, fp, lr}^	; <UNPREDICTABLE>
    1ff4:	6b004332 	blvs	12cc4 <_start-0x877ed33c>
    1ff8:	74617453 	strbtvc	r7, [r1], #-1107	; 0x453
    1ffc:	72477375 	subvc	r7, r7, #-738197503	; 0xd4000001
    2000:	5f70756f 	svcpl	0x0070756f
    2004:	50534345 	subspl	r4, r3, r5, asr #6
    2008:	536b0049 	cmnpl	fp, #73	; 0x49
    200c:	75746174 	ldrbvc	r6, [r4, #-372]!	; 0x174
    2010:	6f724773 	svcvs	0x00724773
    2014:	495f7075 	ldmdbmi	pc, {r0, r2, r4, r5, r6, ip, sp, lr}^	; <UNPREDICTABLE>
    2018:	6b004332 	blvs	12ce8 <_start-0x877ed318>
    201c:	74617453 	strbtvc	r7, [r1], #-1107	; 0x453
    2020:	72477375 	subvc	r7, r7, #-738197503	; 0xd4000001
    2024:	5f70756f 	svcpl	0x0070756f
    2028:	00533249 	subseq	r3, r3, r9, asr #4
    202c:	6174536b 	cmnvs	r4, fp, ror #6
    2030:	47737574 			; <UNDEFINED> instruction: 0x47737574
    2034:	70756f72 	rsbsvc	r6, r5, r2, ror pc
    2038:	414c465f 	cmpmi	ip, pc, asr r6
    203c:	41494853 	cmpmi	r9, r3, asr r8
    2040:	536b0050 	cmnpl	fp, #80	; 0x50
    2044:	75746174 	ldrbvc	r6, [r4, #-372]!	; 0x174
    2048:	6f724773 	svcvs	0x00724773
    204c:	465f7075 			; <UNDEFINED> instruction: 0x465f7075
    2050:	5358454c 	cmppl	r8, #76, 10	; 0x13000000
    2054:	6b004950 	blvs	1459c <_start-0x877eba64>
    2058:	74617453 	strbtvc	r7, [r1], #-1107	; 0x453
    205c:	72477375 	subvc	r7, r7, #-738197503	; 0xd4000001
    2060:	5f70756f 	svcpl	0x0070756f
    2064:	5053504c 	subspl	r5, r3, ip, asr #32
    2068:	536b0049 	cmnpl	fp, #73	; 0x49
    206c:	75746174 	ldrbvc	r6, [r4, #-372]!	; 0x174
    2070:	6f724773 	svcvs	0x00724773
    2074:	465f7075 			; <UNDEFINED> instruction: 0x465f7075
    2078:	4358454c 	cmpmi	r8, #76, 10	; 0x13000000
    207c:	5f4d4d4f 	svcpl	0x004d4d4f
    2080:	00433249 	subeq	r3, r3, r9, asr #4
    2084:	6174536b 	cmnvs	r4, fp, ror #6
    2088:	47737574 			; <UNDEFINED> instruction: 0x47737574
    208c:	70756f72 	rsbsvc	r6, r5, r2, ror pc
    2090:	6265445f 	rsbvs	r4, r5, #1593835520	; 0x5f000000
    2094:	6f436775 	svcvs	0x00436775
    2098:	6c6f736e 	stclvs	3, cr7, [pc], #-440	; 1ee8 <_start-0x877fe118>
    209c:	536b0065 	cmnpl	fp, #101	; 0x65
    20a0:	75746174 	ldrbvc	r6, [r4, #-372]!	; 0x174
    20a4:	6f724773 	svcvs	0x00724773
    20a8:	4d5f7075 	ldclmi	0, cr7, [pc, #-468]	; 1edc <_start-0x877fe124>
    20ac:	49464349 	stmdbmi	r6, {r0, r3, r6, r8, r9, lr}^
    20b0:	536b004c 	cmnpl	fp, #76	; 0x4c
    20b4:	75746174 	ldrbvc	r6, [r4, #-372]!	; 0x174
    20b8:	6f724773 	svcvs	0x00724773
    20bc:	455f7075 	ldrbmi	r7, [pc, #-117]	; 204f <_start-0x877fdfb1>
    20c0:	00414d44 	subeq	r4, r1, r4, asr #26
    20c4:	6174536b 	cmnvs	r4, fp, ror #6
    20c8:	47737574 			; <UNDEFINED> instruction: 0x47737574
    20cc:	70756f72 	rsbsvc	r6, r5, r2, ror pc
    20d0:	43504c5f 	cmpmi	r0, #24320	; 0x5f00
    20d4:	4153555f 	cmpmi	r3, pc, asr r5
    20d8:	6b005452 	blvs	17228 <_start-0x877e8dd8>
    20dc:	74617453 	strbtvc	r7, [r1], #-1107	; 0x453
    20e0:	72477375 	subvc	r7, r7, #-738197503	; 0xd4000001
    20e4:	5f70756f 	svcpl	0x0070756f
    20e8:	00474353 	subeq	r4, r7, r3, asr r3
    20ec:	6174536b 	cmnvs	r4, fp, ror #6
    20f0:	47737574 			; <UNDEFINED> instruction: 0x47737574
    20f4:	70756f72 	rsbsvc	r6, r5, r2, ror pc
    20f8:	4d44535f 	stclmi	3, cr5, [r4, #-380]	; 0xfffffe84
    20fc:	6b00434d 	blvs	12e38 <_start-0x877ed1c8>
    2100:	74617453 	strbtvc	r7, [r1], #-1107	; 0x453
    2104:	72477375 	subvc	r7, r7, #-738197503	; 0xd4000001
    2108:	5f70756f 	svcpl	0x0070756f
    210c:	3249504c 	subcc	r5, r9, #76	; 0x4c
    2110:	536b0043 	cmnpl	fp, #67	; 0x43
    2114:	75746174 	ldrbvc	r6, [r4, #-372]!	; 0x174
    2118:	6f724773 	svcvs	0x00724773
    211c:	535f7075 	cmppl	pc, #117	; 0x75
    2120:	00414d44 	subeq	r4, r1, r4, asr #26
    2124:	6174536b 	cmnvs	r4, fp, ror #6
    2128:	47737574 			; <UNDEFINED> instruction: 0x47737574
    212c:	70756f72 	rsbsvc	r6, r5, r2, ror pc
    2130:	414d535f 	cmpmi	sp, pc, asr r3
    2134:	41435452 	cmpmi	r3, r2, asr r4
    2138:	6b004452 	blvs	13288 <_start-0x877ecd78>
    213c:	74617453 	strbtvc	r7, [r1], #-1107	; 0x453
    2140:	72477375 	subvc	r7, r7, #-738197503	; 0xd4000001
    2144:	5f70756f 	svcpl	0x0070756f
    2148:	4d454d4c 	stclmi	13, cr4, [r5, #-304]	; 0xfffffed0
    214c:	61627600 	cmnvs	r2, r0, lsl #12
    2150:	536b0072 	cmnpl	fp, #114	; 0x72
    2154:	75746174 	ldrbvc	r6, [r4, #-372]!	; 0x174
    2158:	6f724773 	svcvs	0x00724773
    215c:	4c5f7075 	mrrcmi	0, 7, r7, pc, cr5	; <UNPREDICTABLE>
    2160:	49435350 	stmdbmi	r3, {r4, r6, r8, r9, ip, lr}^
    2164:	74536b00 	ldrbvc	r6, [r3], #-2816	; 0xb00
    2168:	73757461 	cmnvc	r5, #1627389952	; 0x61000000
    216c:	756f7247 	strbvc	r7, [pc, #-583]!	; 1f2d <_start-0x877fe0d3>
    2170:	53455f70 	movtpl	r5, #24432	; 0x5f70
    2174:	69004941 	stmdbvs	r0, {r0, r6, r8, fp, lr}
    2178:	65527172 	ldrbvs	r7, [r2, #-370]	; 0x172
    217c:	6b007367 	blvs	1ef20 <_start-0x877e10e0>
    2180:	74617453 	strbtvc	r7, [r1], #-1107	; 0x453
    2184:	72477375 	subvc	r7, r7, #-738197503	; 0xd4000001
    2188:	5f70756f 	svcpl	0x0070756f
    218c:	00594850 	subseq	r4, r9, r0, asr r8

Disassembly of section .comment:

00000000 <.comment>:
   0:	3a434347 	bcc	10d0d24 <_start-0x8672f2dc>
   4:	694c2820 	stmdbvs	ip, {r5, fp, sp}^
   8:	6f72616e 	svcvs	0x0072616e
   c:	43434720 	movtmi	r4, #14112	; 0x3720
  10:	392e3420 	stmdbcc	lr!, {r5, sl, ip, sp}
  14:	3130322d 	teqcc	r0, sp, lsr #4
  18:	31302e37 	teqcc	r0, r7, lsr lr
  1c:	2e342029 	cdpcs	0, 3, cr2, cr4, cr9, {1}
  20:	00342e39 	eorseq	r2, r4, r9, lsr lr

Disassembly of section .ARM.attributes:

00000000 <.ARM.attributes>:
   0:	00003041 	andeq	r3, r0, r1, asr #32
   4:	61656100 	cmnvs	r5, r0, lsl #2
   8:	01006962 	tsteq	r0, r2, ror #18
   c:	00000026 	andeq	r0, r0, r6, lsr #32
  10:	412d3705 	teqmi	sp, r5, lsl #14
  14:	070a0600 	streq	r0, [sl, -r0, lsl #12]
  18:	09010841 	stmdbeq	r1, {r0, r6, fp}
  1c:	12040a02 	andne	r0, r4, #8192	; 0x2000
  20:	15011404 	strne	r1, [r1, #-1028]	; 0x404
  24:	18031701 	stmdane	r3, {r0, r8, r9, sl, ip}
  28:	1b021a01 	blne	86834 <_start-0x877797cc>
  2c:	22011c03 	andcs	r1, r1, #768	; 0x300
  30:	Address 0x0000000000000030 is out of bounds.


Disassembly of section .debug_frame:

00000000 <.debug_frame>:
   0:	0000000c 	andeq	r0, r0, ip
   4:	ffffffff 			; <UNDEFINED> instruction: 0xffffffff
   8:	7c020001 	stcvc	0, cr0, [r2], {1}
   c:	000d0c0e 	andeq	r0, sp, lr, lsl #24
  10:	00000018 	andeq	r0, r0, r8, lsl r0
  14:	00000000 	andeq	r0, r0, r0
  18:	878002d0 			; <UNDEFINED> instruction: 0x878002d0
  1c:	0000002c 	andeq	r0, r0, ip, lsr #32
  20:	87080e41 	strhi	r0, [r8, -r1, asr #28]
  24:	41018e02 	tstmi	r1, r2, lsl #28
  28:	0000070d 	andeq	r0, r0, sp, lsl #14
  2c:	0000000c 	andeq	r0, r0, ip
  30:	ffffffff 			; <UNDEFINED> instruction: 0xffffffff
  34:	7c020001 	stcvc	0, cr0, [r2], {1}
  38:	000d0c0e 	andeq	r0, sp, lr, lsl #24
  3c:	00000020 	andeq	r0, r0, r0, lsr #32
  40:	0000002c 	andeq	r0, r0, ip, lsr #32
  44:	878002fc 			; <UNDEFINED> instruction: 0x878002fc
  48:	000000a2 	andeq	r0, r0, r2, lsr #1
  4c:	87080e41 	strhi	r0, [r8, -r1, asr #28]
  50:	41018e02 	tstmi	r1, r2, lsl #28
  54:	0d41180e 	stcleq	8, cr1, [r1, #-56]	; 0xffffffc8
  58:	0e4c0207 	cdpeq	2, 4, cr0, cr12, cr7, {0}
  5c:	0d0d4108 	stfeqs	f4, [sp, #-32]	; 0xffffffe0
  60:	00000024 	andeq	r0, r0, r4, lsr #32
  64:	0000002c 	andeq	r0, r0, ip, lsr #32
  68:	878003a0 	strhi	r0, [r0, r0, lsr #7]
  6c:	0000004a 	andeq	r0, r0, sl, asr #32
  70:	87040e41 	strhi	r0, [r4, -r1, asr #28]
  74:	180e4101 	stmdane	lr, {r0, r8, lr}
  78:	5e070d41 	cdppl	13, 0, cr0, cr7, cr1, {2}
  7c:	0d41040e 	cfstrdeq	mvd0, [r1, #-56]	; 0xffffffc8
  80:	0ec7420d 	cdpeq	2, 12, cr4, cr7, cr13, {0}
  84:	00000000 	andeq	r0, r0, r0
  88:	00000024 	andeq	r0, r0, r4, lsr #32
  8c:	0000002c 	andeq	r0, r0, ip, lsr #32
  90:	878003ec 	strhi	r0, [r0, ip, ror #7]
  94:	00000024 	andeq	r0, r0, r4, lsr #32
  98:	87040e41 	strhi	r0, [r4, -r1, asr #28]
  9c:	100e4101 	andne	r4, lr, r1, lsl #2
  a0:	4b070d41 	blmi	1c35ac <_start-0x8763ca54>
  a4:	0d41040e 	cfstrdeq	mvd0, [r1, #-56]	; 0xffffffc8
  a8:	0ec7420d 	cdpeq	2, 12, cr4, cr7, cr13, {0}
  ac:	00000000 	andeq	r0, r0, r0
  b0:	00000024 	andeq	r0, r0, r4, lsr #32
  b4:	0000002c 	andeq	r0, r0, ip, lsr #32
  b8:	87800410 	usada8hi	r0, r0, r4, r0
  bc:	00000026 	andeq	r0, r0, r6, lsr #32
  c0:	87040e41 	strhi	r0, [r4, -r1, asr #28]
  c4:	100e4101 	andne	r4, lr, r1, lsl #2
  c8:	4c070d41 	stcmi	13, cr0, [r7], {65}	; 0x41
  cc:	0d41040e 	cfstrdeq	mvd0, [r1, #-56]	; 0xffffffc8
  d0:	0ec7420d 	cdpeq	2, 12, cr4, cr7, cr13, {0}
  d4:	00000000 	andeq	r0, r0, r0
  d8:	00000024 	andeq	r0, r0, r4, lsr #32
  dc:	0000002c 	andeq	r0, r0, ip, lsr #32
  e0:	87800438 			; <UNDEFINED> instruction: 0x87800438
  e4:	00000028 	andeq	r0, r0, r8, lsr #32
  e8:	87040e41 	strhi	r0, [r4, -r1, asr #28]
  ec:	100e4101 	andne	r4, lr, r1, lsl #2
  f0:	4d070d41 	stcmi	13, cr0, [r7, #-260]	; 0xfffffefc
  f4:	0d41040e 	cfstrdeq	mvd0, [r1, #-56]	; 0xffffffc8
  f8:	0ec7420d 	cdpeq	2, 12, cr4, cr7, cr13, {0}
  fc:	00000000 	andeq	r0, r0, r0
 100:	00000024 	andeq	r0, r0, r4, lsr #32
 104:	0000002c 	andeq	r0, r0, ip, lsr #32
 108:	87800460 	strhi	r0, [r0, r0, ror #8]
 10c:	00000026 	andeq	r0, r0, r6, lsr #32
 110:	87040e41 	strhi	r0, [r4, -r1, asr #28]
 114:	100e4101 	andne	r4, lr, r1, lsl #2
 118:	4c070d41 	stcmi	13, cr0, [r7], {65}	; 0x41
 11c:	0d41040e 	cfstrdeq	mvd0, [r1, #-56]	; 0xffffffc8
 120:	0ec7420d 	cdpeq	2, 12, cr4, cr7, cr13, {0}
 124:	00000000 	andeq	r0, r0, r0
 128:	00000024 	andeq	r0, r0, r4, lsr #32
 12c:	0000002c 	andeq	r0, r0, ip, lsr #32
 130:	87800488 	strhi	r0, [r0, r8, lsl #9]
 134:	0000011c 	andeq	r0, r0, ip, lsl r1
 138:	87040e41 	strhi	r0, [r4, -r1, asr #28]
 13c:	200e4101 	andcs	r4, lr, r1, lsl #2
 140:	02070d41 	andeq	r0, r7, #4160	; 0x1040
 144:	41040e87 	smlabbmi	r4, r7, lr, r0
 148:	c7420d0d 	strbgt	r0, [r2, -sp, lsl #26]
 14c:	0000000e 	andeq	r0, r0, lr
 150:	0000000c 	andeq	r0, r0, ip
 154:	ffffffff 			; <UNDEFINED> instruction: 0xffffffff
 158:	7c020001 	stcvc	0, cr0, [r2], {1}
 15c:	000d0c0e 	andeq	r0, sp, lr, lsl #24
 160:	0000001c 	andeq	r0, r0, ip, lsl r0
 164:	00000150 	andeq	r0, r0, r0, asr r1
 168:	878005a4 	strhi	r0, [r0, r4, lsr #11]
 16c:	00000070 	andeq	r0, r0, r0, ror r0
 170:	87040e41 	strhi	r0, [r4, -r1, asr #28]
 174:	070d4101 	streq	r4, [sp, -r1, lsl #2]
 178:	420d0d73 	andmi	r0, sp, #7360	; 0x1cc0
 17c:	00000ec7 	andeq	r0, r0, r7, asr #29
 180:	00000018 	andeq	r0, r0, r8, lsl r0
 184:	00000150 	andeq	r0, r0, r0, asr r1
 188:	87800614 	usada8hi	r0, r4, r6, r0
 18c:	00000090 	muleq	r0, r0, r0
 190:	87080e41 	strhi	r0, [r8, -r1, asr #28]
 194:	41018e02 	tstmi	r1, r2, lsl #28
 198:	0000070d 	andeq	r0, r0, sp, lsl #14
 19c:	00000024 	andeq	r0, r0, r4, lsr #32
 1a0:	00000150 	andeq	r0, r0, r0, asr r1
 1a4:	878006a4 	strhi	r0, [r0, r4, lsr #13]
 1a8:	00000058 	andeq	r0, r0, r8, asr r0
 1ac:	87040e41 	strhi	r0, [r4, -r1, asr #28]
 1b0:	100e4101 	andne	r4, lr, r1, lsl #2
 1b4:	65070d41 	strvs	r0, [r7, #-3393]	; 0xd41
 1b8:	0d41040e 	cfstrdeq	mvd0, [r1, #-56]	; 0xffffffc8
 1bc:	0ec7420d 	cdpeq	2, 12, cr4, cr7, cr13, {0}
 1c0:	00000000 	andeq	r0, r0, r0
 1c4:	00000024 	andeq	r0, r0, r4, lsr #32
 1c8:	00000150 	andeq	r0, r0, r0, asr r1
 1cc:	878006fc 			; <UNDEFINED> instruction: 0x878006fc
 1d0:	00000058 	andeq	r0, r0, r8, asr r0
 1d4:	87040e41 	strhi	r0, [r4, -r1, asr #28]
 1d8:	100e4101 	andne	r4, lr, r1, lsl #2
 1dc:	65070d41 	strvs	r0, [r7, #-3393]	; 0xd41
 1e0:	0d41040e 	cfstrdeq	mvd0, [r1, #-56]	; 0xffffffc8
 1e4:	0ec7420d 	cdpeq	2, 12, cr4, cr7, cr13, {0}
 1e8:	00000000 	andeq	r0, r0, r0
 1ec:	0000001c 	andeq	r0, r0, ip, lsl r0
 1f0:	00000150 	andeq	r0, r0, r0, asr r1
 1f4:	87800754 			; <UNDEFINED> instruction: 0x87800754
 1f8:	00000068 	andeq	r0, r0, r8, rrx
 1fc:	87040e41 	strhi	r0, [r4, -r1, asr #28]
 200:	070d4101 	streq	r4, [sp, -r1, lsl #2]
 204:	420d0d6f 	andmi	r0, sp, #7104	; 0x1bc0
 208:	00000ec7 	andeq	r0, r0, r7, asr #29
 20c:	0000001c 	andeq	r0, r0, ip, lsl r0
 210:	00000150 	andeq	r0, r0, r0, asr r1
 214:	878007bc 			; <UNDEFINED> instruction: 0x878007bc
 218:	0000003c 	andeq	r0, r0, ip, lsr r0
 21c:	87040e41 	strhi	r0, [r4, -r1, asr #28]
 220:	070d4101 	streq	r4, [sp, -r1, lsl #2]
 224:	420d0d59 	andmi	r0, sp, #5696	; 0x1640
 228:	00000ec7 	andeq	r0, r0, r7, asr #29
 22c:	0000001c 	andeq	r0, r0, ip, lsl r0
 230:	00000150 	andeq	r0, r0, r0, asr r1
 234:	878007f8 			; <UNDEFINED> instruction: 0x878007f8
 238:	0000003c 	andeq	r0, r0, ip, lsr r0
 23c:	87040e41 	strhi	r0, [r4, -r1, asr #28]
 240:	070d4101 	streq	r4, [sp, -r1, lsl #2]
 244:	420d0d59 	andmi	r0, sp, #5696	; 0x1640
 248:	00000ec7 	andeq	r0, r0, r7, asr #29
 24c:	0000000c 	andeq	r0, r0, ip
 250:	ffffffff 			; <UNDEFINED> instruction: 0xffffffff
 254:	7c020001 	stcvc	0, cr0, [r2], {1}
 258:	000d0c0e 	andeq	r0, sp, lr, lsl #24
 25c:	00000024 	andeq	r0, r0, r4, lsr #32
 260:	0000024c 	andeq	r0, r0, ip, asr #4
 264:	87800834 			; <UNDEFINED> instruction: 0x87800834
 268:	0000001e 	andeq	r0, r0, lr, lsl r0
 26c:	87040e41 	strhi	r0, [r4, -r1, asr #28]
 270:	100e4101 	andne	r4, lr, r1, lsl #2
 274:	48070d41 	stmdami	r7, {r0, r6, r8, sl, fp}
 278:	0d41040e 	cfstrdeq	mvd0, [r1, #-56]	; 0xffffffc8
 27c:	0ec7420d 	cdpeq	2, 12, cr4, cr7, cr13, {0}
 280:	00000000 	andeq	r0, r0, r0
 284:	00000020 	andeq	r0, r0, r0, lsr #32
 288:	0000024c 	andeq	r0, r0, ip, asr #4
 28c:	87800854 			; <UNDEFINED> instruction: 0x87800854
 290:	00000022 	andeq	r0, r0, r2, lsr #32
 294:	87080e41 	strhi	r0, [r8, -r1, asr #28]
 298:	41018e02 	tstmi	r1, r2, lsl #28
 29c:	0d41100e 	stcleq	0, cr1, [r1, #-56]	; 0xffffffc8
 2a0:	080e4c07 	stmdaeq	lr, {r0, r1, r2, sl, fp, lr}
 2a4:	000d0d41 	andeq	r0, sp, r1, asr #26
 2a8:	0000001c 	andeq	r0, r0, ip, lsl r0
 2ac:	0000024c 	andeq	r0, r0, ip, asr #4
 2b0:	87800878 			; <UNDEFINED> instruction: 0x87800878
 2b4:	000000c8 	andeq	r0, r0, r8, asr #1
 2b8:	87040e41 	strhi	r0, [r4, -r1, asr #28]
 2bc:	070d4101 	streq	r4, [sp, -r1, lsl #2]
 2c0:	0d0d5f02 	stceq	15, cr5, [sp, #-8]
 2c4:	000ec742 	andeq	ip, lr, r2, asr #14
 2c8:	00000024 	andeq	r0, r0, r4, lsr #32
 2cc:	0000024c 	andeq	r0, r0, ip, asr #4
 2d0:	87800940 	strhi	r0, [r0, r0, asr #18]
 2d4:	0000006a 	andeq	r0, r0, sl, rrx
 2d8:	87040e41 	strhi	r0, [r4, -r1, asr #28]
 2dc:	200e4101 	andcs	r4, lr, r1, lsl #2
 2e0:	6e070d41 	cdpvs	13, 0, cr0, cr7, cr1, {2}
 2e4:	0d41040e 	cfstrdeq	mvd0, [r1, #-56]	; 0xffffffc8
 2e8:	0ec7420d 	cdpeq	2, 12, cr4, cr7, cr13, {0}
 2ec:	00000000 	andeq	r0, r0, r0
 2f0:	00000020 	andeq	r0, r0, r0, lsr #32
 2f4:	0000024c 	andeq	r0, r0, ip, asr #4
 2f8:	878009ac 	strhi	r0, [r0, ip, lsr #19]
 2fc:	0000002e 	andeq	r0, r0, lr, lsr #32
 300:	87080e41 	strhi	r0, [r8, -r1, asr #28]
 304:	41018e02 	tstmi	r1, r2, lsl #28
 308:	0d41180e 	stcleq	8, cr1, [r1, #-56]	; 0xffffffc8
 30c:	080e5207 	stmdaeq	lr, {r0, r1, r2, r9, ip, lr}
 310:	000d0d41 	andeq	r0, sp, r1, asr #26
 314:	00000020 	andeq	r0, r0, r0, lsr #32
 318:	0000024c 	andeq	r0, r0, ip, asr #4
 31c:	878009dc 			; <UNDEFINED> instruction: 0x878009dc
 320:	0000002e 	andeq	r0, r0, lr, lsr #32
 324:	87080e41 	strhi	r0, [r8, -r1, asr #28]
 328:	41018e02 	tstmi	r1, r2, lsl #28
 32c:	0d41180e 	stcleq	8, cr1, [r1, #-56]	; 0xffffffc8
 330:	080e5207 	stmdaeq	lr, {r0, r1, r2, r9, ip, lr}
 334:	000d0d41 	andeq	r0, sp, r1, asr #26
 338:	0000000c 	andeq	r0, r0, ip
 33c:	ffffffff 			; <UNDEFINED> instruction: 0xffffffff
 340:	7c020001 	stcvc	0, cr0, [r2], {1}
 344:	000d0c0e 	andeq	r0, sp, lr, lsl #24
 348:	00000020 	andeq	r0, r0, r0, lsr #32
 34c:	00000338 	andeq	r0, r0, r8, lsr r3
 350:	87800a0c 	strhi	r0, [r0, ip, lsl #20]
 354:	00000040 	andeq	r0, r0, r0, asr #32
 358:	87080e41 	strhi	r0, [r8, -r1, asr #28]
 35c:	41018e02 	tstmi	r1, r2, lsl #28
 360:	0d41180e 	stcleq	8, cr1, [r1, #-56]	; 0xffffffc8
 364:	080e5b07 	stmdaeq	lr, {r0, r1, r2, r8, r9, fp, ip, lr}
 368:	000d0d41 	andeq	r0, sp, r1, asr #26
 36c:	00000018 	andeq	r0, r0, r8, lsl r0
 370:	00000338 	andeq	r0, r0, r8, lsr r3
 374:	87800a4c 	strhi	r0, [r0, ip, asr #20]
 378:	00000016 	andeq	r0, r0, r6, lsl r0
 37c:	87080e41 	strhi	r0, [r8, -r1, asr #28]
 380:	41018e02 	tstmi	r1, r2, lsl #28
 384:	0000070d 	andeq	r0, r0, sp, lsl #14
 388:	00000018 	andeq	r0, r0, r8, lsl r0
 38c:	00000338 	andeq	r0, r0, r8, lsr r3
 390:	87800a64 	strhi	r0, [r0, r4, ror #20]
 394:	00000016 	andeq	r0, r0, r6, lsl r0
 398:	87080e41 	strhi	r0, [r8, -r1, asr #28]
 39c:	41018e02 	tstmi	r1, r2, lsl #28
 3a0:	0000070d 	andeq	r0, r0, sp, lsl #14
 3a4:	00000020 	andeq	r0, r0, r0, lsr #32
 3a8:	00000338 	andeq	r0, r0, r8, lsr r3
 3ac:	87800a7c 			; <UNDEFINED> instruction: 0x87800a7c
 3b0:	00000038 	andeq	r0, r0, r8, lsr r0
 3b4:	87080e41 	strhi	r0, [r8, -r1, asr #28]
 3b8:	41018e02 	tstmi	r1, r2, lsl #28
 3bc:	0d41100e 	stcleq	0, cr1, [r1, #-56]	; 0xffffffc8
 3c0:	080e5707 	stmdaeq	lr, {r0, r1, r2, r8, r9, sl, ip, lr}
 3c4:	000d0d41 	andeq	r0, sp, r1, asr #26
 3c8:	00000020 	andeq	r0, r0, r0, lsr #32
 3cc:	00000338 	andeq	r0, r0, r8, lsr r3
 3d0:	87800ab4 			; <UNDEFINED> instruction: 0x87800ab4
 3d4:	00000020 	andeq	r0, r0, r0, lsr #32
 3d8:	87080e41 	strhi	r0, [r8, -r1, asr #28]
 3dc:	41018e02 	tstmi	r1, r2, lsl #28
 3e0:	0d41100e 	stcleq	0, cr1, [r1, #-56]	; 0xffffffc8
 3e4:	080e4b07 	stmdaeq	lr, {r0, r1, r2, r8, r9, fp, lr}
 3e8:	000d0d41 	andeq	r0, sp, r1, asr #26
 3ec:	0000000c 	andeq	r0, r0, ip
 3f0:	ffffffff 			; <UNDEFINED> instruction: 0xffffffff
 3f4:	7c020001 	stcvc	0, cr0, [r2], {1}
 3f8:	000d0c0e 	andeq	r0, sp, lr, lsl #24
 3fc:	00000020 	andeq	r0, r0, r0, lsr #32
 400:	000003ec 	andeq	r0, r0, ip, ror #7
 404:	87800ad4 			; <UNDEFINED> instruction: 0x87800ad4
 408:	0000003c 	andeq	r0, r0, ip, lsr r0
 40c:	87080e41 	strhi	r0, [r8, -r1, asr #28]
 410:	41018e02 	tstmi	r1, r2, lsl #28
 414:	0d41180e 	stcleq	8, cr1, [r1, #-56]	; 0xffffffc8
 418:	080e5907 	stmdaeq	lr, {r0, r1, r2, r8, fp, ip, lr}
 41c:	000d0d41 	andeq	r0, sp, r1, asr #26
 420:	00000020 	andeq	r0, r0, r0, lsr #32
 424:	000003ec 	andeq	r0, r0, ip, ror #7
 428:	87800b10 	usada8hi	r0, r0, fp, r0
 42c:	00000024 	andeq	r0, r0, r4, lsr #32
 430:	87080e41 	strhi	r0, [r8, -r1, asr #28]
 434:	41018e02 	tstmi	r1, r2, lsl #28
 438:	0d41100e 	stcleq	0, cr1, [r1, #-56]	; 0xffffffc8
 43c:	080e4d07 	stmdaeq	lr, {r0, r1, r2, r8, sl, fp, lr}
 440:	000d0d41 	andeq	r0, sp, r1, asr #26
 444:	00000020 	andeq	r0, r0, r0, lsr #32
 448:	000003ec 	andeq	r0, r0, ip, ror #7
 44c:	87800b34 			; <UNDEFINED> instruction: 0x87800b34
 450:	0000006a 	andeq	r0, r0, sl, rrx
 454:	87080e41 	strhi	r0, [r8, -r1, asr #28]
 458:	41018e02 	tstmi	r1, r2, lsl #28
 45c:	0d41100e 	stcleq	0, cr1, [r1, #-56]	; 0xffffffc8
 460:	080e7007 	stmdaeq	lr, {r0, r1, r2, ip, sp, lr}
 464:	000d0d41 	andeq	r0, sp, r1, asr #26
 468:	0000000c 	andeq	r0, r0, ip
 46c:	ffffffff 			; <UNDEFINED> instruction: 0xffffffff
 470:	7c020001 	stcvc	0, cr0, [r2], {1}
 474:	000d0c0e 	andeq	r0, sp, lr, lsl #24
 478:	0000001c 	andeq	r0, r0, ip, lsl r0
 47c:	00000468 	andeq	r0, r0, r8, ror #8
 480:	87800ba0 	strhi	r0, [r0, r0, lsr #23]
 484:	00000052 	andeq	r0, r0, r2, asr r0
 488:	87040e41 	strhi	r0, [r4, -r1, asr #28]
 48c:	070d4101 	streq	r4, [sp, -r1, lsl #2]
 490:	420d0d64 	andmi	r0, sp, #100, 26	; 0x1900
 494:	00000ec7 	andeq	r0, r0, r7, asr #29
 498:	0000001c 	andeq	r0, r0, ip, lsl r0
 49c:	00000468 	andeq	r0, r0, r8, ror #8
 4a0:	87800bf4 			; <UNDEFINED> instruction: 0x87800bf4
 4a4:	00000024 	andeq	r0, r0, r4, lsr #32
 4a8:	87040e41 	strhi	r0, [r4, -r1, asr #28]
 4ac:	070d4101 	streq	r4, [sp, -r1, lsl #2]
 4b0:	420d0d4d 	andmi	r0, sp, #4928	; 0x1340
 4b4:	00000ec7 	andeq	r0, r0, r7, asr #29
 4b8:	0000001c 	andeq	r0, r0, ip, lsl r0
 4bc:	00000468 	andeq	r0, r0, r8, ror #8
 4c0:	87800c18 	usada8hi	r0, r8, ip, r0
 4c4:	00000024 	andeq	r0, r0, r4, lsr #32
 4c8:	87040e41 	strhi	r0, [r4, -r1, asr #28]
 4cc:	070d4101 	streq	r4, [sp, -r1, lsl #2]
 4d0:	420d0d4d 	andmi	r0, sp, #4928	; 0x1340
 4d4:	00000ec7 	andeq	r0, r0, r7, asr #29
 4d8:	00000020 	andeq	r0, r0, r0, lsr #32
 4dc:	00000468 	andeq	r0, r0, r8, ror #8
 4e0:	87800c3c 			; <UNDEFINED> instruction: 0x87800c3c
 4e4:	0000001e 	andeq	r0, r0, lr, lsl r0
 4e8:	87080e41 	strhi	r0, [r8, -r1, asr #28]
 4ec:	41018e02 	tstmi	r1, r2, lsl #28
 4f0:	0d41100e 	stcleq	0, cr1, [r1, #-56]	; 0xffffffc8
 4f4:	080e4a07 	stmdaeq	lr, {r0, r1, r2, r9, fp, lr}
 4f8:	000d0d41 	andeq	r0, sp, r1, asr #26
 4fc:	0000000c 	andeq	r0, r0, ip
 500:	ffffffff 			; <UNDEFINED> instruction: 0xffffffff
 504:	7c020001 	stcvc	0, cr0, [r2], {1}
 508:	000d0c0e 	andeq	r0, sp, lr, lsl #24
 50c:	00000020 	andeq	r0, r0, r0, lsr #32
 510:	000004fc 	strdeq	r0, [r0], -ip
 514:	87800c5c 			; <UNDEFINED> instruction: 0x87800c5c
 518:	00000094 	muleq	r0, r4, r0
 51c:	87080e41 	strhi	r0, [r8, -r1, asr #28]
 520:	41018e02 	tstmi	r1, r2, lsl #28
 524:	0d41200e 	stcleq	0, cr2, [r1, #-56]	; 0xffffffc8
 528:	0e450207 	cdpeq	2, 4, cr0, cr5, cr7, {0}
 52c:	0d0d4108 	stfeqs	f4, [sp, #-32]	; 0xffffffe0
 530:	00000020 	andeq	r0, r0, r0, lsr #32
 534:	000004fc 	strdeq	r0, [r0], -ip
 538:	87800cf0 			; <UNDEFINED> instruction: 0x87800cf0
 53c:	00000016 	andeq	r0, r0, r6, lsl r0
 540:	87080e41 	strhi	r0, [r8, -r1, asr #28]
 544:	41018e02 	tstmi	r1, r2, lsl #28
 548:	0d41100e 	stcleq	0, cr1, [r1, #-56]	; 0xffffffc8
 54c:	080e4607 	stmdaeq	lr, {r0, r1, r2, r9, sl, lr}
 550:	000d0d41 	andeq	r0, sp, r1, asr #26
 554:	00000020 	andeq	r0, r0, r0, lsr #32
 558:	000004fc 	strdeq	r0, [r0], -ip
 55c:	87800d08 	strhi	r0, [r0, r8, lsl #26]
 560:	00000026 	andeq	r0, r0, r6, lsr #32
 564:	87080e41 	strhi	r0, [r8, -r1, asr #28]
 568:	41018e02 	tstmi	r1, r2, lsl #28
 56c:	0d41100e 	stcleq	0, cr1, [r1, #-56]	; 0xffffffc8
 570:	080e4e07 	stmdaeq	lr, {r0, r1, r2, r9, sl, fp, lr}
 574:	000d0d41 	andeq	r0, sp, r1, asr #26
 578:	0000000c 	andeq	r0, r0, ip
 57c:	ffffffff 			; <UNDEFINED> instruction: 0xffffffff
 580:	7c020001 	stcvc	0, cr0, [r2], {1}
 584:	000d0c0e 	andeq	r0, sp, lr, lsl #24
 588:	00000020 	andeq	r0, r0, r0, lsr #32
 58c:	00000578 	andeq	r0, r0, r8, ror r5
 590:	87800d30 			; <UNDEFINED> instruction: 0x87800d30
 594:	000000dc 	ldrdeq	r0, [r0], -ip
 598:	87080e41 	strhi	r0, [r8, -r1, asr #28]
 59c:	41018e02 	tstmi	r1, r2, lsl #28
 5a0:	0d41200e 	stcleq	0, cr2, [r1, #-56]	; 0xffffffc8
 5a4:	0e690207 	cdpeq	2, 6, cr0, cr9, cr7, {0}
 5a8:	0d0d4108 	stfeqs	f4, [sp, #-32]	; 0xffffffe0
 5ac:	00000020 	andeq	r0, r0, r0, lsr #32
 5b0:	00000578 	andeq	r0, r0, r8, ror r5
 5b4:	87800e0c 	strhi	r0, [r0, ip, lsl #28]
 5b8:	0000007c 	andeq	r0, r0, ip, ror r0
 5bc:	87080e41 	strhi	r0, [r8, -r1, asr #28]
 5c0:	41018e02 	tstmi	r1, r2, lsl #28
 5c4:	0d41100e 	stcleq	0, cr1, [r1, #-56]	; 0xffffffc8
 5c8:	080e7907 	stmdaeq	lr, {r0, r1, r2, r8, fp, ip, sp, lr}
 5cc:	000d0d41 	andeq	r0, sp, r1, asr #26
 5d0:	0000001c 	andeq	r0, r0, ip, lsl r0
 5d4:	00000578 	andeq	r0, r0, r8, ror r5
 5d8:	87800e88 	strhi	r0, [r0, r8, lsl #29]
 5dc:	00000020 	andeq	r0, r0, r0, lsr #32
 5e0:	87040e41 	strhi	r0, [r4, -r1, asr #28]
 5e4:	070d4101 	streq	r4, [sp, -r1, lsl #2]
 5e8:	420d0d4b 	andmi	r0, sp, #4800	; 0x12c0
 5ec:	00000ec7 	andeq	r0, r0, r7, asr #29
 5f0:	00000020 	andeq	r0, r0, r0, lsr #32
 5f4:	00000578 	andeq	r0, r0, r8, ror r5
 5f8:	87800ea8 	strhi	r0, [r0, r8, lsr #29]
 5fc:	00000030 	andeq	r0, r0, r0, lsr r0
 600:	87080e41 	strhi	r0, [r8, -r1, asr #28]
 604:	41018e02 	tstmi	r1, r2, lsl #28
 608:	0d41100e 	stcleq	0, cr1, [r1, #-56]	; 0xffffffc8
 60c:	080e5307 	stmdaeq	lr, {r0, r1, r2, r8, r9, ip, lr}
 610:	000d0d41 	andeq	r0, sp, r1, asr #26
 614:	0000000c 	andeq	r0, r0, ip
 618:	ffffffff 			; <UNDEFINED> instruction: 0xffffffff
 61c:	7c020001 	stcvc	0, cr0, [r2], {1}
 620:	000d0c0e 	andeq	r0, sp, lr, lsl #24
 624:	00000020 	andeq	r0, r0, r0, lsr #32
 628:	00000614 	andeq	r0, r0, r4, lsl r6
 62c:	87800ed8 			; <UNDEFINED> instruction: 0x87800ed8
 630:	0000008e 	andeq	r0, r0, lr, lsl #1
 634:	87080e41 	strhi	r0, [r8, -r1, asr #28]
 638:	41018e02 	tstmi	r1, r2, lsl #28
 63c:	0d41200e 	stcleq	0, cr2, [r1, #-56]	; 0xffffffc8
 640:	0e420207 	cdpeq	2, 4, cr0, cr2, cr7, {0}
 644:	0d0d4108 	stfeqs	f4, [sp, #-32]	; 0xffffffe0
 648:	00000024 	andeq	r0, r0, r4, lsr #32
 64c:	00000614 	andeq	r0, r0, r4, lsl r6
 650:	87800f68 	strhi	r0, [r0, r8, ror #30]
 654:	0000005a 	andeq	r0, r0, sl, asr r0
 658:	87040e41 	strhi	r0, [r4, -r1, asr #28]
 65c:	100e4101 	andne	r4, lr, r1, lsl #2
 660:	66070d41 	strvs	r0, [r7], -r1, asr #26
 664:	0d41040e 	cfstrdeq	mvd0, [r1, #-56]	; 0xffffffc8
 668:	0ec7420d 	cdpeq	2, 12, cr4, cr7, cr13, {0}
 66c:	00000000 	andeq	r0, r0, r0
 670:	00000024 	andeq	r0, r0, r4, lsr #32
 674:	00000614 	andeq	r0, r0, r4, lsl r6
 678:	87800fc4 	strhi	r0, [r0, r4, asr #31]
 67c:	00000038 	andeq	r0, r0, r8, lsr r0
 680:	87040e41 	strhi	r0, [r4, -r1, asr #28]
 684:	180e4101 	stmdane	lr, {r0, r8, lr}
 688:	55070d41 	strpl	r0, [r7, #-3393]	; 0xd41
 68c:	0d41040e 	cfstrdeq	mvd0, [r1, #-56]	; 0xffffffc8
 690:	0ec7420d 	cdpeq	2, 12, cr4, cr7, cr13, {0}
 694:	00000000 	andeq	r0, r0, r0
 698:	00000018 	andeq	r0, r0, r8, lsl r0
 69c:	00000614 	andeq	r0, r0, r4, lsl r6
 6a0:	87800ffc 			; <UNDEFINED> instruction: 0x87800ffc
 6a4:	0000000c 	andeq	r0, r0, ip
 6a8:	87040e41 	strhi	r0, [r4, -r1, asr #28]
 6ac:	100e4101 	andne	r4, lr, r1, lsl #2
 6b0:	00070d41 	andeq	r0, r7, r1, asr #26
 6b4:	00000024 	andeq	r0, r0, r4, lsr #32
 6b8:	00000614 	andeq	r0, r0, r4, lsl r6
 6bc:	87801008 	strhi	r1, [r0, r8]
 6c0:	0000006e 	andeq	r0, r0, lr, rrx
 6c4:	840c0e41 	strhi	r0, [ip], #-3649	; 0xe41
 6c8:	8e028703 	cdphi	7, 0, cr8, cr2, cr3, {0}
 6cc:	200e4101 	andcs	r4, lr, r1, lsl #2
 6d0:	72070d41 	andvc	r0, r7, #4160	; 0x1040
 6d4:	0d410c0e 	stcleq	12, cr0, [r1, #-56]	; 0xffffffc8
 6d8:	0000000d 	andeq	r0, r0, sp
